
servers/console/conmngr:     file format elf32-i386

Disassembly of section .text:

00100000 <read_key>:
  100000:	55                   	push   %ebp
  100001:	89 e5                	mov    %esp,%ebp
  100003:	57                   	push   %edi
  100004:	56                   	push   %esi
  100005:	53                   	push   %ebx
  100006:	83 ec 0c             	sub    $0xc,%esp
  100009:	8b 35 24 90 10 00    	mov    0x109024,%esi
  10000f:	0f b6 45 08          	movzbl 0x8(%ebp),%eax
  100013:	8b 0d 20 90 10 00    	mov    0x109020,%ecx
  100019:	69 f6 50 0c 00 00    	imul   $0xc50,%esi,%esi
  10001f:	88 45 f3             	mov    %al,0xfffffff3(%ebp)
  100022:	8d 1c 0e             	lea    (%esi,%ecx,1),%ebx
  100025:	8b 43 0c             	mov    0xc(%ebx),%eax
  100028:	8d 7b 38             	lea    0x38(%ebx),%edi
  10002b:	a8 40                	test   $0x40,%al
  10002d:	74 31                	je     100060 <_text_start+0x60>
  10002f:	0f b6 55 f3          	movzbl 0xfffffff3(%ebp),%edx
  100033:	3b 53 20             	cmp    0x20(%ebx),%edx
  100036:	0f 84 16 01 00 00    	je     100152 <_text_start+0x152>
  10003c:	3b 53 2c             	cmp    0x2c(%ebx),%edx
  10003f:	0f 84 06 01 00 00    	je     10014b <_text_start+0x14b>
  100045:	3b 53 30             	cmp    0x30(%ebx),%edx
  100048:	74 16                	je     100060 <_text_start+0x60>
  10004a:	3b 53 34             	cmp    0x34(%ebx),%edx
  10004d:	74 11                	je     100060 <_text_start+0x60>
  10004f:	3b 53 38             	cmp    0x38(%ebx),%edx
  100052:	0f 84 cb 00 00 00    	je     100123 <_text_start+0x123>
  100058:	90                   	nop    
  100059:	8d b4 26 00 00 00 00 	lea    0x0(%esi),%esi
  100060:	a8 10                	test   $0x10,%al
  100062:	74 12                	je     100076 <_text_start+0x76>
  100064:	0f b6 45 f3          	movzbl 0xfffffff3(%ebp),%eax
  100068:	3b 43 24             	cmp    0x24(%ebx),%eax
  10006b:	0f 84 82 00 00 00    	je     1000f3 <_text_start+0xf3>
  100071:	3b 43 1c             	cmp    0x1c(%ebx),%eax
  100074:	74 57                	je     1000cd <_text_start+0xcd>
  100076:	80 7d f3 00          	cmpb   $0x0,0xfffffff3(%ebp)
  10007a:	74 3b                	je     1000b7 <_text_start+0xb7>
  10007c:	0f b6 45 f3          	movzbl 0xfffffff3(%ebp),%eax
  100080:	3b 43 18             	cmp    0x18(%ebx),%eax
  100083:	74 3b                	je     1000c0 <_text_start+0xc0>
  100085:	3b 43 14             	cmp    0x14(%ebx),%eax
  100088:	74 36                	je     1000c0 <_text_start+0xc0>
  10008a:	0f b6 55 f3          	movzbl 0xfffffff3(%ebp),%edx
  10008e:	8b 87 04 02 00 00    	mov    0x204(%edi),%eax
  100094:	88 14 07             	mov    %dl,(%edi,%eax,1)
  100097:	40                   	inc    %eax
  100098:	89 87 04 02 00 00    	mov    %eax,0x204(%edi)
  10009e:	8b 9f 14 02 00 00    	mov    0x214(%edi),%ebx
  1000a4:	85 db                	test   %ebx,%ebx
  1000a6:	74 07                	je     1000af <_text_start+0xaf>
  1000a8:	b8 32 00 00 00       	mov    $0x32,%eax
  1000ad:	cd 30                	int    $0x30
  1000af:	31 c0                	xor    %eax,%eax
  1000b1:	89 87 14 02 00 00    	mov    %eax,0x214(%edi)
  1000b7:	83 c4 0c             	add    $0xc,%esp
  1000ba:	5b                   	pop    %ebx
  1000bb:	5e                   	pop    %esi
  1000bc:	5f                   	pop    %edi
  1000bd:	5d                   	pop    %ebp
  1000be:	c3                   	ret    
  1000bf:	90                   	nop    
  1000c0:	ba 01 00 00 00       	mov    $0x1,%edx
  1000c5:	89 97 10 02 00 00    	mov    %edx,0x210(%edi)
  1000cb:	eb d1                	jmp    10009e <_text_start+0x9e>
  1000cd:	8b 87 04 02 00 00    	mov    0x204(%edi),%eax
  1000d3:	0f b6 14 38          	movzbl (%eax,%edi,1),%edx
  1000d7:	0f b6 c2             	movzbl %dl,%eax
  1000da:	3b 43 18             	cmp    0x18(%ebx),%eax
  1000dd:	75 d8                	jne    1000b7 <_text_start+0xb7>
  1000df:	3b 43 14             	cmp    0x14(%ebx),%eax
  1000e2:	75 d3                	jne    1000b7 <_text_start+0xb7>
  1000e4:	80 fa 0a             	cmp    $0xa,%dl
  1000e7:	75 ce                	jne    1000b7 <_text_start+0xb7>
  1000e9:	31 c9                	xor    %ecx,%ecx
  1000eb:	89 8f 04 02 00 00    	mov    %ecx,0x204(%edi)
  1000f1:	eb c4                	jmp    1000b7 <_text_start+0xb7>
  1000f3:	8b 87 04 02 00 00    	mov    0x204(%edi),%eax
  1000f9:	85 c0                	test   %eax,%eax
  1000fb:	74 ba                	je     1000b7 <_text_start+0xb7>
  1000fd:	8d 76 00             	lea    0x0(%esi),%esi
  100100:	0f b6 0c 38          	movzbl (%eax,%edi,1),%ecx
  100104:	0f b6 d1             	movzbl %cl,%edx
  100107:	3b 53 18             	cmp    0x18(%ebx),%edx
  10010a:	75 ab                	jne    1000b7 <_text_start+0xb7>
  10010c:	3b 53 14             	cmp    0x14(%ebx),%edx
  10010f:	75 a6                	jne    1000b7 <_text_start+0xb7>
  100111:	80 f9 0a             	cmp    $0xa,%cl
  100114:	75 a1                	jne    1000b7 <_text_start+0xb7>
  100116:	48                   	dec    %eax
  100117:	85 c0                	test   %eax,%eax
  100119:	89 87 04 02 00 00    	mov    %eax,0x204(%edi)
  10011f:	75 df                	jne    100100 <_text_start+0x100>
  100121:	eb 94                	jmp    1000b7 <_text_start+0xb7>
  100123:	b8 13 00 00 00       	mov    $0x13,%eax
  100128:	90                   	nop    
  100129:	8d b4 26 00 00 00 00 	lea    0x0(%esi),%esi
  100130:	89 44 24 04          	mov    %eax,0x4(%esp)
  100134:	8b 84 31 4c 0c 00 00 	mov    0xc4c(%ecx,%esi,1),%eax
  10013b:	89 04 24             	mov    %eax,(%esp)
  10013e:	e8 cd 4e 00 00       	call   105010 <killpg>
  100143:	8b 43 0c             	mov    0xc(%ebx),%eax
  100146:	e9 15 ff ff ff       	jmp    100060 <_text_start+0x60>
  10014b:	b8 0d 00 00 00       	mov    $0xd,%eax
  100150:	eb de                	jmp    100130 <_text_start+0x130>
  100152:	b8 09 00 00 00       	mov    $0x9,%eax
  100157:	eb d7                	jmp    100130 <_text_start+0x130>
  100159:	8d b4 26 00 00 00 00 	lea    0x0(%esi),%esi

00100160 <msg_con_open>:
  100160:	55                   	push   %ebp
  100161:	89 e5                	mov    %esp,%ebp
  100163:	83 ec 48             	sub    $0x48,%esp
  100166:	89 7d fc             	mov    %edi,0xfffffffc(%ebp)
  100169:	a1 24 90 10 00       	mov    0x109024,%eax
  10016e:	8b 15 20 90 10 00    	mov    0x109020,%edx
  100174:	89 5d f4             	mov    %ebx,0xfffffff4(%ebp)
  100177:	8b 7d 08             	mov    0x8(%ebp),%edi
  10017a:	69 c0 50 0c 00 00    	imul   $0xc50,%eax,%eax
  100180:	89 75 f8             	mov    %esi,0xfffffff8(%ebp)
  100183:	8b 5f 10             	mov    0x10(%edi),%ebx
  100186:	01 d0                	add    %edx,%eax
  100188:	89 45 d4             	mov    %eax,0xffffffd4(%ebp)
  10018b:	b8 09 00 00 00       	mov    $0x9,%eax
  100190:	cd 30                	int    $0x30
  100192:	f6 47 1e 20          	testb  $0x20,0x1e(%edi)
  100196:	89 45 d8             	mov    %eax,0xffffffd8(%ebp)
  100199:	8b 45 d4             	mov    0xffffffd4(%ebp),%eax
  10019c:	89 5d dc             	mov    %ebx,0xffffffdc(%ebp)
  10019f:	89 4d e0             	mov    %ecx,0xffffffe0(%ebp)
  1001a2:	89 55 e4             	mov    %edx,0xffffffe4(%ebp)
  1001a5:	89 88 4c 0c 00 00    	mov    %ecx,0xc4c(%eax)
  1001ab:	74 13                	je     1001c0 <msg_con_open+0x60>
  1001ad:	8b 5d f4             	mov    0xfffffff4(%ebp),%ebx
  1001b0:	31 c0                	xor    %eax,%eax
  1001b2:	8b 75 f8             	mov    0xfffffff8(%ebp),%esi
  1001b5:	8b 7d fc             	mov    0xfffffffc(%ebp),%edi
  1001b8:	89 ec                	mov    %ebp,%esp
  1001ba:	5d                   	pop    %ebp
  1001bb:	c3                   	ret    
  1001bc:	8d 74 26 00          	lea    0x0(%esi),%esi
  1001c0:	89 7c 24 04          	mov    %edi,0x4(%esp)
  1001c4:	8b 47 10             	mov    0x10(%edi),%eax
  1001c7:	89 04 24             	mov    %eax,(%esp)
  1001ca:	e8 21 0f 00 00       	call   1010f0 <reply_message>
  1001cf:	eb dc                	jmp    1001ad <msg_con_open+0x4d>
  1001d1:	eb 0d                	jmp    1001e0 <msg_con_close>
  1001d3:	90                   	nop    
  1001d4:	90                   	nop    
  1001d5:	90                   	nop    
  1001d6:	90                   	nop    
  1001d7:	90                   	nop    
  1001d8:	90                   	nop    
  1001d9:	90                   	nop    
  1001da:	90                   	nop    
  1001db:	90                   	nop    
  1001dc:	90                   	nop    
  1001dd:	90                   	nop    
  1001de:	90                   	nop    
  1001df:	90                   	nop    

001001e0 <msg_con_close>:
  1001e0:	55                   	push   %ebp
  1001e1:	89 e5                	mov    %esp,%ebp
  1001e3:	83 ec 48             	sub    $0x48,%esp
  1001e6:	89 7d fc             	mov    %edi,0xfffffffc(%ebp)
  1001e9:	a1 24 90 10 00       	mov    0x109024,%eax
  1001ee:	8b 15 20 90 10 00    	mov    0x109020,%edx
  1001f4:	89 5d f4             	mov    %ebx,0xfffffff4(%ebp)
  1001f7:	8b 7d 08             	mov    0x8(%ebp),%edi
  1001fa:	69 c0 50 0c 00 00    	imul   $0xc50,%eax,%eax
  100200:	89 75 f8             	mov    %esi,0xfffffff8(%ebp)
  100203:	8b 5f 10             	mov    0x10(%edi),%ebx
  100206:	01 d0                	add    %edx,%eax
  100208:	89 45 d4             	mov    %eax,0xffffffd4(%ebp)
  10020b:	b8 09 00 00 00       	mov    $0x9,%eax
  100210:	cd 30                	int    $0x30
  100212:	f6 47 1e 20          	testb  $0x20,0x1e(%edi)
  100216:	89 45 d8             	mov    %eax,0xffffffd8(%ebp)
  100219:	8b 45 d4             	mov    0xffffffd4(%ebp),%eax
  10021c:	89 5d dc             	mov    %ebx,0xffffffdc(%ebp)
  10021f:	89 4d e0             	mov    %ecx,0xffffffe0(%ebp)
  100222:	89 55 e4             	mov    %edx,0xffffffe4(%ebp)
  100225:	89 88 4c 0c 00 00    	mov    %ecx,0xc4c(%eax)
  10022b:	74 13                	je     100240 <msg_con_close+0x60>
  10022d:	8b 5d f4             	mov    0xfffffff4(%ebp),%ebx
  100230:	31 c0                	xor    %eax,%eax
  100232:	8b 75 f8             	mov    0xfffffff8(%ebp),%esi
  100235:	8b 7d fc             	mov    0xfffffffc(%ebp),%edi
  100238:	89 ec                	mov    %ebp,%esp
  10023a:	5d                   	pop    %ebp
  10023b:	c3                   	ret    
  10023c:	8d 74 26 00          	lea    0x0(%esi),%esi
  100240:	89 7c 24 04          	mov    %edi,0x4(%esp)
  100244:	8b 47 10             	mov    0x10(%edi),%eax
  100247:	89 04 24             	mov    %eax,(%esp)
  10024a:	e8 a1 0e 00 00       	call   1010f0 <reply_message>
  10024f:	eb dc                	jmp    10022d <msg_con_close+0x4d>
  100251:	eb 0d                	jmp    100260 <msg_con_read>
  100253:	90                   	nop    
  100254:	90                   	nop    
  100255:	90                   	nop    
  100256:	90                   	nop    
  100257:	90                   	nop    
  100258:	90                   	nop    
  100259:	90                   	nop    
  10025a:	90                   	nop    
  10025b:	90                   	nop    
  10025c:	90                   	nop    
  10025d:	90                   	nop    
  10025e:	90                   	nop    
  10025f:	90                   	nop    

00100260 <msg_con_read>:
  100260:	55                   	push   %ebp
  100261:	89 e5                	mov    %esp,%ebp
  100263:	57                   	push   %edi
  100264:	56                   	push   %esi
  100265:	53                   	push   %ebx
  100266:	83 ec 2c             	sub    $0x2c,%esp
  100269:	a1 24 90 10 00       	mov    0x109024,%eax
  10026e:	8b 15 20 90 10 00    	mov    0x109020,%edx
  100274:	8b 5d 08             	mov    0x8(%ebp),%ebx
  100277:	69 c0 50 0c 00 00    	imul   $0xc50,%eax,%eax
  10027d:	01 d0                	add    %edx,%eax
  10027f:	8b 55 08             	mov    0x8(%ebp),%edx
  100282:	89 45 e0             	mov    %eax,0xffffffe0(%ebp)
  100285:	8b 5b 04             	mov    0x4(%ebx),%ebx
  100288:	8b 45 08             	mov    0x8(%ebp),%eax
  10028b:	89 5d f0             	mov    %ebx,0xfffffff0(%ebp)
  10028e:	8b 40 08             	mov    0x8(%eax),%eax
  100291:	89 45 ec             	mov    %eax,0xffffffec(%ebp)
  100294:	8b 42 10             	mov    0x10(%edx),%eax
  100297:	89 04 24             	mov    %eax,(%esp)
  10029a:	e8 31 58 00 00       	call   105ad0 <getpgid>
  10029f:	8b 5d e0             	mov    0xffffffe0(%ebp),%ebx
  1002a2:	39 83 4c 0c 00 00    	cmp    %eax,0xc4c(%ebx)
  1002a8:	74 17                	je     1002c1 <msg_con_read+0x61>
  1002aa:	8b 7d 08             	mov    0x8(%ebp),%edi
  1002ad:	bb 14 00 00 00       	mov    $0x14,%ebx
  1002b2:	89 5c 24 04          	mov    %ebx,0x4(%esp)
  1002b6:	8b 47 10             	mov    0x10(%edi),%eax
  1002b9:	89 04 24             	mov    %eax,(%esp)
  1002bc:	e8 7f 4d 00 00       	call   105040 <pthread_kill>
  1002c1:	8b 45 e0             	mov    0xffffffe0(%ebp),%eax
  1002c4:	f6 40 0c 10          	testb  $0x10,0xc(%eax)
  1002c8:	0f 84 b5 00 00 00    	je     100383 <msg_con_read+0x123>
  1002ce:	8b 90 3c 02 00 00    	mov    0x23c(%eax),%edx
  1002d4:	3b 55 ec             	cmp    0xffffffec(%ebp),%edx
  1002d7:	73 45                	jae    10031e <msg_con_read+0xbe>
  1002d9:	31 ff                	xor    %edi,%edi
  1002db:	be 31 00 00 00       	mov    $0x31,%esi
  1002e0:	89 54 24 04          	mov    %edx,0x4(%esp)
  1002e4:	c7 04 24 c5 71 10 00 	movl   $0x1071c5,(%esp)
  1002eb:	e8 10 09 00 00       	call   100c00 <con_printf>
  1002f0:	8b 55 e0             	mov    0xffffffe0(%ebp),%edx
  1002f3:	83 ba 48 02 00 00 01 	cmpl   $0x1,0x248(%edx)
  1002fa:	74 7a                	je     100376 <msg_con_read+0x116>
  1002fc:	e8 9f 49 00 00       	call   104ca0 <pthread_self>
  100301:	8b 5d e0             	mov    0xffffffe0(%ebp),%ebx
  100304:	89 83 4c 02 00 00    	mov    %eax,0x24c(%ebx)
  10030a:	89 f0                	mov    %esi,%eax
  10030c:	89 fb                	mov    %edi,%ebx
  10030e:	cd 30                	int    $0x30
  100310:	8b 45 e0             	mov    0xffffffe0(%ebp),%eax
  100313:	8b 90 3c 02 00 00    	mov    0x23c(%eax),%edx
  100319:	3b 55 ec             	cmp    0xffffffec(%ebp),%edx
  10031c:	72 c2                	jb     1002e0 <msg_con_read+0x80>
  10031e:	8b 75 e0             	mov    0xffffffe0(%ebp),%esi
  100321:	8b 4d ec             	mov    0xffffffec(%ebp),%ecx
  100324:	8b 7d f0             	mov    0xfffffff0(%ebp),%edi
  100327:	83 c6 38             	add    $0x38,%esi
  10032a:	8b 55 ec             	mov    0xffffffec(%ebp),%edx
  10032d:	c1 e9 02             	shr    $0x2,%ecx
  100330:	f3 a5                	repz movsl %ds:(%esi),%es:(%edi)
  100332:	f6 c2 02             	test   $0x2,%dl
  100335:	74 02                	je     100339 <msg_con_read+0xd9>
  100337:	66 a5                	movsw  %ds:(%esi),%es:(%edi)
  100339:	f6 c2 01             	test   $0x1,%dl
  10033c:	74 01                	je     10033f <msg_con_read+0xdf>
  10033e:	a4                   	movsb  %ds:(%esi),%es:(%edi)
  10033f:	8b 5d e0             	mov    0xffffffe0(%ebp),%ebx
  100342:	31 c9                	xor    %ecx,%ecx
  100344:	8b 7d 08             	mov    0x8(%ebp),%edi
  100347:	8b 83 3c 02 00 00    	mov    0x23c(%ebx),%eax
  10034d:	89 8b 3c 02 00 00    	mov    %ecx,0x23c(%ebx)
  100353:	89 47 18             	mov    %eax,0x18(%edi)
  100356:	8b 45 08             	mov    0x8(%ebp),%eax
  100359:	89 44 24 04          	mov    %eax,0x4(%esp)
  10035d:	8b 40 10             	mov    0x10(%eax),%eax
  100360:	89 04 24             	mov    %eax,(%esp)
  100363:	e8 88 0d 00 00       	call   1010f0 <reply_message>
  100368:	8b 5d 08             	mov    0x8(%ebp),%ebx
  10036b:	8b 43 18             	mov    0x18(%ebx),%eax
  10036e:	83 c4 2c             	add    $0x2c,%esp
  100371:	5b                   	pop    %ebx
  100372:	5e                   	pop    %esi
  100373:	5f                   	pop    %edi
  100374:	5d                   	pop    %ebp
  100375:	c3                   	ret    
  100376:	8b 45 e0             	mov    0xffffffe0(%ebp),%eax
  100379:	31 d2                	xor    %edx,%edx
  10037b:	89 90 48 02 00 00    	mov    %edx,0x248(%eax)
  100381:	eb 9b                	jmp    10031e <msg_con_read+0xbe>
  100383:	8b 5d e0             	mov    0xffffffe0(%ebp),%ebx
  100386:	8b 55 08             	mov    0x8(%ebp),%edx
  100389:	8b 4b 28             	mov    0x28(%ebx),%ecx
  10038c:	8b 52 10             	mov    0x10(%edx),%edx
  10038f:	85 c9                	test   %ecx,%ecx
  100391:	89 55 dc             	mov    %edx,0xffffffdc(%ebp)
  100394:	0f 85 a3 00 00 00    	jne    10043d <msg_con_read+0x1dd>
  10039a:	8b 43 10             	mov    0x10(%ebx),%eax
  10039d:	85 c0                	test   %eax,%eax
  10039f:	0f 85 87 00 00 00    	jne    10042c <msg_con_read+0x1cc>
  1003a5:	8b 7d e0             	mov    0xffffffe0(%ebp),%edi
  1003a8:	83 c3 38             	add    $0x38,%ebx
  1003ab:	89 de                	mov    %ebx,%esi
  1003ad:	89 5d e4             	mov    %ebx,0xffffffe4(%ebp)
  1003b0:	8b 87 3c 02 00 00    	mov    0x23c(%edi),%eax
  1003b6:	8b 7d f0             	mov    0xfffffff0(%ebp),%edi
  1003b9:	89 c1                	mov    %eax,%ecx
  1003bb:	c1 e9 02             	shr    $0x2,%ecx
  1003be:	f3 a5                	repz movsl %ds:(%esi),%es:(%edi)
  1003c0:	a8 02                	test   $0x2,%al
  1003c2:	74 02                	je     1003c6 <msg_con_read+0x166>
  1003c4:	66 a5                	movsw  %ds:(%esi),%es:(%edi)
  1003c6:	a8 01                	test   $0x1,%al
  1003c8:	74 01                	je     1003cb <msg_con_read+0x16b>
  1003ca:	a4                   	movsb  %ds:(%esi),%es:(%edi)
  1003cb:	8b 45 e0             	mov    0xffffffe0(%ebp),%eax
  1003ce:	8b 5d e0             	mov    0xffffffe0(%ebp),%ebx
  1003d1:	8b 55 e0             	mov    0xffffffe0(%ebp),%edx
  1003d4:	8b 80 3c 02 00 00    	mov    0x23c(%eax),%eax
  1003da:	8b 4b 28             	mov    0x28(%ebx),%ecx
  1003dd:	89 45 e8             	mov    %eax,0xffffffe8(%ebp)
  1003e0:	31 c0                	xor    %eax,%eax
  1003e2:	89 82 3c 02 00 00    	mov    %eax,0x23c(%edx)
  1003e8:	31 d2                	xor    %edx,%edx
  1003ea:	8d b6 00 00 00 00    	lea    0x0(%esi),%esi
  1003f0:	39 ca                	cmp    %ecx,%edx
  1003f2:	73 0c                	jae    100400 <msg_con_read+0x1a0>
  1003f4:	b8 31 00 00 00       	mov    $0x31,%eax
  1003f9:	8b 5d dc             	mov    0xffffffdc(%ebp),%ebx
  1003fc:	cd 30                	int    $0x30
  1003fe:	eb f0                	jmp    1003f0 <msg_con_read+0x190>
  100400:	8b 4d ec             	mov    0xffffffec(%ebp),%ecx
  100403:	8b 7d f0             	mov    0xfffffff0(%ebp),%edi
  100406:	8b 75 e4             	mov    0xffffffe4(%ebp),%esi
  100409:	c1 e9 02             	shr    $0x2,%ecx
  10040c:	8b 55 ec             	mov    0xffffffec(%ebp),%edx
  10040f:	f3 a5                	repz movsl %ds:(%esi),%es:(%edi)
  100411:	f6 c2 02             	test   $0x2,%dl
  100414:	74 02                	je     100418 <msg_con_read+0x1b8>
  100416:	66 a5                	movsw  %ds:(%esi),%es:(%edi)
  100418:	f6 c2 01             	test   $0x1,%dl
  10041b:	74 01                	je     10041e <msg_con_read+0x1be>
  10041d:	a4                   	movsb  %ds:(%esi),%es:(%edi)
  10041e:	8b 7d e8             	mov    0xffffffe8(%ebp),%edi
  100421:	8b 5d 08             	mov    0x8(%ebp),%ebx
  100424:	89 7b 18             	mov    %edi,0x18(%ebx)
  100427:	e9 2a ff ff ff       	jmp    100356 <msg_con_read+0xf6>
  10042c:	8b 5d e0             	mov    0xffffffe0(%ebp),%ebx
  10042f:	8b 93 3c 02 00 00    	mov    0x23c(%ebx),%edx
  100435:	8d 7b 38             	lea    0x38(%ebx),%edi
  100438:	89 7d e4             	mov    %edi,0xffffffe4(%ebp)
  10043b:	eb b3                	jmp    1003f0 <msg_con_read+0x190>
  10043d:	8b 7d e0             	mov    0xffffffe0(%ebp),%edi
  100440:	8b 97 3c 02 00 00    	mov    0x23c(%edi),%edx
  100446:	8d 47 38             	lea    0x38(%edi),%eax
  100449:	89 45 e4             	mov    %eax,0xffffffe4(%ebp)
  10044c:	eb a2                	jmp    1003f0 <msg_con_read+0x190>
  10044e:	89 f6                	mov    %esi,%esi

00100450 <msg_con_write>:
  100450:	55                   	push   %ebp
  100451:	89 e5                	mov    %esp,%ebp
  100453:	83 ec 08             	sub    $0x8,%esp
  100456:	8b 45 08             	mov    0x8(%ebp),%eax
  100459:	8b 40 14             	mov    0x14(%eax),%eax
  10045c:	89 04 24             	mov    %eax,(%esp)
  10045f:	e8 0c 07 00 00       	call   100b70 <scr_write>
  100464:	89 ec                	mov    %ebp,%esp
  100466:	31 c0                	xor    %eax,%eax
  100468:	5d                   	pop    %ebp
  100469:	c3                   	ret    
  10046a:	8d b6 00 00 00 00    	lea    0x0(%esi),%esi

00100470 <msg_tcgetattr>:
  100470:	55                   	push   %ebp
  100471:	b9 0e 00 00 00       	mov    $0xe,%ecx
  100476:	89 e5                	mov    %esp,%ebp
  100478:	fc                   	cld    
  100479:	83 ec 18             	sub    $0x18,%esp
  10047c:	8b 45 08             	mov    0x8(%ebp),%eax
  10047f:	89 75 f8             	mov    %esi,0xfffffff8(%ebp)
  100482:	8b 15 20 90 10 00    	mov    0x109020,%edx
  100488:	8b 35 24 90 10 00    	mov    0x109024,%esi
  10048e:	89 7d fc             	mov    %edi,0xfffffffc(%ebp)
  100491:	8b 78 14             	mov    0x14(%eax),%edi
  100494:	69 f6 50 0c 00 00    	imul   $0xc50,%esi,%esi
  10049a:	01 d6                	add    %edx,%esi
  10049c:	f3 a5                	repz movsl %ds:(%esi),%es:(%edi)
  10049e:	89 44 24 04          	mov    %eax,0x4(%esp)
  1004a2:	8b 40 10             	mov    0x10(%eax),%eax
  1004a5:	89 04 24             	mov    %eax,(%esp)
  1004a8:	e8 43 0c 00 00       	call   1010f0 <reply_message>
  1004ad:	8b 75 f8             	mov    0xfffffff8(%ebp),%esi
  1004b0:	31 c0                	xor    %eax,%eax
  1004b2:	8b 7d fc             	mov    0xfffffffc(%ebp),%edi
  1004b5:	89 ec                	mov    %ebp,%esp
  1004b7:	5d                   	pop    %ebp
  1004b8:	c3                   	ret    
  1004b9:	8d b4 26 00 00 00 00 	lea    0x0(%esi),%esi

001004c0 <msg_tcsetattr>:
  1004c0:	55                   	push   %ebp
  1004c1:	b8 38 00 00 00       	mov    $0x38,%eax
  1004c6:	89 e5                	mov    %esp,%ebp
  1004c8:	83 ec 18             	sub    $0x18,%esp
  1004cb:	8b 0d 20 90 10 00    	mov    0x109020,%ecx
  1004d1:	89 7d fc             	mov    %edi,0xfffffffc(%ebp)
  1004d4:	8b 3d 24 90 10 00    	mov    0x109024,%edi
  1004da:	89 75 f8             	mov    %esi,0xfffffff8(%ebp)
  1004dd:	8b 55 08             	mov    0x8(%ebp),%edx
  1004e0:	69 ff 50 0c 00 00    	imul   $0xc50,%edi,%edi
  1004e6:	8b 72 14             	mov    0x14(%edx),%esi
  1004e9:	01 cf                	add    %ecx,%edi
  1004eb:	b9 0e 00 00 00       	mov    $0xe,%ecx
  1004f0:	f3 a5                	repz movsl %ds:(%esi),%es:(%edi)
  1004f2:	a8 02                	test   $0x2,%al
  1004f4:	74 02                	je     1004f8 <msg_tcsetattr+0x38>
  1004f6:	66 a5                	movsw  %ds:(%esi),%es:(%edi)
  1004f8:	a8 01                	test   $0x1,%al
  1004fa:	74 01                	je     1004fd <msg_tcsetattr+0x3d>
  1004fc:	a4                   	movsb  %ds:(%esi),%es:(%edi)
  1004fd:	89 54 24 04          	mov    %edx,0x4(%esp)
  100501:	8b 42 10             	mov    0x10(%edx),%eax
  100504:	89 04 24             	mov    %eax,(%esp)
  100507:	e8 e4 0b 00 00       	call   1010f0 <reply_message>
  10050c:	8b 75 f8             	mov    0xfffffff8(%ebp),%esi
  10050f:	31 c0                	xor    %eax,%eax
  100511:	8b 7d fc             	mov    0xfffffffc(%ebp),%edi
  100514:	89 ec                	mov    %ebp,%esp
  100516:	5d                   	pop    %ebp
  100517:	c3                   	ret    
  100518:	90                   	nop    
  100519:	8d b4 26 00 00 00 00 	lea    0x0(%esi),%esi

00100520 <msg_tcgetsid>:
  100520:	55                   	push   %ebp
  100521:	89 e5                	mov    %esp,%ebp
  100523:	83 ec 08             	sub    $0x8,%esp
  100526:	a1 24 90 10 00       	mov    0x109024,%eax
  10052b:	8b 0d 20 90 10 00    	mov    0x109020,%ecx
  100531:	8b 55 08             	mov    0x8(%ebp),%edx
  100534:	69 c0 50 0c 00 00    	imul   $0xc50,%eax,%eax
  10053a:	01 c8                	add    %ecx,%eax
  10053c:	8b 80 4c 0c 00 00    	mov    0xc4c(%eax),%eax
  100542:	89 42 18             	mov    %eax,0x18(%edx)
  100545:	89 54 24 04          	mov    %edx,0x4(%esp)
  100549:	8b 42 10             	mov    0x10(%edx),%eax
  10054c:	89 04 24             	mov    %eax,(%esp)
  10054f:	e8 9c 0b 00 00       	call   1010f0 <reply_message>
  100554:	89 ec                	mov    %ebp,%esp
  100556:	31 c0                	xor    %eax,%eax
  100558:	5d                   	pop    %ebp
  100559:	c3                   	ret    
  10055a:	8d b6 00 00 00 00    	lea    0x0(%esi),%esi

00100560 <msg_tcflush>:
  100560:	55                   	push   %ebp
  100561:	89 e5                	mov    %esp,%ebp
  100563:	83 ec 08             	sub    $0x8,%esp
  100566:	a1 24 90 10 00       	mov    0x109024,%eax
  10056b:	8b 55 08             	mov    0x8(%ebp),%edx
  10056e:	8b 0d 20 90 10 00    	mov    0x109020,%ecx
  100574:	69 c0 50 0c 00 00    	imul   $0xc50,%eax,%eax
  10057a:	01 c8                	add    %ecx,%eax
  10057c:	f6 42 14 01          	testb  $0x1,0x14(%edx)
  100580:	74 08                	je     10058a <msg_tcflush+0x2a>
  100582:	31 c9                	xor    %ecx,%ecx
  100584:	89 88 3c 02 00 00    	mov    %ecx,0x23c(%eax)
  10058a:	89 54 24 04          	mov    %edx,0x4(%esp)
  10058e:	8b 42 10             	mov    0x10(%edx),%eax
  100591:	89 04 24             	mov    %eax,(%esp)
  100594:	e8 57 0b 00 00       	call   1010f0 <reply_message>
  100599:	89 ec                	mov    %ebp,%esp
  10059b:	31 c0                	xor    %eax,%eax
  10059d:	5d                   	pop    %ebp
  10059e:	c3                   	ret    
  10059f:	90                   	nop    

001005a0 <con_panic>:
  1005a0:	55                   	push   %ebp
  1005a1:	89 e5                	mov    %esp,%ebp
  1005a3:	83 ec 18             	sub    $0x18,%esp
  1005a6:	89 5d f8             	mov    %ebx,0xfffffff8(%ebp)
  1005a9:	8b 5d 08             	mov    0x8(%ebp),%ebx
  1005ac:	89 75 fc             	mov    %esi,0xfffffffc(%ebp)
  1005af:	8b 75 0c             	mov    0xc(%ebp),%esi
  1005b2:	c7 04 24 a8 71 10 00 	movl   $0x1071a8,(%esp)
  1005b9:	e8 b2 05 00 00       	call   100b70 <scr_write>
  1005be:	89 1c 24             	mov    %ebx,(%esp)
  1005c1:	e8 aa 05 00 00       	call   100b70 <scr_write>
  1005c6:	c7 04 24 ba 71 10 00 	movl   $0x1071ba,(%esp)
  1005cd:	e8 9e 05 00 00       	call   100b70 <scr_write>
  1005d2:	89 75 08             	mov    %esi,0x8(%ebp)
  1005d5:	8b 5d f8             	mov    0xfffffff8(%ebp),%ebx
  1005d8:	8b 75 fc             	mov    0xfffffffc(%ebp),%esi
  1005db:	89 ec                	mov    %ebp,%esp
  1005dd:	5d                   	pop    %ebp
  1005de:	e9 cd 41 00 00       	jmp    1047b0 <exit>
  1005e3:	8d b6 00 00 00 00    	lea    0x0(%esi),%esi
  1005e9:	8d bc 27 00 00 00 00 	lea    0x0(%edi),%edi

001005f0 <tty_worker>:
  1005f0:	55                   	push   %ebp
  1005f1:	89 e5                	mov    %esp,%ebp
  1005f3:	57                   	push   %edi
  1005f4:	31 ff                	xor    %edi,%edi
  1005f6:	56                   	push   %esi
  1005f7:	31 f6                	xor    %esi,%esi
  1005f9:	53                   	push   %ebx
  1005fa:	83 ec 3c             	sub    $0x3c,%esp
  1005fd:	8d 5d d4             	lea    0xffffffd4(%ebp),%ebx
  100600:	89 1c 24             	mov    %ebx,(%esp)
  100603:	e8 38 4e 00 00       	call   105440 <sigfillset>
  100608:	89 1c 24             	mov    %ebx,(%esp)
  10060b:	b8 1b 00 00 00       	mov    $0x1b,%eax
  100610:	89 44 24 04          	mov    %eax,0x4(%esp)
  100614:	e8 e7 4d 00 00       	call   105400 <sigdelset>
  100619:	89 5c 24 04          	mov    %ebx,0x4(%esp)
  10061d:	89 7c 24 08          	mov    %edi,0x8(%esp)
  100621:	c7 04 24 03 00 00 00 	movl   $0x3,(%esp)
  100628:	e8 b3 4a 00 00       	call   1050e0 <pthread_sigmask>
  10062d:	89 74 24 08          	mov    %esi,0x8(%esp)
  100631:	8d 45 d8             	lea    0xffffffd8(%ebp),%eax
  100634:	c7 45 e0 01 00 00 00 	movl   $0x1,0xffffffe0(%ebp)
  10063b:	89 44 24 04          	mov    %eax,0x4(%esp)
  10063f:	c7 04 24 1b 00 00 00 	movl   $0x1b,(%esp)
  100646:	e8 25 49 00 00       	call   104f70 <sigaction>
  10064b:	8b 55 08             	mov    0x8(%ebp),%edx
  10064e:	b9 5f 43 79 0d       	mov    $0xd79435f,%ecx
  100653:	8b 1d 00 90 10 00    	mov    0x109000,%ebx
  100659:	83 0a 01             	orl    $0x1,(%edx)
  10065c:	89 d0                	mov    %edx,%eax
  10065e:	29 d8                	sub    %ebx,%eax
  100660:	c1 e8 04             	shr    $0x4,%eax
  100663:	bb 03 00 00 00       	mov    $0x3,%ebx
  100668:	f7 e1                	mul    %ecx
  10066a:	b8 26 00 00 00       	mov    $0x26,%eax
  10066f:	89 d6                	mov    %edx,%esi
  100671:	cd 30                	int    $0x30
  100673:	8b 45 08             	mov    0x8(%ebp),%eax
  100676:	8d 7d d0             	lea    0xffffffd0(%ebp),%edi
  100679:	8d 58 10             	lea    0x10(%eax),%ebx
  10067c:	8d 74 26 00          	lea    0x0(%esi),%esi
  100680:	89 7c 24 04          	mov    %edi,0x4(%esp)
  100684:	8d 55 d4             	lea    0xffffffd4(%ebp),%edx
  100687:	89 14 24             	mov    %edx,(%esp)
  10068a:	e8 b1 4c 00 00       	call   105340 <sigwait>
  10068f:	8b 55 08             	mov    0x8(%ebp),%edx
  100692:	8b 42 0c             	mov    0xc(%edx),%eax
  100695:	89 1c 24             	mov    %ebx,(%esp)
  100698:	8b 04 85 20 80 10 00 	mov    0x108020(,%eax,4),%eax
  10069f:	ff d0                	call   *%eax
  1006a1:	0f b3 35 08 90 10 00 	btr    %esi,0x109008
  1006a8:	eb d6                	jmp    100680 <tty_worker+0x90>
  1006aa:	8d b6 00 00 00 00    	lea    0x0(%esi),%esi

001006b0 <worker>:
  1006b0:	55                   	push   %ebp
  1006b1:	89 e5                	mov    %esp,%ebp
  1006b3:	83 ec 08             	sub    $0x8,%esp
  1006b6:	8b 45 08             	mov    0x8(%ebp),%eax
  1006b9:	8b 50 0c             	mov    0xc(%eax),%edx
  1006bc:	83 c0 10             	add    $0x10,%eax
  1006bf:	89 04 24             	mov    %eax,(%esp)
  1006c2:	8b 14 95 20 80 10 00 	mov    0x108020(,%edx,4),%edx
  1006c9:	ff d2                	call   *%edx
  1006cb:	89 ec                	mov    %ebp,%esp
  1006cd:	31 c0                	xor    %eax,%eax
  1006cf:	5d                   	pop    %ebp
  1006d0:	c3                   	ret    
  1006d1:	eb 0d                	jmp    1006e0 <handle_full>
  1006d3:	90                   	nop    
  1006d4:	90                   	nop    
  1006d5:	90                   	nop    
  1006d6:	90                   	nop    
  1006d7:	90                   	nop    
  1006d8:	90                   	nop    
  1006d9:	90                   	nop    
  1006da:	90                   	nop    
  1006db:	90                   	nop    
  1006dc:	90                   	nop    
  1006dd:	90                   	nop    
  1006de:	90                   	nop    
  1006df:	90                   	nop    

001006e0 <handle_full>:
  1006e0:	55                   	push   %ebp
  1006e1:	89 e5                	mov    %esp,%ebp
  1006e3:	83 ec 48             	sub    $0x48,%esp
  1006e6:	c7 04 24 30 01 00 00 	movl   $0x130,(%esp)
  1006ed:	89 75 fc             	mov    %esi,0xfffffffc(%ebp)
  1006f0:	89 5d f8             	mov    %ebx,0xfffffff8(%ebp)
  1006f3:	e8 78 10 00 00       	call   101770 <malloc>
  1006f8:	85 c0                	test   %eax,%eax
  1006fa:	89 c6                	mov    %eax,%esi
  1006fc:	74 49                	je     100747 <handle_full+0x67>
  1006fe:	c7 04 24 c6 71 10 00 	movl   $0x1071c6,(%esp)
  100705:	8d 5d d8             	lea    0xffffffd8(%ebp),%ebx
  100708:	e8 63 04 00 00       	call   100b70 <scr_write>
  10070d:	89 1c 24             	mov    %ebx,(%esp)
  100710:	e8 eb 40 00 00       	call   104800 <pthread_attr_init>
  100715:	c7 45 d4 42 00 00 00 	movl   $0x42,0xffffffd4(%ebp)
  10071c:	8d 45 d4             	lea    0xffffffd4(%ebp),%eax
  10071f:	89 44 24 04          	mov    %eax,0x4(%esp)
  100723:	89 1c 24             	mov    %ebx,(%esp)
  100726:	e8 75 41 00 00       	call   1048a0 <pthread_attr_setschedparam>
  10072b:	89 74 24 0c          	mov    %esi,0xc(%esp)
  10072f:	b8 b0 06 10 00       	mov    $0x1006b0,%eax
  100734:	89 44 24 08          	mov    %eax,0x8(%esp)
  100738:	8d 46 04             	lea    0x4(%esi),%eax
  10073b:	89 5c 24 04          	mov    %ebx,0x4(%esp)
  10073f:	89 04 24             	mov    %eax,(%esp)
  100742:	e8 b9 45 00 00       	call   104d00 <pthread_create>
  100747:	8b 5d f8             	mov    0xfffffff8(%ebp),%ebx
  10074a:	8b 75 fc             	mov    0xfffffffc(%ebp),%esi
  10074d:	89 ec                	mov    %ebp,%esp
  10074f:	5d                   	pop    %ebp
  100750:	c3                   	ret    
  100751:	eb 0d                	jmp    100760 <main>
  100753:	90                   	nop    
  100754:	90                   	nop    
  100755:	90                   	nop    
  100756:	90                   	nop    
  100757:	90                   	nop    
  100758:	90                   	nop    
  100759:	90                   	nop    
  10075a:	90                   	nop    
  10075b:	90                   	nop    
  10075c:	90                   	nop    
  10075d:	90                   	nop    
  10075e:	90                   	nop    
  10075f:	90                   	nop    

00100760 <main>:
  100760:	55                   	push   %ebp
  100761:	31 c0                	xor    %eax,%eax
  100763:	89 e5                	mov    %esp,%ebp
  100765:	83 ec 18             	sub    $0x18,%esp
  100768:	83 e4 f0             	and    $0xfffffff0,%esp
  10076b:	89 5d fc             	mov    %ebx,0xfffffffc(%ebp)
  10076e:	bb 03 00 00 00       	mov    $0x3,%ebx
  100773:	a3 24 90 10 00       	mov    %eax,0x109024
  100778:	b8 26 00 00 00       	mov    $0x26,%eax
  10077d:	cd 30                	int    $0x30
  10077f:	a1 00 80 10 00       	mov    0x108000,%eax
  100784:	69 c0 50 0c 00 00    	imul   $0xc50,%eax,%eax
  10078a:	89 04 24             	mov    %eax,(%esp)
  10078d:	e8 de 0f 00 00       	call   101770 <malloc>
  100792:	a3 20 90 10 00       	mov    %eax,0x109020
  100797:	85 c0                	test   %eax,%eax
  100799:	0f 84 8a 00 00 00    	je     100829 <main+0xc9>
  10079f:	e8 fc 00 00 00       	call   1008a0 <console_init>
  1007a4:	40                   	inc    %eax
  1007a5:	ba 01 00 00 00       	mov    $0x1,%edx
  1007aa:	74 5d                	je     100809 <main+0xa9>
  1007ac:	e8 6f 05 00 00       	call   100d20 <keyb_init>
  1007b1:	c7 04 24 e0 72 10 00 	movl   $0x1072e0,(%esp)
  1007b8:	e8 b3 03 00 00       	call   100b70 <scr_write>
  1007bd:	c7 04 24 00 90 10 00 	movl   $0x109000,(%esp)
  1007c4:	b8 f0 05 10 00       	mov    $0x1005f0,%eax
  1007c9:	31 d2                	xor    %edx,%edx
  1007cb:	89 44 24 08          	mov    %eax,0x8(%esp)
  1007cf:	b9 e0 06 10 00       	mov    $0x1006e0,%ecx
  1007d4:	b8 05 00 00 00       	mov    $0x5,%eax
  1007d9:	89 0d 04 90 10 00    	mov    %ecx,0x109004
  1007df:	89 15 08 90 10 00    	mov    %edx,0x109008
  1007e5:	89 44 24 04          	mov    %eax,0x4(%esp)
  1007e9:	e8 e2 4c 00 00       	call   1054d0 <pool_init>
  1007ee:	85 c0                	test   %eax,%eax
  1007f0:	78 20                	js     100812 <main+0xb2>
  1007f2:	c7 04 24 00 90 10 00 	movl   $0x109000,(%esp)
  1007f9:	b8 1b 00 00 00       	mov    $0x1b,%eax
  1007fe:	89 44 24 04          	mov    %eax,0x4(%esp)
  100802:	e8 a9 4d 00 00       	call   1055b0 <msg_loop>
  100807:	31 d2                	xor    %edx,%edx
  100809:	8b 5d fc             	mov    0xfffffffc(%ebp),%ebx
  10080c:	89 d0                	mov    %edx,%eax
  10080e:	89 ec                	mov    %ebp,%esp
  100810:	5d                   	pop    %ebp
  100811:	c3                   	ret    
  100812:	c7 04 24 d8 71 10 00 	movl   $0x1071d8,(%esp)
  100819:	b8 01 00 00 00       	mov    $0x1,%eax
  10081e:	89 44 24 04          	mov    %eax,0x4(%esp)
  100822:	e8 79 fd ff ff       	call   1005a0 <con_panic>
  100827:	eb c9                	jmp    1007f2 <main+0x92>
  100829:	c7 04 24 e4 71 10 00 	movl   $0x1071e4,(%esp)
  100830:	bb 31 00 00 00       	mov    $0x31,%ebx
  100835:	89 5c 24 04          	mov    %ebx,0x4(%esp)
  100839:	e8 62 fd ff ff       	call   1005a0 <con_panic>
  10083e:	e9 5c ff ff ff       	jmp    10079f <main+0x3f>
	...

00100850 <put_ascii>:
  100850:	55                   	push   %ebp
  100851:	b9 01 00 00 00       	mov    $0x1,%ecx
  100856:	89 e5                	mov    %esp,%ebp
  100858:	83 ec 18             	sub    $0x18,%esp
  10085b:	8b 15 24 90 10 00    	mov    0x109024,%edx
  100861:	0f b6 45 08          	movzbl 0x8(%ebp),%eax
  100865:	89 5d fc             	mov    %ebx,0xfffffffc(%ebp)
  100868:	69 d2 50 0c 00 00    	imul   $0xc50,%edx,%edx
  10086e:	8b 1d 20 90 10 00    	mov    0x109020,%ebx
  100874:	89 4c 24 08          	mov    %ecx,0x8(%esp)
  100878:	0f b6 80 5f 80 10 00 	movzbl 0x10805f(%eax),%eax
  10087f:	01 da                	add    %ebx,%edx
  100881:	81 c2 68 04 00 00    	add    $0x468,%edx
  100887:	89 54 24 04          	mov    %edx,0x4(%esp)
  10088b:	0f b6 d8             	movzbl %al,%ebx
  10088e:	89 1c 24             	mov    %ebx,(%esp)
  100891:	e8 ea 01 00 00       	call   100a80 <put_char>
  100896:	89 d8                	mov    %ebx,%eax
  100898:	8b 5d fc             	mov    0xfffffffc(%ebp),%ebx
  10089b:	89 ec                	mov    %ebp,%esp
  10089d:	5d                   	pop    %ebp
  10089e:	c3                   	ret    
	...

001008a0 <console_init>:
  1008a0:	55                   	push   %ebp
  1008a1:	b8 08 00 00 00       	mov    $0x8,%eax
  1008a6:	89 e5                	mov    %esp,%ebp
  1008a8:	83 ec 28             	sub    $0x28,%esp
  1008ab:	b9 d0 07 00 00       	mov    $0x7d0,%ecx
  1008b0:	8b 15 20 90 10 00    	mov    0x109020,%edx
  1008b6:	89 5d fc             	mov    %ebx,0xfffffffc(%ebp)
  1008b9:	8b 1d 24 90 10 00    	mov    0x109024,%ebx
  1008bf:	69 db 50 0c 00 00    	imul   $0xc50,%ebx,%ebx
  1008c5:	01 d3                	add    %edx,%ebx
  1008c7:	89 83 6c 04 00 00    	mov    %eax,0x46c(%ebx)
  1008cd:	b8 08 00 00 00       	mov    $0x8,%eax
  1008d2:	89 83 68 04 00 00    	mov    %eax,0x468(%ebx)
  1008d8:	31 c0                	xor    %eax,%eax
  1008da:	89 44 24 14          	mov    %eax,0x14(%esp)
  1008de:	b8 ff ff ff ff       	mov    $0xffffffff,%eax
  1008e3:	89 44 24 10          	mov    %eax,0x10(%esp)
  1008e7:	b8 18 00 00 00       	mov    $0x18,%eax
  1008ec:	89 44 24 0c          	mov    %eax,0xc(%esp)
  1008f0:	b8 03 00 00 00       	mov    $0x3,%eax
  1008f5:	89 4c 24 04          	mov    %ecx,0x4(%esp)
  1008f9:	89 44 24 08          	mov    %eax,0x8(%esp)
  1008fd:	c7 04 24 00 80 0b 00 	movl   $0xb8000,(%esp)
  100904:	e8 67 2f 00 00       	call   103870 <mmap>
  100909:	a3 40 90 10 00       	mov    %eax,0x109040
  10090e:	ba 50 00 00 00       	mov    $0x50,%edx
  100913:	85 c0                	test   %eax,%eax
  100915:	89 93 70 04 00 00    	mov    %edx,0x470(%ebx)
  10091b:	b9 19 00 00 00       	mov    $0x19,%ecx
  100920:	ba 14 00 00 00       	mov    $0x14,%edx
  100925:	89 8b 74 04 00 00    	mov    %ecx,0x474(%ebx)
  10092b:	89 93 78 04 00 00    	mov    %edx,0x478(%ebx)
  100931:	8b 5d fc             	mov    0xfffffffc(%ebp),%ebx
  100934:	0f 95 c0             	setne  %al
  100937:	89 ec                	mov    %ebp,%esp
  100939:	5d                   	pop    %ebp
  10093a:	0f b6 c0             	movzbl %al,%eax
  10093d:	48                   	dec    %eax
  10093e:	c3                   	ret    
  10093f:	90                   	nop    

00100940 <scroll>:
  100940:	55                   	push   %ebp
  100941:	89 e5                	mov    %esp,%ebp
  100943:	57                   	push   %edi
  100944:	56                   	push   %esi
  100945:	53                   	push   %ebx
  100946:	83 ec 18             	sub    $0x18,%esp
  100949:	8b 55 08             	mov    0x8(%ebp),%edx
  10094c:	c7 45 f0 00 00 00 00 	movl   $0x0,0xfffffff0(%ebp)
  100953:	8b 0d 40 90 10 00    	mov    0x109040,%ecx
  100959:	8b 42 08             	mov    0x8(%edx),%eax
  10095c:	89 4d e0             	mov    %ecx,0xffffffe0(%ebp)
  10095f:	89 ca                	mov    %ecx,%edx
  100961:	89 cb                	mov    %ecx,%ebx
  100963:	01 c0                	add    %eax,%eax
  100965:	01 c2                	add    %eax,%edx
  100967:	89 45 e4             	mov    %eax,0xffffffe4(%ebp)
  10096a:	89 45 ec             	mov    %eax,0xffffffec(%ebp)
  10096d:	31 c0                	xor    %eax,%eax
  10096f:	89 55 e8             	mov    %edx,0xffffffe8(%ebp)
  100972:	fc                   	cld    
  100973:	83 7d e4 0b          	cmpl   $0xb,0xffffffe4(%ebp)
  100977:	76 23                	jbe    10099c <scroll+0x5c>
  100979:	8b 75 e4             	mov    0xffffffe4(%ebp),%esi
  10097c:	f7 db                	neg    %ebx
  10097e:	89 cf                	mov    %ecx,%edi
  100980:	83 e3 03             	and    $0x3,%ebx
  100983:	89 d9                	mov    %ebx,%ecx
  100985:	29 de                	sub    %ebx,%esi
  100987:	89 75 ec             	mov    %esi,0xffffffec(%ebp)
  10098a:	f3 aa                	repz stos %al,%es:(%edi)
  10098c:	8b 75 ec             	mov    0xffffffec(%ebp),%esi
  10098f:	c1 ee 02             	shr    $0x2,%esi
  100992:	89 f1                	mov    %esi,%ecx
  100994:	f3 ab                	repz stos %eax,%es:(%edi)
  100996:	83 65 ec 03          	andl   $0x3,0xffffffec(%ebp)
  10099a:	89 fb                	mov    %edi,%ebx
  10099c:	89 df                	mov    %ebx,%edi
  10099e:	8b 4d ec             	mov    0xffffffec(%ebp),%ecx
  1009a1:	f3 aa                	repz stos %al,%es:(%edi)
  1009a3:	8b 4d 08             	mov    0x8(%ebp),%ecx
  1009a6:	8b 41 0c             	mov    0xc(%ecx),%eax
  1009a9:	39 45 f0             	cmp    %eax,0xfffffff0(%ebp)
  1009ac:	7d 57                	jge    100a05 <scroll+0xc5>
  1009ae:	8b 5d e4             	mov    0xffffffe4(%ebp),%ebx
  1009b1:	c1 eb 02             	shr    $0x2,%ebx
  1009b4:	8d b6 00 00 00 00    	lea    0x0(%esi),%esi
  1009ba:	8d bf 00 00 00 00    	lea    0x0(%edi),%edi
  1009c0:	39 55 e0             	cmp    %edx,0xffffffe0(%ebp)
  1009c3:	0f 83 8f 00 00 00    	jae    100a58 <scroll+0x118>
  1009c9:	89 d9                	mov    %ebx,%ecx
  1009cb:	8b 7d e0             	mov    0xffffffe0(%ebp),%edi
  1009ce:	89 d6                	mov    %edx,%esi
  1009d0:	8b 45 e4             	mov    0xffffffe4(%ebp),%eax
  1009d3:	f3 a5                	repz movsl %ds:(%esi),%es:(%edi)
  1009d5:	a8 02                	test   $0x2,%al
  1009d7:	74 02                	je     1009db <scroll+0x9b>
  1009d9:	66 a5                	movsw  %ds:(%esi),%es:(%edi)
  1009db:	a8 01                	test   $0x1,%al
  1009dd:	74 01                	je     1009e0 <scroll+0xa0>
  1009df:	a4                   	movsb  %ds:(%esi),%es:(%edi)
  1009e0:	8b 4d e4             	mov    0xffffffe4(%ebp),%ecx
  1009e3:	8d 04 11             	lea    (%ecx,%edx,1),%eax
  1009e6:	ff 45 f0             	incl   0xfffffff0(%ebp)
  1009e9:	89 c2                	mov    %eax,%edx
  1009eb:	8b 7d 08             	mov    0x8(%ebp),%edi
  1009ee:	8b 75 e8             	mov    0xffffffe8(%ebp),%esi
  1009f1:	8b 4d e4             	mov    0xffffffe4(%ebp),%ecx
  1009f4:	8b 47 0c             	mov    0xc(%edi),%eax
  1009f7:	39 45 f0             	cmp    %eax,0xfffffff0(%ebp)
  1009fa:	8d 0c 31             	lea    (%ecx,%esi,1),%ecx
  1009fd:	89 75 e0             	mov    %esi,0xffffffe0(%ebp)
  100a00:	89 4d e8             	mov    %ecx,0xffffffe8(%ebp)
  100a03:	7c bb                	jl     1009c0 <scroll+0x80>
  100a05:	8b 75 08             	mov    0x8(%ebp),%esi
  100a08:	48                   	dec    %eax
  100a09:	8b 15 40 90 10 00    	mov    0x109040,%edx
  100a0f:	8b 5d e4             	mov    0xffffffe4(%ebp),%ebx
  100a12:	8b 4e 08             	mov    0x8(%esi),%ecx
  100a15:	0f af c1             	imul   %ecx,%eax
  100a18:	8d 3c 42             	lea    (%edx,%eax,2),%edi
  100a1b:	31 c0                	xor    %eax,%eax
  100a1d:	fc                   	cld    
  100a1e:	83 fb 0b             	cmp    $0xb,%ebx
  100a21:	76 19                	jbe    100a3c <scroll+0xfc>
  100a23:	89 fa                	mov    %edi,%edx
  100a25:	f7 da                	neg    %edx
  100a27:	83 e2 03             	and    $0x3,%edx
  100a2a:	29 d3                	sub    %edx,%ebx
  100a2c:	89 d1                	mov    %edx,%ecx
  100a2e:	f3 aa                	repz stos %al,%es:(%edi)
  100a30:	89 da                	mov    %ebx,%edx
  100a32:	c1 ea 02             	shr    $0x2,%edx
  100a35:	89 d1                	mov    %edx,%ecx
  100a37:	f3 ab                	repz stos %eax,%es:(%edi)
  100a39:	83 e3 03             	and    $0x3,%ebx
  100a3c:	89 d9                	mov    %ebx,%ecx
  100a3e:	f3 aa                	repz stos %al,%es:(%edi)
  100a40:	8b 7d 08             	mov    0x8(%ebp),%edi
  100a43:	8b 47 0c             	mov    0xc(%edi),%eax
  100a46:	c7 07 00 00 00 00    	movl   $0x0,(%edi)
  100a4c:	48                   	dec    %eax
  100a4d:	89 47 04             	mov    %eax,0x4(%edi)
  100a50:	83 c4 18             	add    $0x18,%esp
  100a53:	5b                   	pop    %ebx
  100a54:	5e                   	pop    %esi
  100a55:	5f                   	pop    %edi
  100a56:	5d                   	pop    %ebp
  100a57:	c3                   	ret    
  100a58:	8b 75 e4             	mov    0xffffffe4(%ebp),%esi
  100a5b:	8b 7d e8             	mov    0xffffffe8(%ebp),%edi
  100a5e:	8b 4d e4             	mov    0xffffffe4(%ebp),%ecx
  100a61:	8d 04 16             	lea    (%esi,%edx,1),%eax
  100a64:	8d 70 ff             	lea    0xffffffff(%eax),%esi
  100a67:	4f                   	dec    %edi
  100a68:	fd                   	std    
  100a69:	f3 a4                	repz movsb %ds:(%esi),%es:(%edi)
  100a6b:	fc                   	cld    
  100a6c:	e9 75 ff ff ff       	jmp    1009e6 <scroll+0xa6>
  100a71:	eb 0d                	jmp    100a80 <put_char>
  100a73:	90                   	nop    
  100a74:	90                   	nop    
  100a75:	90                   	nop    
  100a76:	90                   	nop    
  100a77:	90                   	nop    
  100a78:	90                   	nop    
  100a79:	90                   	nop    
  100a7a:	90                   	nop    
  100a7b:	90                   	nop    
  100a7c:	90                   	nop    
  100a7d:	90                   	nop    
  100a7e:	90                   	nop    
  100a7f:	90                   	nop    

00100a80 <put_char>:
  100a80:	55                   	push   %ebp
  100a81:	89 e5                	mov    %esp,%ebp
  100a83:	57                   	push   %edi
  100a84:	56                   	push   %esi
  100a85:	53                   	push   %ebx
  100a86:	83 ec 0c             	sub    $0xc,%esp
  100a89:	8b 5d 0c             	mov    0xc(%ebp),%ebx
  100a8c:	0f b6 45 08          	movzbl 0x8(%ebp),%eax
  100a90:	3c 0d                	cmp    $0xd,%al
  100a92:	88 45 f3             	mov    %al,0xfffffff3(%ebp)
  100a95:	0f 84 b9 00 00 00    	je     100b54 <put_char+0xd4>
  100a9b:	80 7d f3 0a          	cmpb   $0xa,0xfffffff3(%ebp)
  100a9f:	0f 84 af 00 00 00    	je     100b54 <put_char+0xd4>
  100aa5:	8b 43 08             	mov    0x8(%ebx),%eax
  100aa8:	39 03                	cmp    %eax,(%ebx)
  100aaa:	7c 09                	jl     100ab5 <put_char+0x35>
  100aac:	ff 43 04             	incl   0x4(%ebx)
  100aaf:	c7 03 00 00 00 00    	movl   $0x0,(%ebx)
  100ab5:	8b 43 0c             	mov    0xc(%ebx),%eax
  100ab8:	39 43 04             	cmp    %eax,0x4(%ebx)
  100abb:	0f 8d 86 00 00 00    	jge    100b47 <put_char+0xc7>
  100ac1:	8b 75 10             	mov    0x10(%ebp),%esi
  100ac4:	85 f6                	test   %esi,%esi
  100ac6:	74 33                	je     100afb <put_char+0x7b>
  100ac8:	8b 53 04             	mov    0x4(%ebx),%edx
  100acb:	b9 d4 03 00 00       	mov    $0x3d4,%ecx
  100ad0:	8b 03                	mov    (%ebx),%eax
  100ad2:	8d 14 92             	lea    (%edx,%edx,4),%edx
  100ad5:	c1 e2 04             	shl    $0x4,%edx
  100ad8:	40                   	inc    %eax
  100ad9:	8d 04 10             	lea    (%eax,%edx,1),%eax
  100adc:	0f b7 f0             	movzwl %ax,%esi
  100adf:	89 ca                	mov    %ecx,%edx
  100ae1:	b0 0e                	mov    $0xe,%al
  100ae3:	ee                   	out    %al,(%dx)
  100ae4:	bf d5 03 00 00       	mov    $0x3d5,%edi
  100ae9:	89 f0                	mov    %esi,%eax
  100aeb:	c1 e8 08             	shr    $0x8,%eax
  100aee:	89 fa                	mov    %edi,%edx
  100af0:	ee                   	out    %al,(%dx)
  100af1:	b0 0f                	mov    $0xf,%al
  100af3:	89 ca                	mov    %ecx,%edx
  100af5:	ee                   	out    %al,(%dx)
  100af6:	89 f0                	mov    %esi,%eax
  100af8:	89 fa                	mov    %edi,%edx
  100afa:	ee                   	out    %al,(%dx)
  100afb:	0f b6 45 f3          	movzbl 0xfffffff3(%ebp),%eax
  100aff:	f6 80 80 81 10 00 01 	testb  $0x1,0x108180(%eax)
  100b06:	75 37                	jne    100b3f <put_char+0xbf>
  100b08:	8b 4b 04             	mov    0x4(%ebx),%ecx
  100b0b:	8b 43 08             	mov    0x8(%ebx),%eax
  100b0e:	8b 13                	mov    (%ebx),%edx
  100b10:	0f af c1             	imul   %ecx,%eax
  100b13:	0f b6 4d f3          	movzbl 0xfffffff3(%ebp),%ecx
  100b17:	01 d0                	add    %edx,%eax
  100b19:	8b 15 40 90 10 00    	mov    0x109040,%edx
  100b1f:	88 0c 42             	mov    %cl,(%edx,%eax,2)
  100b22:	8b 43 08             	mov    0x8(%ebx),%eax
  100b25:	8b 7b 04             	mov    0x4(%ebx),%edi
  100b28:	0f b6 4b 10          	movzbl 0x10(%ebx),%ecx
  100b2c:	8b 33                	mov    (%ebx),%esi
  100b2e:	0f af c7             	imul   %edi,%eax
  100b31:	8b 15 40 90 10 00    	mov    0x109040,%edx
  100b37:	01 f0                	add    %esi,%eax
  100b39:	88 4c 42 01          	mov    %cl,0x1(%edx,%eax,2)
  100b3d:	ff 03                	incl   (%ebx)
  100b3f:	83 c4 0c             	add    $0xc,%esp
  100b42:	5b                   	pop    %ebx
  100b43:	5e                   	pop    %esi
  100b44:	5f                   	pop    %edi
  100b45:	5d                   	pop    %ebp
  100b46:	c3                   	ret    
  100b47:	89 1c 24             	mov    %ebx,(%esp)
  100b4a:	e8 f1 fd ff ff       	call   100940 <scroll>
  100b4f:	e9 6d ff ff ff       	jmp    100ac1 <put_char+0x41>
  100b54:	ff 43 04             	incl   0x4(%ebx)
  100b57:	c7 03 00 00 00 00    	movl   $0x0,(%ebx)
  100b5d:	e9 43 ff ff ff       	jmp    100aa5 <put_char+0x25>
  100b62:	8d b4 26 00 00 00 00 	lea    0x0(%esi),%esi
  100b69:	8d bc 27 00 00 00 00 	lea    0x0(%edi),%edi

00100b70 <scr_write>:
  100b70:	55                   	push   %ebp
  100b71:	89 e5                	mov    %esp,%ebp
  100b73:	56                   	push   %esi
  100b74:	53                   	push   %ebx
  100b75:	83 ec 10             	sub    $0x10,%esp
  100b78:	a1 24 90 10 00       	mov    0x109024,%eax
  100b7d:	8b 0d 20 90 10 00    	mov    0x109020,%ecx
  100b83:	8b 5d 08             	mov    0x8(%ebp),%ebx
  100b86:	69 c0 50 0c 00 00    	imul   $0xc50,%eax,%eax
  100b8c:	01 c8                	add    %ecx,%eax
  100b8e:	8d b0 68 04 00 00    	lea    0x468(%eax),%esi
  100b94:	0f b6 03             	movzbl (%ebx),%eax
  100b97:	84 c0                	test   %al,%al
  100b99:	75 3a                	jne    100bd5 <scr_write+0x65>
  100b9b:	8b 56 04             	mov    0x4(%esi),%edx
  100b9e:	b9 d4 03 00 00       	mov    $0x3d4,%ecx
  100ba3:	8b 06                	mov    (%esi),%eax
  100ba5:	8d 14 92             	lea    (%edx,%edx,4),%edx
  100ba8:	c1 e2 04             	shl    $0x4,%edx
  100bab:	40                   	inc    %eax
  100bac:	8d 04 10             	lea    (%eax,%edx,1),%eax
  100baf:	0f b7 d8             	movzwl %ax,%ebx
  100bb2:	89 ca                	mov    %ecx,%edx
  100bb4:	b0 0e                	mov    $0xe,%al
  100bb6:	ee                   	out    %al,(%dx)
  100bb7:	be d5 03 00 00       	mov    $0x3d5,%esi
  100bbc:	89 d8                	mov    %ebx,%eax
  100bbe:	c1 e8 08             	shr    $0x8,%eax
  100bc1:	89 f2                	mov    %esi,%edx
  100bc3:	ee                   	out    %al,(%dx)
  100bc4:	b0 0f                	mov    $0xf,%al
  100bc6:	89 ca                	mov    %ecx,%edx
  100bc8:	ee                   	out    %al,(%dx)
  100bc9:	88 d8                	mov    %bl,%al
  100bcb:	89 f2                	mov    %esi,%edx
  100bcd:	ee                   	out    %al,(%dx)
  100bce:	83 c4 10             	add    $0x10,%esp
  100bd1:	5b                   	pop    %ebx
  100bd2:	5e                   	pop    %esi
  100bd3:	5d                   	pop    %ebp
  100bd4:	c3                   	ret    
  100bd5:	89 74 24 04          	mov    %esi,0x4(%esp)
  100bd9:	31 d2                	xor    %edx,%edx
  100bdb:	0f b6 c0             	movzbl %al,%eax
  100bde:	89 04 24             	mov    %eax,(%esp)
  100be1:	43                   	inc    %ebx
  100be2:	89 54 24 08          	mov    %edx,0x8(%esp)
  100be6:	e8 95 fe ff ff       	call   100a80 <put_char>
  100beb:	0f b6 03             	movzbl (%ebx),%eax
  100bee:	84 c0                	test   %al,%al
  100bf0:	75 e3                	jne    100bd5 <scr_write+0x65>
  100bf2:	eb a7                	jmp    100b9b <scr_write+0x2b>
  100bf4:	8d b6 00 00 00 00    	lea    0x0(%esi),%esi
  100bfa:	8d bf 00 00 00 00    	lea    0x0(%edi),%edi

00100c00 <con_printf>:
  100c00:	55                   	push   %ebp
  100c01:	89 e5                	mov    %esp,%ebp
  100c03:	8d 45 0c             	lea    0xc(%ebp),%eax
  100c06:	83 ec 18             	sub    $0x18,%esp
  100c09:	89 44 24 08          	mov    %eax,0x8(%esp)
  100c0d:	8b 45 08             	mov    0x8(%ebp),%eax
  100c10:	89 5d fc             	mov    %ebx,0xfffffffc(%ebp)
  100c13:	c7 04 24 60 90 10 00 	movl   $0x109060,(%esp)
  100c1a:	89 44 24 04          	mov    %eax,0x4(%esp)
  100c1e:	e8 2d 3a 00 00       	call   104650 <vsprintf>
  100c23:	c7 04 24 60 90 10 00 	movl   $0x109060,(%esp)
  100c2a:	89 c3                	mov    %eax,%ebx
  100c2c:	e8 3f ff ff ff       	call   100b70 <scr_write>
  100c31:	89 d8                	mov    %ebx,%eax
  100c33:	8b 5d fc             	mov    0xfffffffc(%ebp),%ebx
  100c36:	89 ec                	mov    %ebp,%esp
  100c38:	5d                   	pop    %ebp
  100c39:	c3                   	ret    
  100c3a:	00 00                	add    %al,(%eax)
  100c3c:	00 00                	add    %al,(%eax)
	...

00100c40 <kb_intr>:
  100c40:	55                   	push   %ebp
  100c41:	89 e5                	mov    %esp,%ebp
  100c43:	53                   	push   %ebx
  100c44:	83 ec 14             	sub    $0x14,%esp
  100c47:	a1 24 90 10 00       	mov    0x109024,%eax
  100c4c:	8b 15 20 90 10 00    	mov    0x109020,%edx
  100c52:	69 c0 50 0c 00 00    	imul   $0xc50,%eax,%eax
  100c58:	01 d0                	add    %edx,%eax
  100c5a:	8d 58 38             	lea    0x38(%eax),%ebx
  100c5d:	ba 61 00 00 00       	mov    $0x61,%edx
  100c62:	ec                   	in     (%dx),%al
  100c63:	0c 80                	or     $0x80,%al
  100c65:	ee                   	out    %al,(%dx)
  100c66:	ba 60 00 00 00       	mov    $0x60,%edx
  100c6b:	ec                   	in     (%dx),%al
  100c6c:	0f b6 c0             	movzbl %al,%eax
  100c6f:	88 c2                	mov    %al,%dl
  100c71:	88 45 fb             	mov    %al,0xfffffffb(%ebp)
  100c74:	0f b6 c0             	movzbl %al,%eax
  100c77:	3d fa 00 00 00       	cmp    $0xfa,%eax
  100c7c:	74 72                	je     100cf0 <kb_intr+0xb0>
  100c7e:	3d fa 00 00 00       	cmp    $0xfa,%eax
  100c83:	7f 72                	jg     100cf7 <kb_intr+0xb7>
  100c85:	85 c0                	test   %eax,%eax
  100c87:	74 67                	je     100cf0 <kb_intr+0xb0>
  100c89:	3d ee 00 00 00       	cmp    $0xee,%eax
  100c8e:	74 60                	je     100cf0 <kb_intr+0xb0>
  100c90:	31 c0                	xor    %eax,%eax
  100c92:	8d b4 26 00 00 00 00 	lea    0x0(%esi),%esi
  100c99:	8d bc 27 00 00 00 00 	lea    0x0(%edi),%edi
  100ca0:	40                   	inc    %eax
  100ca1:	74 2d                	je     100cd0 <kb_intr+0x90>
  100ca3:	89 1c 24             	mov    %ebx,(%esp)
  100ca6:	8d 45 fb             	lea    0xfffffffb(%ebp),%eax
  100ca9:	89 44 24 04          	mov    %eax,0x4(%esp)
  100cad:	e8 ce 00 00 00       	call   100d80 <check_extended>
  100cb2:	40                   	inc    %eax
  100cb3:	74 17                	je     100ccc <kb_intr+0x8c>
  100cb5:	0f b6 45 fb          	movzbl 0xfffffffb(%ebp),%eax
  100cb9:	89 04 24             	mov    %eax,(%esp)
  100cbc:	e8 8f fb ff ff       	call   100850 <put_ascii>
  100cc1:	0f b6 c0             	movzbl %al,%eax
  100cc4:	89 04 24             	mov    %eax,(%esp)
  100cc7:	e8 34 f3 ff ff       	call   100000 <_text_start>
  100ccc:	0f b6 55 fb          	movzbl 0xfffffffb(%ebp),%edx
  100cd0:	88 93 00 02 00 00    	mov    %dl,0x200(%ebx)
  100cd6:	ba 61 00 00 00       	mov    $0x61,%edx
  100cdb:	ec                   	in     (%dx),%al
  100cdc:	24 7f                	and    $0x7f,%al
  100cde:	ee                   	out    %al,(%dx)
  100cdf:	b0 20                	mov    $0x20,%al
  100ce1:	ba 20 00 00 00       	mov    $0x20,%edx
  100ce6:	ee                   	out    %al,(%dx)
  100ce7:	83 c4 14             	add    $0x14,%esp
  100cea:	5b                   	pop    %ebx
  100ceb:	5d                   	pop    %ebp
  100cec:	c3                   	ret    
  100ced:	8d 76 00             	lea    0x0(%esi),%esi
  100cf0:	b8 ff ff ff ff       	mov    $0xffffffff,%eax
  100cf5:	eb a9                	jmp    100ca0 <kb_intr+0x60>
  100cf7:	3d fc 00 00 00       	cmp    $0xfc,%eax
  100cfc:	74 f2                	je     100cf0 <kb_intr+0xb0>
  100cfe:	3d fc 00 00 00       	cmp    $0xfc,%eax
  100d03:	7c 8b                	jl     100c90 <kb_intr+0x50>
  100d05:	2d fe 00 00 00       	sub    $0xfe,%eax
  100d0a:	83 f8 01             	cmp    $0x1,%eax
  100d0d:	77 81                	ja     100c90 <kb_intr+0x50>
  100d0f:	eb df                	jmp    100cf0 <kb_intr+0xb0>
  100d11:	eb 0d                	jmp    100d20 <keyb_init>
  100d13:	90                   	nop    
  100d14:	90                   	nop    
  100d15:	90                   	nop    
  100d16:	90                   	nop    
  100d17:	90                   	nop    
  100d18:	90                   	nop    
  100d19:	90                   	nop    
  100d1a:	90                   	nop    
  100d1b:	90                   	nop    
  100d1c:	90                   	nop    
  100d1d:	90                   	nop    
  100d1e:	90                   	nop    
  100d1f:	90                   	nop    

00100d20 <keyb_init>:
  100d20:	55                   	push   %ebp
  100d21:	89 e5                	mov    %esp,%ebp
  100d23:	83 ec 18             	sub    $0x18,%esp
  100d26:	89 5d fc             	mov    %ebx,0xfffffffc(%ebp)
  100d29:	a1 20 90 10 00       	mov    0x109020,%eax
  100d2e:	8b 1d 24 90 10 00    	mov    0x109024,%ebx
  100d34:	c7 04 24 01 00 00 00 	movl   $0x1,(%esp)
  100d3b:	69 db 50 0c 00 00    	imul   $0xc50,%ebx,%ebx
  100d41:	01 c3                	add    %eax,%ebx
  100d43:	b8 40 0c 10 00       	mov    $0x100c40,%eax
  100d48:	83 c3 38             	add    $0x38,%ebx
  100d4b:	89 44 24 04          	mov    %eax,0x4(%esp)
  100d4f:	e8 8c 04 00 00       	call   1011e0 <IRQ_request>
  100d54:	c6 83 00 02 00 00 00 	movb   $0x0,0x200(%ebx)
  100d5b:	31 c0                	xor    %eax,%eax
  100d5d:	31 c9                	xor    %ecx,%ecx
  100d5f:	89 83 04 02 00 00    	mov    %eax,0x204(%ebx)
  100d65:	31 c0                	xor    %eax,%eax
  100d67:	89 83 08 02 00 00    	mov    %eax,0x208(%ebx)
  100d6d:	31 c0                	xor    %eax,%eax
  100d6f:	89 8b 0c 02 00 00    	mov    %ecx,0x20c(%ebx)
  100d75:	8b 5d fc             	mov    0xfffffffc(%ebp),%ebx
  100d78:	89 ec                	mov    %ebp,%esp
  100d7a:	5d                   	pop    %ebp
  100d7b:	c3                   	ret    
  100d7c:	8d 74 26 00          	lea    0x0(%esi),%esi

00100d80 <check_extended>:
  100d80:	55                   	push   %ebp
  100d81:	b8 ff ff ff ff       	mov    $0xffffffff,%eax
  100d86:	89 e5                	mov    %esp,%ebp
  100d88:	56                   	push   %esi
  100d89:	53                   	push   %ebx
  100d8a:	83 ec 04             	sub    $0x4,%esp
  100d8d:	8b 75 0c             	mov    0xc(%ebp),%esi
  100d90:	8b 5d 08             	mov    0x8(%ebp),%ebx
  100d93:	0f b6 16             	movzbl (%esi),%edx
  100d96:	80 fa e0             	cmp    $0xe0,%dl
  100d99:	0f 84 c3 00 00 00    	je     100e62 <check_extended+0xe2>
  100d9f:	0f b6 c2             	movzbl %dl,%eax
  100da2:	83 f8 45             	cmp    $0x45,%eax
  100da5:	0f 84 ac 01 00 00    	je     100f57 <check_extended+0x1d7>
  100dab:	83 f8 45             	cmp    $0x45,%eax
  100dae:	0f 8f 1c 01 00 00    	jg     100ed0 <check_extended+0x150>
  100db4:	83 f8 36             	cmp    $0x36,%eax
  100db7:	0f 84 aa 00 00 00    	je     100e67 <check_extended+0xe7>
  100dbd:	83 f8 36             	cmp    $0x36,%eax
  100dc0:	0f 8f af 00 00 00    	jg     100e75 <check_extended+0xf5>
  100dc6:	83 f8 2a             	cmp    $0x2a,%eax
  100dc9:	0f 84 98 00 00 00    	je     100e67 <check_extended+0xe7>
  100dcf:	90                   	nop    
  100dd0:	84 d2                	test   %dl,%dl
  100dd2:	b8 ff ff ff ff       	mov    $0xffffffff,%eax
  100dd7:	0f 88 85 00 00 00    	js     100e62 <check_extended+0xe2>
  100ddd:	8b 8b 08 02 00 00    	mov    0x208(%ebx),%ecx
  100de3:	f6 c1 06             	test   $0x6,%cl
  100de6:	74 33                	je     100e1b <check_extended+0x9b>
  100de8:	88 d0                	mov    %dl,%al
  100dea:	2c 02                	sub    $0x2,%al
  100dec:	3c 0b                	cmp    $0xb,%al
  100dee:	76 20                	jbe    100e10 <check_extended+0x90>
  100df0:	88 d0                	mov    %dl,%al
  100df2:	2c 10                	sub    $0x10,%al
  100df4:	3c 0b                	cmp    $0xb,%al
  100df6:	76 18                	jbe    100e10 <check_extended+0x90>
  100df8:	88 d0                	mov    %dl,%al
  100dfa:	2c 1e                	sub    $0x1e,%al
  100dfc:	3c 0b                	cmp    $0xb,%al
  100dfe:	76 10                	jbe    100e10 <check_extended+0x90>
  100e00:	88 d0                	mov    %dl,%al
  100e02:	2c 2c                	sub    $0x2c,%al
  100e04:	3c 09                	cmp    $0x9,%al
  100e06:	77 13                	ja     100e1b <check_extended+0x9b>
  100e08:	90                   	nop    
  100e09:	8d b4 26 00 00 00 00 	lea    0x0(%esi),%esi
  100e10:	80 c2 80             	add    $0x80,%dl
  100e13:	88 16                	mov    %dl,(%esi)
  100e15:	8b 8b 08 02 00 00    	mov    0x208(%ebx),%ecx
  100e1b:	f6 c1 08             	test   $0x8,%cl
  100e1e:	74 2b                	je     100e4b <check_extended+0xcb>
  100e20:	0f b6 16             	movzbl (%esi),%edx
  100e23:	88 d0                	mov    %dl,%al
  100e25:	2c 10                	sub    $0x10,%al
  100e27:	3c 09                	cmp    $0x9,%al
  100e29:	76 15                	jbe    100e40 <check_extended+0xc0>
  100e2b:	88 d0                	mov    %dl,%al
  100e2d:	2c 1e                	sub    $0x1e,%al
  100e2f:	3c 08                	cmp    $0x8,%al
  100e31:	76 0d                	jbe    100e40 <check_extended+0xc0>
  100e33:	88 d0                	mov    %dl,%al
  100e35:	2c 2c                	sub    $0x2c,%al
  100e37:	3c 06                	cmp    $0x6,%al
  100e39:	77 10                	ja     100e4b <check_extended+0xcb>
  100e3b:	90                   	nop    
  100e3c:	8d 74 26 00          	lea    0x0(%esi),%esi
  100e40:	80 c2 80             	add    $0x80,%dl
  100e43:	88 16                	mov    %dl,(%esi)
  100e45:	8b 8b 08 02 00 00    	mov    0x208(%ebx),%ecx
  100e4b:	f6 c1 10             	test   $0x10,%cl
  100e4e:	74 10                	je     100e60 <check_extended+0xe0>
  100e50:	0f b6 16             	movzbl (%esi),%edx
  100e53:	88 d0                	mov    %dl,%al
  100e55:	2c 47                	sub    $0x47,%al
  100e57:	3c 0c                	cmp    $0xc,%al
  100e59:	77 05                	ja     100e60 <check_extended+0xe0>
  100e5b:	80 c2 80             	add    $0x80,%dl
  100e5e:	88 16                	mov    %dl,(%esi)
  100e60:	31 c0                	xor    %eax,%eax
  100e62:	5a                   	pop    %edx
  100e63:	5b                   	pop    %ebx
  100e64:	5e                   	pop    %esi
  100e65:	5d                   	pop    %ebp
  100e66:	c3                   	ret    
  100e67:	83 8b 08 02 00 00 06 	orl    $0x6,0x208(%ebx)
  100e6e:	b8 ff ff ff ff       	mov    $0xffffffff,%eax
  100e73:	eb ed                	jmp    100e62 <check_extended+0xe2>
  100e75:	83 f8 3a             	cmp    $0x3a,%eax
  100e78:	0f 85 52 ff ff ff    	jne    100dd0 <check_extended+0x50>
  100e7e:	8b 83 08 02 00 00    	mov    0x208(%ebx),%eax
  100e84:	a8 08                	test   $0x8,%al
  100e86:	74 3b                	je     100ec3 <check_extended+0x143>
  100e88:	83 8b 0c 02 00 00 04 	orl    $0x4,0x20c(%ebx)
  100e8f:	83 e0 f7             	and    $0xfffffff7,%eax
  100e92:	89 83 08 02 00 00    	mov    %eax,0x208(%ebx)
  100e98:	0f b6 9b 0c 02 00 00 	movzbl 0x20c(%ebx),%ebx
  100e9f:	31 f6                	xor    %esi,%esi
  100ea1:	b9 64 00 00 00       	mov    $0x64,%ecx
  100ea6:	89 ca                	mov    %ecx,%edx
  100ea8:	ec                   	in     (%dx),%al
  100ea9:	a8 02                	test   $0x2,%al
  100eab:	74 09                	je     100eb6 <check_extended+0x136>
  100ead:	46                   	inc    %esi
  100eae:	81 fe 9f 86 01 00    	cmp    $0x1869f,%esi
  100eb4:	7e f0                	jle    100ea6 <check_extended+0x126>
  100eb6:	b0 ed                	mov    $0xed,%al
  100eb8:	ba 64 00 00 00       	mov    $0x64,%edx
  100ebd:	ee                   	out    %al,(%dx)
  100ebe:	88 d8                	mov    %bl,%al
  100ec0:	ee                   	out    %al,(%dx)
  100ec1:	eb ab                	jmp    100e6e <check_extended+0xee>
  100ec3:	83 a3 0c 02 00 00 fb 	andl   $0xfffffffb,0x20c(%ebx)
  100eca:	83 c8 08             	or     $0x8,%eax
  100ecd:	eb c3                	jmp    100e92 <check_extended+0x112>
  100ecf:	90                   	nop    
  100ed0:	3d aa 00 00 00       	cmp    $0xaa,%eax
  100ed5:	74 74                	je     100f4b <check_extended+0x1cb>
  100ed7:	3d aa 00 00 00       	cmp    $0xaa,%eax
  100edc:	7f 62                	jg     100f40 <check_extended+0x1c0>
  100ede:	83 f8 46             	cmp    $0x46,%eax
  100ee1:	0f 85 e9 fe ff ff    	jne    100dd0 <check_extended+0x50>
  100ee7:	0f b6 93 0c 02 00 00 	movzbl 0x20c(%ebx),%edx
  100eee:	31 f6                	xor    %esi,%esi
  100ef0:	b9 64 00 00 00       	mov    $0x64,%ecx
  100ef5:	88 55 f6             	mov    %dl,0xfffffff6(%ebp)
  100ef8:	89 ca                	mov    %ecx,%edx
  100efa:	ec                   	in     (%dx),%al
  100efb:	a8 02                	test   $0x2,%al
  100efd:	74 09                	je     100f08 <check_extended+0x188>
  100eff:	46                   	inc    %esi
  100f00:	81 fe 9f 86 01 00    	cmp    $0x1869f,%esi
  100f06:	7e f0                	jle    100ef8 <check_extended+0x178>
  100f08:	b0 ed                	mov    $0xed,%al
  100f0a:	ba 64 00 00 00       	mov    $0x64,%edx
  100f0f:	ee                   	out    %al,(%dx)
  100f10:	0f b6 45 f6          	movzbl 0xfffffff6(%ebp),%eax
  100f14:	ee                   	out    %al,(%dx)
  100f15:	8b 83 08 02 00 00    	mov    0x208(%ebx),%eax
  100f1b:	a8 20                	test   $0x20,%al
  100f1d:	74 15                	je     100f34 <check_extended+0x1b4>
  100f1f:	83 8b 0c 02 00 00 01 	orl    $0x1,0x20c(%ebx)
  100f26:	83 e0 df             	and    $0xffffffdf,%eax
  100f29:	89 83 08 02 00 00    	mov    %eax,0x208(%ebx)
  100f2f:	e9 3a ff ff ff       	jmp    100e6e <check_extended+0xee>
  100f34:	83 a3 0c 02 00 00 fe 	andl   $0xfffffffe,0x20c(%ebx)
  100f3b:	83 c8 20             	or     $0x20,%eax
  100f3e:	eb e9                	jmp    100f29 <check_extended+0x1a9>
  100f40:	3d b6 00 00 00       	cmp    $0xb6,%eax
  100f45:	0f 85 85 fe ff ff    	jne    100dd0 <check_extended+0x50>
  100f4b:	83 a3 08 02 00 00 f9 	andl   $0xfffffff9,0x208(%ebx)
  100f52:	e9 17 ff ff ff       	jmp    100e6e <check_extended+0xee>
  100f57:	0f b6 93 0c 02 00 00 	movzbl 0x20c(%ebx),%edx
  100f5e:	31 f6                	xor    %esi,%esi
  100f60:	b9 64 00 00 00       	mov    $0x64,%ecx
  100f65:	88 55 f7             	mov    %dl,0xfffffff7(%ebp)
  100f68:	90                   	nop    
  100f69:	8d b4 26 00 00 00 00 	lea    0x0(%esi),%esi
  100f70:	89 ca                	mov    %ecx,%edx
  100f72:	ec                   	in     (%dx),%al
  100f73:	a8 02                	test   $0x2,%al
  100f75:	74 09                	je     100f80 <check_extended+0x200>
  100f77:	46                   	inc    %esi
  100f78:	81 fe 9f 86 01 00    	cmp    $0x1869f,%esi
  100f7e:	7e f0                	jle    100f70 <check_extended+0x1f0>
  100f80:	b0 ed                	mov    $0xed,%al
  100f82:	ba 64 00 00 00       	mov    $0x64,%edx
  100f87:	ee                   	out    %al,(%dx)
  100f88:	0f b6 45 f7          	movzbl 0xfffffff7(%ebp),%eax
  100f8c:	ee                   	out    %al,(%dx)
  100f8d:	8b 83 08 02 00 00    	mov    0x208(%ebx),%eax
  100f93:	a8 10                	test   $0x10,%al
  100f95:	74 0c                	je     100fa3 <check_extended+0x223>
  100f97:	83 8b 0c 02 00 00 02 	orl    $0x2,0x20c(%ebx)
  100f9e:	83 e0 ef             	and    $0xffffffef,%eax
  100fa1:	eb 86                	jmp    100f29 <check_extended+0x1a9>
  100fa3:	83 a3 0c 02 00 00 fd 	andl   $0xfffffffd,0x20c(%ebx)
  100faa:	83 c8 10             	or     $0x10,%eax
  100fad:	e9 77 ff ff ff       	jmp    100f29 <check_extended+0x1a9>
	...

00100fb4 <_start>:
  100fb4:	50                   	push   %eax
  100fb5:	e8 12 00 00 00       	call   100fcc <ManRiX_init>
  100fba:	58                   	pop    %eax
  100fbb:	b8 00 00 00 00       	mov    $0x0,%eax
  100fc0:	e8 9b f7 ff ff       	call   100760 <main>
  100fc5:	50                   	push   %eax
  100fc6:	e8 4a 00 00 00       	call   101015 <ManRiX_fini>
  100fcb:	90                   	nop    

00100fcc <ManRiX_init>:
  100fcc:	55                   	push   %ebp
  100fcd:	89 e5                	mov    %esp,%ebp
  100fcf:	83 ec 48             	sub    $0x48,%esp
  100fd2:	c7 45 dc 00 00 00 00 	movl   $0x0,0xffffffdc(%ebp)
  100fd9:	c7 45 e0 00 00 00 00 	movl   $0x0,0xffffffe0(%ebp)
  100fe0:	c7 45 e4 00 00 00 00 	movl   $0x0,0xffffffe4(%ebp)
  100fe7:	c7 44 24 08 2c 00 00 	movl   $0x2c,0x8(%esp)
  100fee:	00 
  100fef:	8d 45 c8             	lea    0xffffffc8(%ebp),%eax
  100ff2:	89 44 24 04          	mov    %eax,0x4(%esp)
  100ff6:	8b 45 08             	mov    0x8(%ebp),%eax
  100ff9:	83 c0 0c             	add    $0xc,%eax
  100ffc:	89 04 24             	mov    %eax,(%esp)
  100fff:	e8 22 00 00 00       	call   101026 <memcpy>
  101004:	c7 05 84 96 10 00 00 	movl   $0x0,0x109684
  10100b:	00 00 00 
  10100e:	e8 0d 03 00 00       	call   101320 <ptmalloc_init>
  101013:	c9                   	leave  
  101014:	c3                   	ret    

00101015 <ManRiX_fini>:
  101015:	55                   	push   %ebp
  101016:	89 e5                	mov    %esp,%ebp
  101018:	83 ec 08             	sub    $0x8,%esp
  10101b:	8b 45 08             	mov    0x8(%ebp),%eax
  10101e:	89 04 24             	mov    %eax,(%esp)
  101021:	e8 8a 37 00 00       	call   1047b0 <exit>

00101026 <memcpy>:
  101026:	55                   	push   %ebp
  101027:	89 e5                	mov    %esp,%ebp
  101029:	57                   	push   %edi
  10102a:	56                   	push   %esi
  10102b:	83 ec 0c             	sub    $0xc,%esp
  10102e:	8b 45 10             	mov    0x10(%ebp),%eax
  101031:	89 c1                	mov    %eax,%ecx
  101033:	c1 e9 02             	shr    $0x2,%ecx
  101036:	8b 45 10             	mov    0x10(%ebp),%eax
  101039:	8b 7d 08             	mov    0x8(%ebp),%edi
  10103c:	8b 75 0c             	mov    0xc(%ebp),%esi
  10103f:	f3 a5                	repz movsl %ds:(%esi),%es:(%edi)
  101041:	a8 02                	test   $0x2,%al
  101043:	74 02                	je     101047 <memcpy+0x21>
  101045:	66 a5                	movsw  %ds:(%esi),%es:(%edi)
  101047:	a8 01                	test   $0x1,%al
  101049:	74 01                	je     10104c <memcpy+0x26>
  10104b:	a4                   	movsb  %ds:(%esi),%es:(%edi)
  10104c:	89 c8                	mov    %ecx,%eax
  10104e:	89 45 f4             	mov    %eax,0xfffffff4(%ebp)
  101051:	89 f8                	mov    %edi,%eax
  101053:	89 45 f0             	mov    %eax,0xfffffff0(%ebp)
  101056:	89 f0                	mov    %esi,%eax
  101058:	89 45 ec             	mov    %eax,0xffffffec(%ebp)
  10105b:	8b 45 08             	mov    0x8(%ebp),%eax
  10105e:	83 c4 0c             	add    $0xc,%esp
  101061:	5e                   	pop    %esi
  101062:	5f                   	pop    %edi
  101063:	5d                   	pop    %ebp
  101064:	c3                   	ret    
	...

00101070 <send_message>:
  101070:	55                   	push   %ebp
  101071:	89 e5                	mov    %esp,%ebp
  101073:	83 ec 08             	sub    $0x8,%esp
  101076:	8b 45 0c             	mov    0xc(%ebp),%eax
  101079:	89 44 24 04          	mov    %eax,0x4(%esp)
  10107d:	8b 45 08             	mov    0x8(%ebp),%eax
  101080:	89 04 24             	mov    %eax,(%esp)
  101083:	e8 7c 4f 00 00       	call   106004 <syscall_send_message>
  101088:	85 c0                	test   %eax,%eax
  10108a:	89 c2                	mov    %eax,%edx
  10108c:	78 06                	js     101094 <send_message+0x24>
  10108e:	89 ec                	mov    %ebp,%esp
  101090:	89 d0                	mov    %edx,%eax
  101092:	5d                   	pop    %ebp
  101093:	c3                   	ret    
  101094:	f7 d8                	neg    %eax
  101096:	ba ff ff ff ff       	mov    $0xffffffff,%edx
  10109b:	a3 9c 96 10 00       	mov    %eax,0x10969c
  1010a0:	eb ec                	jmp    10108e <send_message+0x1e>
  1010a2:	8d b4 26 00 00 00 00 	lea    0x0(%esi),%esi
  1010a9:	8d bc 27 00 00 00 00 	lea    0x0(%edi),%edi

001010b0 <receive_message>:
  1010b0:	55                   	push   %ebp
  1010b1:	89 e5                	mov    %esp,%ebp
  1010b3:	83 ec 08             	sub    $0x8,%esp
  1010b6:	8b 45 0c             	mov    0xc(%ebp),%eax
  1010b9:	89 44 24 04          	mov    %eax,0x4(%esp)
  1010bd:	8b 45 08             	mov    0x8(%ebp),%eax
  1010c0:	89 04 24             	mov    %eax,(%esp)
  1010c3:	e8 90 4f 00 00       	call   106058 <syscall_receive_message>
  1010c8:	85 c0                	test   %eax,%eax
  1010ca:	89 c2                	mov    %eax,%edx
  1010cc:	78 06                	js     1010d4 <receive_message+0x24>
  1010ce:	89 ec                	mov    %ebp,%esp
  1010d0:	89 d0                	mov    %edx,%eax
  1010d2:	5d                   	pop    %ebp
  1010d3:	c3                   	ret    
  1010d4:	f7 d8                	neg    %eax
  1010d6:	ba ff ff ff ff       	mov    $0xffffffff,%edx
  1010db:	a3 9c 96 10 00       	mov    %eax,0x10969c
  1010e0:	eb ec                	jmp    1010ce <receive_message+0x1e>
  1010e2:	8d b4 26 00 00 00 00 	lea    0x0(%esi),%esi
  1010e9:	8d bc 27 00 00 00 00 	lea    0x0(%edi),%edi

001010f0 <reply_message>:
  1010f0:	55                   	push   %ebp
  1010f1:	89 e5                	mov    %esp,%ebp
  1010f3:	83 ec 08             	sub    $0x8,%esp
  1010f6:	8b 45 0c             	mov    0xc(%ebp),%eax
  1010f9:	89 44 24 04          	mov    %eax,0x4(%esp)
  1010fd:	8b 45 08             	mov    0x8(%ebp),%eax
  101100:	89 04 24             	mov    %eax,(%esp)
  101103:	e8 a4 4f 00 00       	call   1060ac <syscall_reply_message>
  101108:	85 c0                	test   %eax,%eax
  10110a:	89 c2                	mov    %eax,%edx
  10110c:	78 06                	js     101114 <reply_message+0x24>
  10110e:	89 ec                	mov    %ebp,%esp
  101110:	89 d0                	mov    %edx,%eax
  101112:	5d                   	pop    %ebp
  101113:	c3                   	ret    
  101114:	f7 d8                	neg    %eax
  101116:	ba ff ff ff ff       	mov    $0xffffffff,%edx
  10111b:	a3 9c 96 10 00       	mov    %eax,0x10969c
  101120:	eb ec                	jmp    10110e <reply_message+0x1e>
  101122:	8d b4 26 00 00 00 00 	lea    0x0(%esi),%esi
  101129:	8d bc 27 00 00 00 00 	lea    0x0(%edi),%edi

00101130 <mrx_mutex_sleep>:
  101130:	55                   	push   %ebp
  101131:	89 e5                	mov    %esp,%ebp
  101133:	8b 45 08             	mov    0x8(%ebp),%eax
  101136:	53                   	push   %ebx
  101137:	8b 58 10             	mov    0x10(%eax),%ebx
  10113a:	b8 29 00 00 00       	mov    $0x29,%eax
  10113f:	cd 30                	int    $0x30
  101141:	5b                   	pop    %ebx
  101142:	5d                   	pop    %ebp
  101143:	c3                   	ret    
  101144:	8d b6 00 00 00 00    	lea    0x0(%esi),%esi
  10114a:	8d bf 00 00 00 00    	lea    0x0(%edi),%edi

00101150 <mrx_mutex_wake>:
  101150:	55                   	push   %ebp
  101151:	89 e5                	mov    %esp,%ebp
  101153:	8b 45 08             	mov    0x8(%ebp),%eax
  101156:	53                   	push   %ebx
  101157:	8b 58 10             	mov    0x10(%eax),%ebx
  10115a:	b8 2a 00 00 00       	mov    $0x2a,%eax
  10115f:	cd 30                	int    $0x30
  101161:	5b                   	pop    %ebx
  101162:	5d                   	pop    %ebp
  101163:	c3                   	ret    
	...

00101170 <IRQ_common>:
  101170:	55                   	push   %ebp
  101171:	b8 26 00 00 00       	mov    $0x26,%eax
  101176:	89 e5                	mov    %esp,%ebp
  101178:	57                   	push   %edi
  101179:	53                   	push   %ebx
  10117a:	83 ec 10             	sub    $0x10,%esp
  10117d:	bb 03 00 00 00       	mov    $0x3,%ebx
  101182:	8b 55 08             	mov    0x8(%ebp),%edx
  101185:	cd 30                	int    $0x30
  101187:	b8 22 00 00 00       	mov    $0x22,%eax
  10118c:	8b 3a                	mov    (%edx),%edi
  10118e:	cd 30                	int    $0x30
  101190:	85 c0                	test   %eax,%eax
  101192:	78 35                	js     1011c9 <IRQ_common+0x59>
  101194:	8b 7a 04             	mov    0x4(%edx),%edi
  101197:	bb 24 00 00 00       	mov    $0x24,%ebx
  10119c:	89 14 24             	mov    %edx,(%esp)
  10119f:	e8 ac 0b 00 00       	call   101d50 <free>
  1011a4:	8d b6 00 00 00 00    	lea    0x0(%esi),%esi
  1011aa:	8d bf 00 00 00 00    	lea    0x0(%edi),%edi
  1011b0:	89 d8                	mov    %ebx,%eax
  1011b2:	cd 30                	int    $0x30
  1011b4:	85 c0                	test   %eax,%eax
  1011b6:	78 08                	js     1011c0 <IRQ_common+0x50>
  1011b8:	ff d7                	call   *%edi
  1011ba:	eb f4                	jmp    1011b0 <IRQ_common+0x40>
  1011bc:	8d 74 26 00          	lea    0x0(%esi),%esi
  1011c0:	f7 d8                	neg    %eax
  1011c2:	a3 9c 96 10 00       	mov    %eax,0x10969c
  1011c7:	eb ef                	jmp    1011b8 <IRQ_common+0x48>
  1011c9:	f7 d8                	neg    %eax
  1011cb:	a3 9c 96 10 00       	mov    %eax,0x10969c
  1011d0:	eb c2                	jmp    101194 <IRQ_common+0x24>
  1011d2:	8d b4 26 00 00 00 00 	lea    0x0(%esi),%esi
  1011d9:	8d bc 27 00 00 00 00 	lea    0x0(%edi),%edi

001011e0 <IRQ_request>:
  1011e0:	55                   	push   %ebp
  1011e1:	89 e5                	mov    %esp,%ebp
  1011e3:	83 ec 48             	sub    $0x48,%esp
  1011e6:	89 5d fc             	mov    %ebx,0xfffffffc(%ebp)
  1011e9:	8d 5d d8             	lea    0xffffffd8(%ebp),%ebx
  1011ec:	89 1c 24             	mov    %ebx,(%esp)
  1011ef:	e8 0c 36 00 00       	call   104800 <pthread_attr_init>
  1011f4:	89 1c 24             	mov    %ebx,(%esp)
  1011f7:	8d 45 d4             	lea    0xffffffd4(%ebp),%eax
  1011fa:	c7 45 d4 7f 00 00 00 	movl   $0x7f,0xffffffd4(%ebp)
  101201:	89 44 24 04          	mov    %eax,0x4(%esp)
  101205:	e8 96 36 00 00       	call   1048a0 <pthread_attr_setschedparam>
  10120a:	c7 04 24 08 00 00 00 	movl   $0x8,(%esp)
  101211:	e8 5a 05 00 00       	call   101770 <malloc>
  101216:	8b 55 08             	mov    0x8(%ebp),%edx
  101219:	89 10                	mov    %edx,(%eax)
  10121b:	8b 55 0c             	mov    0xc(%ebp),%edx
  10121e:	89 50 04             	mov    %edx,0x4(%eax)
  101221:	89 44 24 0c          	mov    %eax,0xc(%esp)
  101225:	b8 70 11 10 00       	mov    $0x101170,%eax
  10122a:	89 5c 24 04          	mov    %ebx,0x4(%esp)
  10122e:	89 44 24 08          	mov    %eax,0x8(%esp)
  101232:	c7 04 24 00 00 00 00 	movl   $0x0,(%esp)
  101239:	e8 c2 3a 00 00       	call   104d00 <pthread_create>
  10123e:	8b 5d fc             	mov    0xfffffffc(%ebp),%ebx
  101241:	89 ec                	mov    %ebp,%esp
  101243:	5d                   	pop    %ebp
  101244:	c3                   	ret    
	...

00101250 <ptmalloc_lock_all>:
  101250:	55                   	push   %ebp
  101251:	89 e5                	mov    %esp,%ebp
  101253:	53                   	push   %ebx
  101254:	83 ec 04             	sub    $0x4,%esp
  101257:	bb 80 82 10 00       	mov    $0x108280,%ebx
  10125c:	c7 04 24 a4 86 10 00 	movl   $0x1086a4,(%esp)
  101263:	e8 c8 39 00 00       	call   104c30 <pthread_mutex_lock>
  101268:	90                   	nop    
  101269:	8d b4 26 00 00 00 00 	lea    0x0(%esi),%esi
  101270:	8d 83 10 04 00 00    	lea    0x410(%ebx),%eax
  101276:	89 04 24             	mov    %eax,(%esp)
  101279:	e8 b2 39 00 00       	call   104c30 <pthread_mutex_lock>
  10127e:	8b 9b 08 04 00 00    	mov    0x408(%ebx),%ebx
  101284:	81 fb 80 82 10 00    	cmp    $0x108280,%ebx
  10128a:	75 e4                	jne    101270 <ptmalloc_lock_all+0x20>
  10128c:	58                   	pop    %eax
  10128d:	5b                   	pop    %ebx
  10128e:	5d                   	pop    %ebp
  10128f:	c3                   	ret    

00101290 <ptmalloc_unlock_all>:
  101290:	55                   	push   %ebp
  101291:	89 e5                	mov    %esp,%ebp
  101293:	53                   	push   %ebx
  101294:	83 ec 04             	sub    $0x4,%esp
  101297:	bb 80 82 10 00       	mov    $0x108280,%ebx
  10129c:	8d 74 26 00          	lea    0x0(%esi),%esi
  1012a0:	8d 83 10 04 00 00    	lea    0x410(%ebx),%eax
  1012a6:	89 04 24             	mov    %eax,(%esp)
  1012a9:	e8 c2 39 00 00       	call   104c70 <pthread_mutex_unlock>
  1012ae:	8b 9b 08 04 00 00    	mov    0x408(%ebx),%ebx
  1012b4:	81 fb 80 82 10 00    	cmp    $0x108280,%ebx
  1012ba:	75 e4                	jne    1012a0 <ptmalloc_unlock_all+0x10>
  1012bc:	c7 04 24 a4 86 10 00 	movl   $0x1086a4,(%esp)
  1012c3:	e8 a8 39 00 00       	call   104c70 <pthread_mutex_unlock>
  1012c8:	5a                   	pop    %edx
  1012c9:	5b                   	pop    %ebx
  1012ca:	5d                   	pop    %ebp
  1012cb:	c3                   	ret    
  1012cc:	8d 74 26 00          	lea    0x0(%esi),%esi

001012d0 <ptmalloc_unlock_all2>:
  1012d0:	55                   	push   %ebp
  1012d1:	89 e5                	mov    %esp,%ebp
  1012d3:	53                   	push   %ebx
  1012d4:	83 ec 14             	sub    $0x14,%esp
  1012d7:	bb 80 82 10 00       	mov    $0x108280,%ebx
  1012dc:	8d 74 26 00          	lea    0x0(%esi),%esi
  1012e0:	31 c0                	xor    %eax,%eax
  1012e2:	89 44 24 04          	mov    %eax,0x4(%esp)
  1012e6:	8d 83 10 04 00 00    	lea    0x410(%ebx),%eax
  1012ec:	89 04 24             	mov    %eax,(%esp)
  1012ef:	e8 bc 38 00 00       	call   104bb0 <pthread_mutex_init>
  1012f4:	8b 9b 08 04 00 00    	mov    0x408(%ebx),%ebx
  1012fa:	81 fb 80 82 10 00    	cmp    $0x108280,%ebx
  101300:	75 de                	jne    1012e0 <ptmalloc_unlock_all2+0x10>
  101302:	c7 04 24 a4 86 10 00 	movl   $0x1086a4,(%esp)
  101309:	31 c9                	xor    %ecx,%ecx
  10130b:	89 4c 24 04          	mov    %ecx,0x4(%esp)
  10130f:	e8 9c 38 00 00       	call   104bb0 <pthread_mutex_init>
  101314:	83 c4 14             	add    $0x14,%esp
  101317:	5b                   	pop    %ebx
  101318:	5d                   	pop    %ebp
  101319:	c3                   	ret    
  10131a:	8d b6 00 00 00 00    	lea    0x0(%esi),%esi

00101320 <ptmalloc_init>:
  101320:	55                   	push   %ebp
  101321:	89 e5                	mov    %esp,%ebp
  101323:	83 ec 18             	sub    $0x18,%esp
  101326:	a1 cc 86 10 00       	mov    0x1086cc,%eax
  10132b:	85 c0                	test   %eax,%eax
  10132d:	78 02                	js     101331 <ptmalloc_init+0x11>
  10132f:	c9                   	leave  
  101330:	c3                   	ret    
  101331:	c7 04 24 90 86 10 00 	movl   $0x108690,(%esp)
  101338:	31 c0                	xor    %eax,%eax
  10133a:	a3 cc 86 10 00       	mov    %eax,0x1086cc
  10133f:	31 c0                	xor    %eax,%eax
  101341:	89 44 24 04          	mov    %eax,0x4(%esp)
  101345:	e8 66 38 00 00       	call   104bb0 <pthread_mutex_init>
  10134a:	c7 04 24 a4 86 10 00 	movl   $0x1086a4,(%esp)
  101351:	31 c0                	xor    %eax,%eax
  101353:	89 44 24 04          	mov    %eax,0x4(%esp)
  101357:	e8 54 38 00 00       	call   104bb0 <pthread_mutex_init>
  10135c:	31 c0                	xor    %eax,%eax
  10135e:	89 f6                	mov    %esi,%esi
  101360:	31 c9                	xor    %ecx,%ecx
  101362:	89 0c 85 80 92 10 00 	mov    %ecx,0x109280(,%eax,4)
  101369:	40                   	inc    %eax
  10136a:	3d ff 00 00 00       	cmp    $0xff,%eax
  10136f:	7e ef                	jle    101360 <ptmalloc_init+0x40>
  101371:	e8 2a 39 00 00       	call   104ca0 <pthread_self>
  101376:	c7 04 24 50 12 10 00 	movl   $0x101250,(%esp)
  10137d:	25 ff 00 00 00       	and    $0xff,%eax
  101382:	ba 80 82 10 00       	mov    $0x108280,%edx
  101387:	89 14 85 80 92 10 00 	mov    %edx,0x109280(,%eax,4)
  10138e:	b8 d0 12 10 00       	mov    $0x1012d0,%eax
  101393:	89 44 24 08          	mov    %eax,0x8(%esp)
  101397:	b8 90 12 10 00       	mov    $0x101290,%eax
  10139c:	89 44 24 04          	mov    %eax,0x4(%esp)
  1013a0:	e8 eb 3a 00 00       	call   104e90 <pthread_atfork>
  1013a5:	b8 01 00 00 00       	mov    $0x1,%eax
  1013aa:	a3 cc 86 10 00       	mov    %eax,0x1086cc
  1013af:	e9 7b ff ff ff       	jmp    10132f <ptmalloc_init+0xf>
  1013b4:	8d b6 00 00 00 00    	lea    0x0(%esi),%esi
  1013ba:	8d bf 00 00 00 00    	lea    0x0(%edi),%edi

001013c0 <munmap_chunk>:
  1013c0:	55                   	push   %ebp
  1013c1:	89 e5                	mov    %esp,%ebp
  1013c3:	83 ec 08             	sub    $0x8,%esp
  1013c6:	8b 45 08             	mov    0x8(%ebp),%eax
  1013c9:	8b 50 04             	mov    0x4(%eax),%edx
  1013cc:	8b 08                	mov    (%eax),%ecx
  1013ce:	ff 0d 68 92 10 00    	decl   0x109268
  1013d4:	83 e2 fc             	and    $0xfffffffc,%edx
  1013d7:	01 ca                	add    %ecx,%edx
  1013d9:	89 54 24 04          	mov    %edx,0x4(%esp)
  1013dd:	29 c8                	sub    %ecx,%eax
  1013df:	89 04 24             	mov    %eax,(%esp)
  1013e2:	29 15 70 92 10 00    	sub    %edx,0x109270
  1013e8:	e8 f3 24 00 00       	call   1038e0 <munmap>
  1013ed:	89 ec                	mov    %ebp,%esp
  1013ef:	5d                   	pop    %ebp
  1013f0:	c3                   	ret    
  1013f1:	eb 0d                	jmp    101400 <new_heap>
  1013f3:	90                   	nop    
  1013f4:	90                   	nop    
  1013f5:	90                   	nop    
  1013f6:	90                   	nop    
  1013f7:	90                   	nop    
  1013f8:	90                   	nop    
  1013f9:	90                   	nop    
  1013fa:	90                   	nop    
  1013fb:	90                   	nop    
  1013fc:	90                   	nop    
  1013fd:	90                   	nop    
  1013fe:	90                   	nop    
  1013ff:	90                   	nop    

00101400 <new_heap>:
  101400:	55                   	push   %ebp
  101401:	89 e5                	mov    %esp,%ebp
  101403:	57                   	push   %edi
  101404:	56                   	push   %esi
  101405:	53                   	push   %ebx
  101406:	83 ec 1c             	sub    $0x1c,%esp
  101409:	8b 7d 08             	mov    0x8(%ebp),%edi
  10140c:	8b 15 60 92 10 00    	mov    0x109260,%edx
  101412:	89 f8                	mov    %edi,%eax
  101414:	01 d0                	add    %edx,%eax
  101416:	3d ff 7f 00 00       	cmp    $0x7fff,%eax
  10141b:	0f 87 c0 00 00 00    	ja     1014e1 <new_heap+0xe1>
  101421:	bf 00 80 00 00       	mov    $0x8000,%edi
  101426:	c7 04 24 00 00 00 00 	movl   $0x0,(%esp)
  10142d:	31 c0                	xor    %eax,%eax
  10142f:	ba 00 00 20 00       	mov    $0x200000,%edx
  101434:	89 54 24 04          	mov    %edx,0x4(%esp)
  101438:	b9 08 00 00 00       	mov    $0x8,%ecx
  10143d:	be ff ff ff ff       	mov    $0xffffffff,%esi
  101442:	89 44 24 14          	mov    %eax,0x14(%esp)
  101446:	bb 28 00 00 00       	mov    $0x28,%ebx
  10144b:	81 c7 ff 0f 00 00    	add    $0xfff,%edi
  101451:	89 74 24 10          	mov    %esi,0x10(%esp)
  101455:	81 e7 00 f0 ff ff    	and    $0xfffff000,%edi
  10145b:	89 5c 24 0c          	mov    %ebx,0xc(%esp)
  10145f:	89 4c 24 08          	mov    %ecx,0x8(%esp)
  101463:	e8 08 24 00 00       	call   103870 <mmap>
  101468:	31 d2                	xor    %edx,%edx
  10146a:	83 f8 ff             	cmp    $0xffffffff,%eax
  10146d:	74 53                	je     1014c2 <new_heap+0xc2>
  10146f:	89 04 24             	mov    %eax,(%esp)
  101472:	8d b0 00 00 10 00    	lea    0x100000(%eax),%esi
  101478:	81 e6 00 00 f0 ff    	and    $0xfff00000,%esi
  10147e:	89 f3                	mov    %esi,%ebx
  101480:	29 c3                	sub    %eax,%ebx
  101482:	89 5c 24 04          	mov    %ebx,0x4(%esp)
  101486:	e8 55 24 00 00       	call   1038e0 <munmap>
  10148b:	b8 00 00 10 00       	mov    $0x100000,%eax
  101490:	29 d8                	sub    %ebx,%eax
  101492:	89 44 24 04          	mov    %eax,0x4(%esp)
  101496:	8d 86 00 00 10 00    	lea    0x100000(%esi),%eax
  10149c:	89 04 24             	mov    %eax,(%esp)
  10149f:	e8 3c 24 00 00       	call   1038e0 <munmap>
  1014a4:	89 7c 24 04          	mov    %edi,0x4(%esp)
  1014a8:	b8 03 00 00 00       	mov    $0x3,%eax
  1014ad:	89 44 24 08          	mov    %eax,0x8(%esp)
  1014b1:	89 34 24             	mov    %esi,(%esp)
  1014b4:	e8 87 23 00 00       	call   103840 <mprotect>
  1014b9:	85 c0                	test   %eax,%eax
  1014bb:	75 0f                	jne    1014cc <new_heap+0xcc>
  1014bd:	89 7e 08             	mov    %edi,0x8(%esi)
  1014c0:	89 f2                	mov    %esi,%edx
  1014c2:	83 c4 1c             	add    $0x1c,%esp
  1014c5:	89 d0                	mov    %edx,%eax
  1014c7:	5b                   	pop    %ebx
  1014c8:	5e                   	pop    %esi
  1014c9:	5f                   	pop    %edi
  1014ca:	5d                   	pop    %ebp
  1014cb:	c3                   	ret    
  1014cc:	89 34 24             	mov    %esi,(%esp)
  1014cf:	b8 00 00 10 00       	mov    $0x100000,%eax
  1014d4:	89 44 24 04          	mov    %eax,0x4(%esp)
  1014d8:	e8 03 24 00 00       	call   1038e0 <munmap>
  1014dd:	31 d2                	xor    %edx,%edx
  1014df:	eb e1                	jmp    1014c2 <new_heap+0xc2>
  1014e1:	3d 00 00 10 00       	cmp    $0x100000,%eax
  1014e6:	77 08                	ja     1014f0 <new_heap+0xf0>
  1014e8:	89 c7                	mov    %eax,%edi
  1014ea:	e9 37 ff ff ff       	jmp    101426 <new_heap+0x26>
  1014ef:	90                   	nop    
  1014f0:	31 d2                	xor    %edx,%edx
  1014f2:	81 ff 00 00 10 00    	cmp    $0x100000,%edi
  1014f8:	77 c8                	ja     1014c2 <new_heap+0xc2>
  1014fa:	bf 00 00 10 00       	mov    $0x100000,%edi
  1014ff:	e9 22 ff ff ff       	jmp    101426 <new_heap+0x26>
  101504:	8d b6 00 00 00 00    	lea    0x0(%esi),%esi
  10150a:	8d bf 00 00 00 00    	lea    0x0(%edi),%edi

00101510 <grow_heap>:
  101510:	55                   	push   %ebp
  101511:	89 e5                	mov    %esp,%ebp
  101513:	83 ec 28             	sub    $0x28,%esp
  101516:	89 75 fc             	mov    %esi,0xfffffffc(%ebp)
  101519:	8b 45 0c             	mov    0xc(%ebp),%eax
  10151c:	8b 75 08             	mov    0x8(%ebp),%esi
  10151f:	89 5d f8             	mov    %ebx,0xfffffff8(%ebp)
  101522:	85 c0                	test   %eax,%eax
  101524:	78 4f                	js     101575 <grow_heap+0x65>
  101526:	8b 56 08             	mov    0x8(%esi),%edx
  101529:	05 ff 0f 00 00       	add    $0xfff,%eax
  10152e:	b9 ff ff ff ff       	mov    $0xffffffff,%ecx
  101533:	25 00 f0 ff ff       	and    $0xfffff000,%eax
  101538:	8d 1c 10             	lea    (%eax,%edx,1),%ebx
  10153b:	81 fb 00 00 10 00    	cmp    $0x100000,%ebx
  101541:	7f 26                	jg     101569 <grow_heap+0x59>
  101543:	89 44 24 04          	mov    %eax,0x4(%esp)
  101547:	b9 03 00 00 00       	mov    $0x3,%ecx
  10154c:	8d 04 32             	lea    (%edx,%esi,1),%eax
  10154f:	89 4c 24 08          	mov    %ecx,0x8(%esp)
  101553:	89 04 24             	mov    %eax,(%esp)
  101556:	e8 e5 22 00 00       	call   103840 <mprotect>
  10155b:	85 c0                	test   %eax,%eax
  10155d:	b9 fe ff ff ff       	mov    $0xfffffffe,%ecx
  101562:	75 05                	jne    101569 <grow_heap+0x59>
  101564:	89 5e 08             	mov    %ebx,0x8(%esi)
  101567:	31 c9                	xor    %ecx,%ecx
  101569:	8b 5d f8             	mov    0xfffffff8(%ebp),%ebx
  10156c:	89 c8                	mov    %ecx,%eax
  10156e:	8b 75 fc             	mov    0xfffffffc(%ebp),%esi
  101571:	89 ec                	mov    %ebp,%esp
  101573:	5d                   	pop    %ebp
  101574:	c3                   	ret    
  101575:	8b 5e 08             	mov    0x8(%esi),%ebx
  101578:	b9 ff ff ff ff       	mov    $0xffffffff,%ecx
  10157d:	01 c3                	add    %eax,%ebx
  10157f:	83 fb 0f             	cmp    $0xf,%ebx
  101582:	7e e5                	jle    101569 <grow_heap+0x59>
  101584:	31 d2                	xor    %edx,%edx
  101586:	f7 d8                	neg    %eax
  101588:	b9 ff ff ff ff       	mov    $0xffffffff,%ecx
  10158d:	89 54 24 14          	mov    %edx,0x14(%esp)
  101591:	ba 2c 00 00 00       	mov    $0x2c,%edx
  101596:	89 4c 24 10          	mov    %ecx,0x10(%esp)
  10159a:	b9 08 00 00 00       	mov    $0x8,%ecx
  10159f:	89 44 24 04          	mov    %eax,0x4(%esp)
  1015a3:	8d 04 33             	lea    (%ebx,%esi,1),%eax
  1015a6:	89 4c 24 08          	mov    %ecx,0x8(%esp)
  1015aa:	89 54 24 0c          	mov    %edx,0xc(%esp)
  1015ae:	89 04 24             	mov    %eax,(%esp)
  1015b1:	e8 ba 22 00 00       	call   103870 <mmap>
  1015b6:	40                   	inc    %eax
  1015b7:	b9 fe ff ff ff       	mov    $0xfffffffe,%ecx
  1015bc:	75 a6                	jne    101564 <grow_heap+0x54>
  1015be:	eb a9                	jmp    101569 <grow_heap+0x59>

001015c0 <arena_get2>:
  1015c0:	55                   	push   %ebp
  1015c1:	89 e5                	mov    %esp,%ebp
  1015c3:	57                   	push   %edi
  1015c4:	56                   	push   %esi
  1015c5:	53                   	push   %ebx
  1015c6:	83 ec 0c             	sub    $0xc,%esp
  1015c9:	8b 75 08             	mov    0x8(%ebp),%esi
  1015cc:	85 f6                	test   %esi,%esi
  1015ce:	0f 84 84 01 00 00    	je     101758 <arena_get2+0x198>
  1015d4:	8b 9e 08 04 00 00    	mov    0x408(%esi),%ebx
  1015da:	85 db                	test   %ebx,%ebx
  1015dc:	0f 84 63 01 00 00    	je     101745 <arena_get2+0x185>
  1015e2:	8d b4 26 00 00 00 00 	lea    0x0(%esi),%esi
  1015e9:	8d bc 27 00 00 00 00 	lea    0x0(%edi),%edi
  1015f0:	8d 83 10 04 00 00    	lea    0x410(%ebx),%eax
  1015f6:	89 04 24             	mov    %eax,(%esp)
  1015f9:	e8 52 36 00 00       	call   104c50 <pthread_mutex_trylock>
  1015fe:	85 c0                	test   %eax,%eax
  101600:	0f 84 2a 01 00 00    	je     101730 <arena_get2+0x170>
  101606:	8b 9b 08 04 00 00    	mov    0x408(%ebx),%ebx
  10160c:	39 f3                	cmp    %esi,%ebx
  10160e:	75 e0                	jne    1015f0 <arena_get2+0x30>
  101610:	c7 04 24 a4 86 10 00 	movl   $0x1086a4,(%esp)
  101617:	e8 34 36 00 00       	call   104c50 <pthread_mutex_trylock>
  10161c:	85 c0                	test   %eax,%eax
  10161e:	75 d0                	jne    1015f0 <arena_get2+0x30>
  101620:	c7 04 24 a4 86 10 00 	movl   $0x1086a4,(%esp)
  101627:	e8 44 36 00 00       	call   104c70 <pthread_mutex_unlock>
  10162c:	8b 45 0c             	mov    0xc(%ebp),%eax
  10162f:	05 3c 04 00 00       	add    $0x43c,%eax
  101634:	89 04 24             	mov    %eax,(%esp)
  101637:	e8 c4 fd ff ff       	call   101400 <new_heap>
  10163c:	85 c0                	test   %eax,%eax
  10163e:	89 c6                	mov    %eax,%esi
  101640:	0f 84 ce 00 00 00    	je     101714 <arena_get2+0x154>
  101646:	8d 7e 10             	lea    0x10(%esi),%edi
  101649:	bb 7f 00 00 00       	mov    $0x7f,%ebx
  10164e:	89 f8                	mov    %edi,%eax
  101650:	89 3e                	mov    %edi,(%esi)
  101652:	8d b4 26 00 00 00 00 	lea    0x0(%esi),%esi
  101659:	8d bc 27 00 00 00 00 	lea    0x0(%edi),%edi
  101660:	89 40 0c             	mov    %eax,0xc(%eax)
  101663:	89 40 08             	mov    %eax,0x8(%eax)
  101666:	83 c0 08             	add    $0x8,%eax
  101669:	4b                   	dec    %ebx
  10166a:	79 f4                	jns    101660 <arena_get2+0xa0>
  10166c:	31 c0                	xor    %eax,%eax
  10166e:	8d 9f 10 04 00 00    	lea    0x410(%edi),%ebx
  101674:	89 87 08 04 00 00    	mov    %eax,0x408(%edi)
  10167a:	8b 46 08             	mov    0x8(%esi),%eax
  10167d:	89 87 0c 04 00 00    	mov    %eax,0x40c(%edi)
  101683:	8b 46 08             	mov    0x8(%esi),%eax
  101686:	01 05 78 92 10 00    	add    %eax,0x109278
  10168c:	e8 0f 36 00 00       	call   104ca0 <pthread_self>
  101691:	89 1c 24             	mov    %ebx,(%esp)
  101694:	25 ff 00 00 00       	and    $0xff,%eax
  101699:	89 3c 85 80 92 10 00 	mov    %edi,0x109280(,%eax,4)
  1016a0:	31 c0                	xor    %eax,%eax
  1016a2:	89 44 24 04          	mov    %eax,0x4(%esp)
  1016a6:	e8 05 35 00 00       	call   104bb0 <pthread_mutex_init>
  1016ab:	89 1c 24             	mov    %ebx,(%esp)
  1016ae:	e8 7d 35 00 00       	call   104c30 <pthread_mutex_lock>
  1016b3:	89 c3                	mov    %eax,%ebx
  1016b5:	8d 97 24 04 00 00    	lea    0x424(%edi),%edx
  1016bb:	8d 87 2c 04 00 00    	lea    0x42c(%edi),%eax
  1016c1:	83 e0 07             	and    $0x7,%eax
  1016c4:	74 05                	je     1016cb <arena_get2+0x10b>
  1016c6:	29 c2                	sub    %eax,%edx
  1016c8:	8d 52 08             	lea    0x8(%edx),%edx
  1016cb:	89 57 08             	mov    %edx,0x8(%edi)
  1016ce:	8b 46 08             	mov    0x8(%esi),%eax
  1016d1:	01 c6                	add    %eax,%esi
  1016d3:	29 d6                	sub    %edx,%esi
  1016d5:	83 ce 01             	or     $0x1,%esi
  1016d8:	89 72 04             	mov    %esi,0x4(%edx)
  1016db:	c7 04 24 a4 86 10 00 	movl   $0x1086a4,(%esp)
  1016e2:	e8 49 35 00 00       	call   104c30 <pthread_mutex_lock>
  1016e7:	a1 88 86 10 00       	mov    0x108688,%eax
  1016ec:	89 87 08 04 00 00    	mov    %eax,0x408(%edi)
  1016f2:	89 3d 88 86 10 00    	mov    %edi,0x108688
  1016f8:	c7 04 24 a4 86 10 00 	movl   $0x1086a4,(%esp)
  1016ff:	e8 6c 35 00 00       	call   104c70 <pthread_mutex_unlock>
  101704:	31 c0                	xor    %eax,%eax
  101706:	85 db                	test   %ebx,%ebx
  101708:	75 02                	jne    10170c <arena_get2+0x14c>
  10170a:	89 f8                	mov    %edi,%eax
  10170c:	83 c4 0c             	add    $0xc,%esp
  10170f:	5b                   	pop    %ebx
  101710:	5e                   	pop    %esi
  101711:	5f                   	pop    %edi
  101712:	5d                   	pop    %ebp
  101713:	c3                   	ret    
  101714:	c7 04 24 3c 04 00 00 	movl   $0x43c,(%esp)
  10171b:	e8 e0 fc ff ff       	call   101400 <new_heap>
  101720:	89 c6                	mov    %eax,%esi
  101722:	31 c0                	xor    %eax,%eax
  101724:	85 f6                	test   %esi,%esi
  101726:	0f 85 1a ff ff ff    	jne    101646 <arena_get2+0x86>
  10172c:	eb de                	jmp    10170c <arena_get2+0x14c>
  10172e:	89 f6                	mov    %esi,%esi
  101730:	e8 6b 35 00 00       	call   104ca0 <pthread_self>
  101735:	25 ff 00 00 00       	and    $0xff,%eax
  10173a:	89 1c 85 80 92 10 00 	mov    %ebx,0x109280(,%eax,4)
  101741:	89 d8                	mov    %ebx,%eax
  101743:	eb c7                	jmp    10170c <arena_get2+0x14c>
  101745:	c7 04 24 90 86 10 00 	movl   $0x108690,(%esp)
  10174c:	e8 df 34 00 00       	call   104c30 <pthread_mutex_lock>
  101751:	b8 80 82 10 00       	mov    $0x108280,%eax
  101756:	eb b4                	jmp    10170c <arena_get2+0x14c>
  101758:	be 80 82 10 00       	mov    $0x108280,%esi
  10175d:	89 f3                	mov    %esi,%ebx
  10175f:	e9 8c fe ff ff       	jmp    1015f0 <arena_get2+0x30>
  101764:	8d b6 00 00 00 00    	lea    0x0(%esi),%esi
  10176a:	8d bf 00 00 00 00    	lea    0x0(%edi),%edi

00101770 <malloc>:
  101770:	55                   	push   %ebp
  101771:	89 e5                	mov    %esp,%ebp
  101773:	83 ec 18             	sub    $0x18,%esp
  101776:	89 75 f8             	mov    %esi,0xfffffff8(%ebp)
  101779:	8b 45 08             	mov    0x8(%ebp),%eax
  10177c:	89 5d f4             	mov    %ebx,0xfffffff4(%ebp)
  10177f:	89 7d fc             	mov    %edi,0xfffffffc(%ebp)
  101782:	8d 70 0b             	lea    0xb(%eax),%esi
  101785:	85 f6                	test   %esi,%esi
  101787:	7e 04                	jle    10178d <malloc+0x1d>
  101789:	39 c6                	cmp    %eax,%esi
  10178b:	73 19                	jae    1017a6 <malloc+0x36>
  10178d:	b8 31 00 00 00       	mov    $0x31,%eax
  101792:	a3 9c 96 10 00       	mov    %eax,0x10969c
  101797:	31 c0                	xor    %eax,%eax
  101799:	8b 5d f4             	mov    0xfffffff4(%ebp),%ebx
  10179c:	8b 75 f8             	mov    0xfffffff8(%ebp),%esi
  10179f:	8b 7d fc             	mov    0xfffffffc(%ebp),%edi
  1017a2:	89 ec                	mov    %ebp,%esp
  1017a4:	5d                   	pop    %ebp
  1017a5:	c3                   	ret    
  1017a6:	83 fe 16             	cmp    $0x16,%esi
  1017a9:	0f 87 01 01 00 00    	ja     1018b0 <malloc+0x140>
  1017af:	be 10 00 00 00       	mov    $0x10,%esi
  1017b4:	e8 e7 34 00 00       	call   104ca0 <pthread_self>
  1017b9:	25 ff 00 00 00       	and    $0xff,%eax
  1017be:	8b 1c 85 80 92 10 00 	mov    0x109280(,%eax,4),%ebx
  1017c5:	85 db                	test   %ebx,%ebx
  1017c7:	74 12                	je     1017db <malloc+0x6b>
  1017c9:	8d 83 10 04 00 00    	lea    0x410(%ebx),%eax
  1017cf:	89 04 24             	mov    %eax,(%esp)
  1017d2:	e8 79 34 00 00       	call   104c50 <pthread_mutex_trylock>
  1017d7:	85 c0                	test   %eax,%eax
  1017d9:	74 0e                	je     1017e9 <malloc+0x79>
  1017db:	89 1c 24             	mov    %ebx,(%esp)
  1017de:	89 74 24 04          	mov    %esi,0x4(%esp)
  1017e2:	e8 d9 fd ff ff       	call   1015c0 <arena_get2>
  1017e7:	89 c3                	mov    %eax,%ebx
  1017e9:	31 c0                	xor    %eax,%eax
  1017eb:	85 db                	test   %ebx,%ebx
  1017ed:	74 aa                	je     101799 <malloc+0x29>
  1017ef:	89 74 24 04          	mov    %esi,0x4(%esp)
  1017f3:	89 1c 24             	mov    %ebx,(%esp)
  1017f6:	e8 c5 00 00 00       	call   1018c0 <chunk_alloc>
  1017fb:	85 c0                	test   %eax,%eax
  1017fd:	89 c7                	mov    %eax,%edi
  1017ff:	74 13                	je     101814 <malloc+0xa4>
  101801:	8d 83 10 04 00 00    	lea    0x410(%ebx),%eax
  101807:	89 04 24             	mov    %eax,(%esp)
  10180a:	e8 61 34 00 00       	call   104c70 <pthread_mutex_unlock>
  10180f:	8d 47 08             	lea    0x8(%edi),%eax
  101812:	eb 85                	jmp    101799 <malloc+0x29>
  101814:	81 fb 80 82 10 00    	cmp    $0x108280,%ebx
  10181a:	74 44                	je     101860 <malloc+0xf0>
  10181c:	8d 83 10 04 00 00    	lea    0x410(%ebx),%eax
  101822:	89 04 24             	mov    %eax,(%esp)
  101825:	e8 46 34 00 00       	call   104c70 <pthread_mutex_unlock>
  10182a:	c7 04 24 90 86 10 00 	movl   $0x108690,(%esp)
  101831:	e8 fa 33 00 00       	call   104c30 <pthread_mutex_lock>
  101836:	89 74 24 04          	mov    %esi,0x4(%esp)
  10183a:	c7 04 24 80 82 10 00 	movl   $0x108280,(%esp)
  101841:	e8 7a 00 00 00       	call   1018c0 <chunk_alloc>
  101846:	c7 04 24 90 86 10 00 	movl   $0x108690,(%esp)
  10184d:	89 c7                	mov    %eax,%edi
  10184f:	e8 1c 34 00 00       	call   104c70 <pthread_mutex_unlock>
  101854:	31 c0                	xor    %eax,%eax
  101856:	85 ff                	test   %edi,%edi
  101858:	75 b5                	jne    10180f <malloc+0x9f>
  10185a:	e9 3a ff ff ff       	jmp    101799 <malloc+0x29>
  10185f:	90                   	nop    
  101860:	89 74 24 04          	mov    %esi,0x4(%esp)
  101864:	31 c0                	xor    %eax,%eax
  101866:	83 3d 88 86 10 00 00 	cmpl   $0x0,0x108688
  10186d:	0f 94 c0             	sete   %al
  101870:	48                   	dec    %eax
  101871:	25 80 82 10 00       	and    $0x108280,%eax
  101876:	89 04 24             	mov    %eax,(%esp)
  101879:	e8 42 fd ff ff       	call   1015c0 <arena_get2>
  10187e:	c7 04 24 90 86 10 00 	movl   $0x108690,(%esp)
  101885:	89 c3                	mov    %eax,%ebx
  101887:	e8 e4 33 00 00       	call   104c70 <pthread_mutex_unlock>
  10188c:	85 db                	test   %ebx,%ebx
  10188e:	74 c4                	je     101854 <malloc+0xe4>
  101890:	89 74 24 04          	mov    %esi,0x4(%esp)
  101894:	89 1c 24             	mov    %ebx,(%esp)
  101897:	e8 24 00 00 00       	call   1018c0 <chunk_alloc>
  10189c:	89 c7                	mov    %eax,%edi
  10189e:	8d 83 10 04 00 00    	lea    0x410(%ebx),%eax
  1018a4:	89 04 24             	mov    %eax,(%esp)
  1018a7:	eb a6                	jmp    10184f <malloc+0xdf>
  1018a9:	8d b4 26 00 00 00 00 	lea    0x0(%esi),%esi
  1018b0:	83 e6 f8             	and    $0xfffffff8,%esi
  1018b3:	e9 fc fe ff ff       	jmp    1017b4 <malloc+0x44>
  1018b8:	90                   	nop    
  1018b9:	8d b4 26 00 00 00 00 	lea    0x0(%esi),%esi

001018c0 <chunk_alloc>:
  1018c0:	55                   	push   %ebp
  1018c1:	89 e5                	mov    %esp,%ebp
  1018c3:	57                   	push   %edi
  1018c4:	56                   	push   %esi
  1018c5:	53                   	push   %ebx
  1018c6:	83 ec 2c             	sub    $0x2c,%esp
  1018c9:	81 7d 0c f7 01 00 00 	cmpl   $0x1f7,0xc(%ebp)
  1018d0:	0f 87 c1 03 00 00    	ja     101c97 <chunk_alloc+0x3d7>
  1018d6:	8b 45 0c             	mov    0xc(%ebp),%eax
  1018d9:	8b 55 08             	mov    0x8(%ebp),%edx
  1018dc:	c1 e8 03             	shr    $0x3,%eax
  1018df:	89 45 f0             	mov    %eax,0xfffffff0(%ebp)
  1018e2:	8d 34 c2             	lea    (%edx,%eax,8),%esi
  1018e5:	8b 5e 0c             	mov    0xc(%esi),%ebx
  1018e8:	39 f3                	cmp    %esi,%ebx
  1018ea:	74 21                	je     10190d <chunk_alloc+0x4d>
  1018ec:	8b 53 04             	mov    0x4(%ebx),%edx
  1018ef:	83 e2 fc             	and    $0xfffffffc,%edx
  1018f2:	8b 73 0c             	mov    0xc(%ebx),%esi
  1018f5:	8b 7b 08             	mov    0x8(%ebx),%edi
  1018f8:	89 77 0c             	mov    %esi,0xc(%edi)
  1018fb:	89 7e 08             	mov    %edi,0x8(%esi)
  1018fe:	83 4c 1a 04 01       	orl    $0x1,0x4(%edx,%ebx,1)
  101903:	89 d8                	mov    %ebx,%eax
  101905:	83 c4 2c             	add    $0x2c,%esp
  101908:	5b                   	pop    %ebx
  101909:	5e                   	pop    %esi
  10190a:	5f                   	pop    %edi
  10190b:	5d                   	pop    %ebp
  10190c:	c3                   	ret    
  10190d:	8d 73 08             	lea    0x8(%ebx),%esi
  101910:	8b 5e 0c             	mov    0xc(%esi),%ebx
  101913:	39 f3                	cmp    %esi,%ebx
  101915:	75 d5                	jne    1018ec <chunk_alloc+0x2c>
  101917:	83 45 f0 02          	addl   $0x2,0xfffffff0(%ebp)
  10191b:	90                   	nop    
  10191c:	8d 74 26 00          	lea    0x0(%esi),%esi
  101920:	8b 45 08             	mov    0x8(%ebp),%eax
  101923:	8b 58 10             	mov    0x10(%eax),%ebx
  101926:	83 c0 08             	add    $0x8,%eax
  101929:	89 45 e8             	mov    %eax,0xffffffe8(%ebp)
  10192c:	39 c3                	cmp    %eax,%ebx
  10192e:	0f 84 84 00 00 00    	je     1019b8 <chunk_alloc+0xf8>
  101934:	8b 53 04             	mov    0x4(%ebx),%edx
  101937:	8b 45 0c             	mov    0xc(%ebp),%eax
  10193a:	83 e2 fc             	and    $0xfffffffc,%edx
  10193d:	89 d1                	mov    %edx,%ecx
  10193f:	29 c1                	sub    %eax,%ecx
  101941:	83 f9 0f             	cmp    $0xf,%ecx
  101944:	7e 2b                	jle    101971 <chunk_alloc+0xb1>
  101946:	8b 75 0c             	mov    0xc(%ebp),%esi
  101949:	8d 14 1e             	lea    (%esi,%ebx,1),%edx
  10194c:	83 ce 01             	or     $0x1,%esi
  10194f:	89 73 04             	mov    %esi,0x4(%ebx)
  101952:	89 0c 11             	mov    %ecx,(%ecx,%edx,1)
  101955:	8b 45 08             	mov    0x8(%ebp),%eax
  101958:	8b 75 e8             	mov    0xffffffe8(%ebp),%esi
  10195b:	89 50 14             	mov    %edx,0x14(%eax)
  10195e:	89 50 10             	mov    %edx,0x10(%eax)
  101961:	89 c8                	mov    %ecx,%eax
  101963:	83 c8 01             	or     $0x1,%eax
  101966:	89 72 0c             	mov    %esi,0xc(%edx)
  101969:	89 72 08             	mov    %esi,0x8(%edx)
  10196c:	89 42 04             	mov    %eax,0x4(%edx)
  10196f:	eb 92                	jmp    101903 <chunk_alloc+0x43>
  101971:	8b 75 e8             	mov    0xffffffe8(%ebp),%esi
  101974:	85 c9                	test   %ecx,%ecx
  101976:	8b 45 08             	mov    0x8(%ebp),%eax
  101979:	89 70 14             	mov    %esi,0x14(%eax)
  10197c:	89 70 10             	mov    %esi,0x10(%eax)
  10197f:	0f 89 79 ff ff ff    	jns    1018fe <chunk_alloc+0x3e>
  101985:	81 fa ff 01 00 00    	cmp    $0x1ff,%edx
  10198b:	0f 87 5d 02 00 00    	ja     101bee <chunk_alloc+0x32e>
  101991:	c1 ea 03             	shr    $0x3,%edx
  101994:	b8 01 00 00 00       	mov    $0x1,%eax
  101999:	89 d1                	mov    %edx,%ecx
  10199b:	c1 f9 02             	sar    $0x2,%ecx
  10199e:	d3 e0                	shl    %cl,%eax
  1019a0:	8b 4d 08             	mov    0x8(%ebp),%ecx
  1019a3:	09 41 04             	or     %eax,0x4(%ecx)
  1019a6:	8d 34 d1             	lea    (%ecx,%edx,8),%esi
  1019a9:	8b 7e 08             	mov    0x8(%esi),%edi
  1019ac:	89 73 0c             	mov    %esi,0xc(%ebx)
  1019af:	89 7b 08             	mov    %edi,0x8(%ebx)
  1019b2:	89 5f 0c             	mov    %ebx,0xc(%edi)
  1019b5:	89 5e 08             	mov    %ebx,0x8(%esi)
  1019b8:	8b 4d f0             	mov    0xfffffff0(%ebp),%ecx
  1019bb:	85 c9                	test   %ecx,%ecx
  1019bd:	0f 88 23 02 00 00    	js     101be6 <chunk_alloc+0x326>
  1019c3:	c1 f9 02             	sar    $0x2,%ecx
  1019c6:	bf 01 00 00 00       	mov    $0x1,%edi
  1019cb:	d3 e7                	shl    %cl,%edi
  1019cd:	8b 4d 08             	mov    0x8(%ebp),%ecx
  1019d0:	8b 49 04             	mov    0x4(%ecx),%ecx
  1019d3:	39 cf                	cmp    %ecx,%edi
  1019d5:	89 4d e0             	mov    %ecx,0xffffffe0(%ebp)
  1019d8:	89 ca                	mov    %ecx,%edx
  1019da:	0f 87 a4 00 00 00    	ja     101a84 <chunk_alloc+0x1c4>
  1019e0:	85 cf                	test   %ecx,%edi
  1019e2:	75 1c                	jne    101a00 <chunk_alloc+0x140>
  1019e4:	8b 45 f0             	mov    0xfffffff0(%ebp),%eax
  1019e7:	01 ff                	add    %edi,%edi
  1019e9:	83 e0 fc             	and    $0xfffffffc,%eax
  1019ec:	83 c0 04             	add    $0x4,%eax
  1019ef:	85 cf                	test   %ecx,%edi
  1019f1:	89 45 f0             	mov    %eax,0xfffffff0(%ebp)
  1019f4:	75 0a                	jne    101a00 <chunk_alloc+0x140>
  1019f6:	83 45 f0 04          	addl   $0x4,0xfffffff0(%ebp)
  1019fa:	01 ff                	add    %edi,%edi
  1019fc:	85 fa                	test   %edi,%edx
  1019fe:	74 f6                	je     1019f6 <chunk_alloc+0x136>
  101a00:	8b 5d f0             	mov    0xfffffff0(%ebp),%ebx
  101a03:	8b 45 08             	mov    0x8(%ebp),%eax
  101a06:	89 5d ec             	mov    %ebx,0xffffffec(%ebp)
  101a09:	8d 34 d8             	lea    (%eax,%ebx,8),%esi
  101a0c:	89 f0                	mov    %esi,%eax
  101a0e:	8b 58 0c             	mov    0xc(%eax),%ebx
  101a11:	39 c3                	cmp    %eax,%ebx
  101a13:	74 2e                	je     101a43 <chunk_alloc+0x183>
  101a15:	8d 74 26 00          	lea    0x0(%esi),%esi
  101a19:	8d bc 27 00 00 00 00 	lea    0x0(%edi),%edi
  101a20:	8b 53 04             	mov    0x4(%ebx),%edx
  101a23:	83 e2 fc             	and    $0xfffffffc,%edx
  101a26:	89 d1                	mov    %edx,%ecx
  101a28:	2b 4d 0c             	sub    0xc(%ebp),%ecx
  101a2b:	83 f9 0f             	cmp    $0xf,%ecx
  101a2e:	0f 8f 95 01 00 00    	jg     101bc9 <chunk_alloc+0x309>
  101a34:	85 c9                	test   %ecx,%ecx
  101a36:	0f 89 77 01 00 00    	jns    101bb3 <chunk_alloc+0x2f3>
  101a3c:	8b 5b 0c             	mov    0xc(%ebx),%ebx
  101a3f:	39 c3                	cmp    %eax,%ebx
  101a41:	75 dd                	jne    101a20 <chunk_alloc+0x160>
  101a43:	ff 45 f0             	incl   0xfffffff0(%ebp)
  101a46:	83 c0 08             	add    $0x8,%eax
  101a49:	f6 45 f0 03          	testb  $0x3,0xfffffff0(%ebp)
  101a4d:	75 bf                	jne    101a0e <chunk_alloc+0x14e>
  101a4f:	f6 45 ec 03          	testb  $0x3,0xffffffec(%ebp)
  101a53:	0f 84 43 01 00 00    	je     101b9c <chunk_alloc+0x2dc>
  101a59:	ff 4d ec             	decl   0xffffffec(%ebp)
  101a5c:	83 ee 08             	sub    $0x8,%esi
  101a5f:	39 76 08             	cmp    %esi,0x8(%esi)
  101a62:	74 eb                	je     101a4f <chunk_alloc+0x18f>
  101a64:	01 ff                	add    %edi,%edi
  101a66:	3b 7d e0             	cmp    0xffffffe0(%ebp),%edi
  101a69:	77 19                	ja     101a84 <chunk_alloc+0x1c4>
  101a6b:	85 ff                	test   %edi,%edi
  101a6d:	74 15                	je     101a84 <chunk_alloc+0x1c4>
  101a6f:	85 7d e0             	test   %edi,0xffffffe0(%ebp)
  101a72:	75 8c                	jne    101a00 <chunk_alloc+0x140>
  101a74:	83 45 f0 04          	addl   $0x4,0xfffffff0(%ebp)
  101a78:	01 ff                	add    %edi,%edi
  101a7a:	85 7d e0             	test   %edi,0xffffffe0(%ebp)
  101a7d:	74 f5                	je     101a74 <chunk_alloc+0x1b4>
  101a7f:	e9 7c ff ff ff       	jmp    101a00 <chunk_alloc+0x140>
  101a84:	8b 4d 08             	mov    0x8(%ebp),%ecx
  101a87:	8b 5d 0c             	mov    0xc(%ebp),%ebx
  101a8a:	8b 51 08             	mov    0x8(%ecx),%edx
  101a8d:	8b 4a 04             	mov    0x4(%edx),%ecx
  101a90:	83 e1 fc             	and    $0xfffffffc,%ecx
  101a93:	29 d9                	sub    %ebx,%ecx
  101a95:	83 f9 0f             	cmp    $0xf,%ecx
  101a98:	7f 4d                	jg     101ae7 <chunk_alloc+0x227>
  101a9a:	8b 5d 0c             	mov    0xc(%ebp),%ebx
  101a9d:	3b 1d c0 86 10 00    	cmp    0x1086c0,%ebx
  101aa3:	72 17                	jb     101abc <chunk_alloc+0x1fc>
  101aa5:	a1 bc 86 10 00       	mov    0x1086bc,%eax
  101aaa:	39 05 68 92 10 00    	cmp    %eax,0x109268
  101ab0:	72 57                	jb     101b09 <chunk_alloc+0x249>
  101ab2:	31 c0                	xor    %eax,%eax
  101ab4:	85 c0                	test   %eax,%eax
  101ab6:	0f 85 49 fe ff ff    	jne    101905 <chunk_alloc+0x45>
  101abc:	8b 75 0c             	mov    0xc(%ebp),%esi
  101abf:	8b 45 08             	mov    0x8(%ebp),%eax
  101ac2:	89 74 24 04          	mov    %esi,0x4(%esp)
  101ac6:	89 04 24             	mov    %eax,(%esp)
  101ac9:	e8 22 1a 00 00       	call   1034f0 <malloc_extend_top>
  101ace:	8b 4d 08             	mov    0x8(%ebp),%ecx
  101ad1:	31 c0                	xor    %eax,%eax
  101ad3:	8b 51 08             	mov    0x8(%ecx),%edx
  101ad6:	8b 4a 04             	mov    0x4(%edx),%ecx
  101ad9:	83 e1 fc             	and    $0xfffffffc,%ecx
  101adc:	29 f1                	sub    %esi,%ecx
  101ade:	83 f9 0f             	cmp    $0xf,%ecx
  101ae1:	0f 8e 1e fe ff ff    	jle    101905 <chunk_alloc+0x45>
  101ae7:	8b 45 0c             	mov    0xc(%ebp),%eax
  101aea:	83 c9 01             	or     $0x1,%ecx
  101aed:	8b 5d 0c             	mov    0xc(%ebp),%ebx
  101af0:	8b 75 08             	mov    0x8(%ebp),%esi
  101af3:	83 c8 01             	or     $0x1,%eax
  101af6:	89 42 04             	mov    %eax,0x4(%edx)
  101af9:	8d 04 13             	lea    (%ebx,%edx,1),%eax
  101afc:	89 46 08             	mov    %eax,0x8(%esi)
  101aff:	89 48 04             	mov    %ecx,0x4(%eax)
  101b02:	89 d0                	mov    %edx,%eax
  101b04:	e9 fc fd ff ff       	jmp    101905 <chunk_alloc+0x45>
  101b09:	c7 04 24 00 00 00 00 	movl   $0x0,(%esp)
  101b10:	8b 5d 0c             	mov    0xc(%ebp),%ebx
  101b13:	b8 28 00 00 00       	mov    $0x28,%eax
  101b18:	89 44 24 0c          	mov    %eax,0xc(%esp)
  101b1c:	31 c9                	xor    %ecx,%ecx
  101b1e:	ba ff ff ff ff       	mov    $0xffffffff,%edx
  101b23:	89 54 24 10          	mov    %edx,0x10(%esp)
  101b27:	b8 03 00 00 00       	mov    $0x3,%eax
  101b2c:	81 c3 03 10 00 00    	add    $0x1003,%ebx
  101b32:	89 4c 24 14          	mov    %ecx,0x14(%esp)
  101b36:	81 e3 00 f0 ff ff    	and    $0xfffff000,%ebx
  101b3c:	89 44 24 08          	mov    %eax,0x8(%esp)
  101b40:	89 5c 24 04          	mov    %ebx,0x4(%esp)
  101b44:	e8 27 1d 00 00       	call   103870 <mmap>
  101b49:	89 c2                	mov    %eax,%edx
  101b4b:	31 c0                	xor    %eax,%eax
  101b4d:	83 fa ff             	cmp    $0xffffffff,%edx
  101b50:	0f 84 5e ff ff ff    	je     101ab4 <chunk_alloc+0x1f4>
  101b56:	a1 68 92 10 00       	mov    0x109268,%eax
  101b5b:	40                   	inc    %eax
  101b5c:	3b 05 6c 92 10 00    	cmp    0x10926c,%eax
  101b62:	a3 68 92 10 00       	mov    %eax,0x109268
  101b67:	76 05                	jbe    101b6e <chunk_alloc+0x2ae>
  101b69:	a3 6c 92 10 00       	mov    %eax,0x10926c
  101b6e:	c7 02 00 00 00 00    	movl   $0x0,(%edx)
  101b74:	89 d8                	mov    %ebx,%eax
  101b76:	83 c8 02             	or     $0x2,%eax
  101b79:	89 42 04             	mov    %eax,0x4(%edx)
  101b7c:	a1 70 92 10 00       	mov    0x109270,%eax
  101b81:	01 d8                	add    %ebx,%eax
  101b83:	3b 05 74 92 10 00    	cmp    0x109274,%eax
  101b89:	a3 70 92 10 00       	mov    %eax,0x109270
  101b8e:	76 05                	jbe    101b95 <chunk_alloc+0x2d5>
  101b90:	a3 74 92 10 00       	mov    %eax,0x109274
  101b95:	89 d0                	mov    %edx,%eax
  101b97:	e9 18 ff ff ff       	jmp    101ab4 <chunk_alloc+0x1f4>
  101b9c:	8b 75 e0             	mov    0xffffffe0(%ebp),%esi
  101b9f:	89 f8                	mov    %edi,%eax
  101ba1:	8b 55 08             	mov    0x8(%ebp),%edx
  101ba4:	f7 d0                	not    %eax
  101ba6:	21 f0                	and    %esi,%eax
  101ba8:	89 42 04             	mov    %eax,0x4(%edx)
  101bab:	89 45 e0             	mov    %eax,0xffffffe0(%ebp)
  101bae:	e9 b1 fe ff ff       	jmp    101a64 <chunk_alloc+0x1a4>
  101bb3:	83 4c 1a 04 01       	orl    $0x1,0x4(%edx,%ebx,1)
  101bb8:	8b 73 0c             	mov    0xc(%ebx),%esi
  101bbb:	8b 7b 08             	mov    0x8(%ebx),%edi
  101bbe:	89 77 0c             	mov    %esi,0xc(%edi)
  101bc1:	89 7e 08             	mov    %edi,0x8(%esi)
  101bc4:	e9 3a fd ff ff       	jmp    101903 <chunk_alloc+0x43>
  101bc9:	8b 75 0c             	mov    0xc(%ebp),%esi
  101bcc:	8b 7b 08             	mov    0x8(%ebx),%edi
  101bcf:	8d 14 1e             	lea    (%esi,%ebx,1),%edx
  101bd2:	83 ce 01             	or     $0x1,%esi
  101bd5:	89 73 04             	mov    %esi,0x4(%ebx)
  101bd8:	8b 73 0c             	mov    0xc(%ebx),%esi
  101bdb:	89 77 0c             	mov    %esi,0xc(%edi)
  101bde:	89 7e 08             	mov    %edi,0x8(%esi)
  101be1:	e9 6c fd ff ff       	jmp    101952 <chunk_alloc+0x92>
  101be6:	83 c1 03             	add    $0x3,%ecx
  101be9:	e9 d5 fd ff ff       	jmp    1019c3 <chunk_alloc+0x103>
  101bee:	89 d0                	mov    %edx,%eax
  101bf0:	c1 e8 09             	shr    $0x9,%eax
  101bf3:	75 4e                	jne    101c43 <chunk_alloc+0x383>
  101bf5:	89 d1                	mov    %edx,%ecx
  101bf7:	c1 e9 03             	shr    $0x3,%ecx
  101bfa:	8b 75 08             	mov    0x8(%ebp),%esi
  101bfd:	8d 34 ce             	lea    (%esi,%ecx,8),%esi
  101c00:	8b 7e 08             	mov    0x8(%esi),%edi
  101c03:	89 75 e4             	mov    %esi,0xffffffe4(%ebp)
  101c06:	39 f7                	cmp    %esi,%edi
  101c08:	74 24                	je     101c2e <chunk_alloc+0x36e>
  101c0a:	8b 47 04             	mov    0x4(%edi),%eax
  101c0d:	83 e0 fc             	and    $0xfffffffc,%eax
  101c10:	39 c2                	cmp    %eax,%edx
  101c12:	73 12                	jae    101c26 <chunk_alloc+0x366>
  101c14:	8b 7f 08             	mov    0x8(%edi),%edi
  101c17:	3b 7d e4             	cmp    0xffffffe4(%ebp),%edi
  101c1a:	74 0a                	je     101c26 <chunk_alloc+0x366>
  101c1c:	8b 47 04             	mov    0x4(%edi),%eax
  101c1f:	83 e0 fc             	and    $0xfffffffc,%eax
  101c22:	39 c2                	cmp    %eax,%edx
  101c24:	72 ee                	jb     101c14 <chunk_alloc+0x354>
  101c26:	8b 77 0c             	mov    0xc(%edi),%esi
  101c29:	e9 7e fd ff ff       	jmp    1019ac <chunk_alloc+0xec>
  101c2e:	8b 55 08             	mov    0x8(%ebp),%edx
  101c31:	c1 f9 02             	sar    $0x2,%ecx
  101c34:	b8 01 00 00 00       	mov    $0x1,%eax
  101c39:	d3 e0                	shl    %cl,%eax
  101c3b:	09 42 04             	or     %eax,0x4(%edx)
  101c3e:	e9 69 fd ff ff       	jmp    1019ac <chunk_alloc+0xec>
  101c43:	83 f8 04             	cmp    $0x4,%eax
  101c46:	77 0a                	ja     101c52 <chunk_alloc+0x392>
  101c48:	89 d0                	mov    %edx,%eax
  101c4a:	c1 e8 06             	shr    $0x6,%eax
  101c4d:	8d 48 38             	lea    0x38(%eax),%ecx
  101c50:	eb a8                	jmp    101bfa <chunk_alloc+0x33a>
  101c52:	83 f8 14             	cmp    $0x14,%eax
  101c55:	8d 48 5b             	lea    0x5b(%eax),%ecx
  101c58:	76 a0                	jbe    101bfa <chunk_alloc+0x33a>
  101c5a:	83 f8 54             	cmp    $0x54,%eax
  101c5d:	77 0a                	ja     101c69 <chunk_alloc+0x3a9>
  101c5f:	89 d0                	mov    %edx,%eax
  101c61:	c1 e8 0c             	shr    $0xc,%eax
  101c64:	8d 48 6e             	lea    0x6e(%eax),%ecx
  101c67:	eb 91                	jmp    101bfa <chunk_alloc+0x33a>
  101c69:	3d 54 01 00 00       	cmp    $0x154,%eax
  101c6e:	77 0a                	ja     101c7a <chunk_alloc+0x3ba>
  101c70:	89 d0                	mov    %edx,%eax
  101c72:	c1 e8 0f             	shr    $0xf,%eax
  101c75:	8d 48 77             	lea    0x77(%eax),%ecx
  101c78:	eb 80                	jmp    101bfa <chunk_alloc+0x33a>
  101c7a:	3d 54 05 00 00       	cmp    $0x554,%eax
  101c7f:	b9 7e 00 00 00       	mov    $0x7e,%ecx
  101c84:	0f 87 70 ff ff ff    	ja     101bfa <chunk_alloc+0x33a>
  101c8a:	89 d0                	mov    %edx,%eax
  101c8c:	c1 e8 12             	shr    $0x12,%eax
  101c8f:	8d 48 7c             	lea    0x7c(%eax),%ecx
  101c92:	e9 63 ff ff ff       	jmp    101bfa <chunk_alloc+0x33a>
  101c97:	8b 45 0c             	mov    0xc(%ebp),%eax
  101c9a:	c1 e8 09             	shr    $0x9,%eax
  101c9d:	75 4f                	jne    101cee <chunk_alloc+0x42e>
  101c9f:	8b 4d 0c             	mov    0xc(%ebp),%ecx
  101ca2:	c1 e9 03             	shr    $0x3,%ecx
  101ca5:	89 4d f0             	mov    %ecx,0xfffffff0(%ebp)
  101ca8:	8b 5d f0             	mov    0xfffffff0(%ebp),%ebx
  101cab:	8b 75 08             	mov    0x8(%ebp),%esi
  101cae:	8d 04 de             	lea    (%esi,%ebx,8),%eax
  101cb1:	8b 58 0c             	mov    0xc(%eax),%ebx
  101cb4:	39 c3                	cmp    %eax,%ebx
  101cb6:	74 29                	je     101ce1 <chunk_alloc+0x421>
  101cb8:	90                   	nop    
  101cb9:	8d b4 26 00 00 00 00 	lea    0x0(%esi),%esi
  101cc0:	8b 53 04             	mov    0x4(%ebx),%edx
  101cc3:	8b 75 0c             	mov    0xc(%ebp),%esi
  101cc6:	83 e2 fc             	and    $0xfffffffc,%edx
  101cc9:	89 d1                	mov    %edx,%ecx
  101ccb:	29 f1                	sub    %esi,%ecx
  101ccd:	83 f9 0f             	cmp    $0xf,%ecx
  101cd0:	7f 17                	jg     101ce9 <chunk_alloc+0x429>
  101cd2:	85 c9                	test   %ecx,%ecx
  101cd4:	0f 89 18 fc ff ff    	jns    1018f2 <chunk_alloc+0x32>
  101cda:	8b 5b 0c             	mov    0xc(%ebx),%ebx
  101cdd:	39 c3                	cmp    %eax,%ebx
  101cdf:	75 df                	jne    101cc0 <chunk_alloc+0x400>
  101ce1:	ff 45 f0             	incl   0xfffffff0(%ebp)
  101ce4:	e9 37 fc ff ff       	jmp    101920 <chunk_alloc+0x60>
  101ce9:	ff 4d f0             	decl   0xfffffff0(%ebp)
  101cec:	eb f3                	jmp    101ce1 <chunk_alloc+0x421>
  101cee:	83 f8 04             	cmp    $0x4,%eax
  101cf1:	77 0e                	ja     101d01 <chunk_alloc+0x441>
  101cf3:	8b 45 0c             	mov    0xc(%ebp),%eax
  101cf6:	c1 e8 06             	shr    $0x6,%eax
  101cf9:	83 c0 38             	add    $0x38,%eax
  101cfc:	89 45 f0             	mov    %eax,0xfffffff0(%ebp)
  101cff:	eb a7                	jmp    101ca8 <chunk_alloc+0x3e8>
  101d01:	83 f8 14             	cmp    $0x14,%eax
  101d04:	77 05                	ja     101d0b <chunk_alloc+0x44b>
  101d06:	83 c0 5b             	add    $0x5b,%eax
  101d09:	eb f1                	jmp    101cfc <chunk_alloc+0x43c>
  101d0b:	83 f8 54             	cmp    $0x54,%eax
  101d0e:	77 0b                	ja     101d1b <chunk_alloc+0x45b>
  101d10:	8b 45 0c             	mov    0xc(%ebp),%eax
  101d13:	c1 e8 0c             	shr    $0xc,%eax
  101d16:	83 c0 6e             	add    $0x6e,%eax
  101d19:	eb e1                	jmp    101cfc <chunk_alloc+0x43c>
  101d1b:	3d 54 01 00 00       	cmp    $0x154,%eax
  101d20:	77 0b                	ja     101d2d <chunk_alloc+0x46d>
  101d22:	8b 45 0c             	mov    0xc(%ebp),%eax
  101d25:	c1 e8 0f             	shr    $0xf,%eax
  101d28:	83 c0 77             	add    $0x77,%eax
  101d2b:	eb cf                	jmp    101cfc <chunk_alloc+0x43c>
  101d2d:	c7 45 f0 7e 00 00 00 	movl   $0x7e,0xfffffff0(%ebp)
  101d34:	3d 54 05 00 00       	cmp    $0x554,%eax
  101d39:	0f 87 69 ff ff ff    	ja     101ca8 <chunk_alloc+0x3e8>
  101d3f:	8b 45 0c             	mov    0xc(%ebp),%eax
  101d42:	c1 e8 12             	shr    $0x12,%eax
  101d45:	83 c0 7c             	add    $0x7c,%eax
  101d48:	eb b2                	jmp    101cfc <chunk_alloc+0x43c>
  101d4a:	8d b6 00 00 00 00    	lea    0x0(%esi),%esi

00101d50 <free>:
  101d50:	55                   	push   %ebp
  101d51:	89 e5                	mov    %esp,%ebp
  101d53:	83 ec 18             	sub    $0x18,%esp
  101d56:	89 5d f4             	mov    %ebx,0xfffffff4(%ebp)
  101d59:	8b 45 08             	mov    0x8(%ebp),%eax
  101d5c:	89 75 f8             	mov    %esi,0xfffffff8(%ebp)
  101d5f:	89 7d fc             	mov    %edi,0xfffffffc(%ebp)
  101d62:	85 c0                	test   %eax,%eax
  101d64:	74 6e                	je     101dd4 <free+0x84>
  101d66:	8d 70 f8             	lea    0xfffffff8(%eax),%esi
  101d69:	f6 46 04 02          	testb  $0x2,0x4(%esi)
  101d6d:	75 51                	jne    101dc0 <free+0x70>
  101d6f:	3b 35 88 82 10 00    	cmp    0x108288,%esi
  101d75:	73 08                	jae    101d7f <free+0x2f>
  101d77:	3b 35 c8 86 10 00    	cmp    0x1086c8,%esi
  101d7d:	73 37                	jae    101db6 <free+0x66>
  101d7f:	89 f0                	mov    %esi,%eax
  101d81:	25 00 00 f0 ff       	and    $0xfff00000,%eax
  101d86:	8b 38                	mov    (%eax),%edi
  101d88:	8d 9f 10 04 00 00    	lea    0x410(%edi),%ebx
  101d8e:	89 1c 24             	mov    %ebx,(%esp)
  101d91:	e8 9a 2e 00 00       	call   104c30 <pthread_mutex_lock>
  101d96:	89 74 24 04          	mov    %esi,0x4(%esp)
  101d9a:	89 3c 24             	mov    %edi,(%esp)
  101d9d:	e8 4e 00 00 00       	call   101df0 <chunk_free>
  101da2:	89 5d 08             	mov    %ebx,0x8(%ebp)
  101da5:	8b 75 f8             	mov    0xfffffff8(%ebp),%esi
  101da8:	8b 5d f4             	mov    0xfffffff4(%ebp),%ebx
  101dab:	8b 7d fc             	mov    0xfffffffc(%ebp),%edi
  101dae:	89 ec                	mov    %ebp,%esp
  101db0:	5d                   	pop    %ebp
  101db1:	e9 ba 2e 00 00       	jmp    104c70 <pthread_mutex_unlock>
  101db6:	bf 80 82 10 00       	mov    $0x108280,%edi
  101dbb:	eb cb                	jmp    101d88 <free+0x38>
  101dbd:	8d 76 00             	lea    0x0(%esi),%esi
  101dc0:	89 75 08             	mov    %esi,0x8(%ebp)
  101dc3:	8b 5d f4             	mov    0xfffffff4(%ebp),%ebx
  101dc6:	8b 75 f8             	mov    0xfffffff8(%ebp),%esi
  101dc9:	8b 7d fc             	mov    0xfffffffc(%ebp),%edi
  101dcc:	89 ec                	mov    %ebp,%esp
  101dce:	5d                   	pop    %ebp
  101dcf:	e9 ec f5 ff ff       	jmp    1013c0 <munmap_chunk>
  101dd4:	8b 5d f4             	mov    0xfffffff4(%ebp),%ebx
  101dd7:	8b 75 f8             	mov    0xfffffff8(%ebp),%esi
  101dda:	8b 7d fc             	mov    0xfffffffc(%ebp),%edi
  101ddd:	89 ec                	mov    %ebp,%esp
  101ddf:	5d                   	pop    %ebp
  101de0:	c3                   	ret    
  101de1:	eb 0d                	jmp    101df0 <chunk_free>
  101de3:	90                   	nop    
  101de4:	90                   	nop    
  101de5:	90                   	nop    
  101de6:	90                   	nop    
  101de7:	90                   	nop    
  101de8:	90                   	nop    
  101de9:	90                   	nop    
  101dea:	90                   	nop    
  101deb:	90                   	nop    
  101dec:	90                   	nop    
  101ded:	90                   	nop    
  101dee:	90                   	nop    
  101def:	90                   	nop    

00101df0 <chunk_free>:
  101df0:	55                   	push   %ebp
  101df1:	89 e5                	mov    %esp,%ebp
  101df3:	57                   	push   %edi
  101df4:	56                   	push   %esi
  101df5:	53                   	push   %ebx
  101df6:	83 ec 10             	sub    $0x10,%esp
  101df9:	8b 45 08             	mov    0x8(%ebp),%eax
  101dfc:	8b 75 0c             	mov    0xc(%ebp),%esi
  101dff:	89 45 f0             	mov    %eax,0xfffffff0(%ebp)
  101e02:	8b 46 04             	mov    0x4(%esi),%eax
  101e05:	8b 5d f0             	mov    0xfffffff0(%ebp),%ebx
  101e08:	89 c7                	mov    %eax,%edi
  101e0a:	83 e7 fe             	and    $0xfffffffe,%edi
  101e0d:	8d 14 37             	lea    (%edi,%esi,1),%edx
  101e10:	89 55 ec             	mov    %edx,0xffffffec(%ebp)
  101e13:	8b 4a 04             	mov    0x4(%edx),%ecx
  101e16:	83 e1 fc             	and    $0xfffffffc,%ecx
  101e19:	3b 53 08             	cmp    0x8(%ebx),%edx
  101e1c:	0f 84 15 02 00 00    	je     102037 <chunk_free+0x247>
  101e22:	c7 45 e8 00 00 00 00 	movl   $0x0,0xffffffe8(%ebp)
  101e29:	a8 01                	test   $0x1,%al
  101e2b:	75 20                	jne    101e4d <chunk_free+0x5d>
  101e2d:	8b 06                	mov    (%esi),%eax
  101e2f:	29 c6                	sub    %eax,%esi
  101e31:	01 c7                	add    %eax,%edi
  101e33:	8b 45 f0             	mov    0xfffffff0(%ebp),%eax
  101e36:	8b 56 08             	mov    0x8(%esi),%edx
  101e39:	83 c0 08             	add    $0x8,%eax
  101e3c:	39 c2                	cmp    %eax,%edx
  101e3e:	0f 84 e7 01 00 00    	je     10202b <chunk_free+0x23b>
  101e44:	8b 5e 0c             	mov    0xc(%esi),%ebx
  101e47:	89 5a 0c             	mov    %ebx,0xc(%edx)
  101e4a:	89 53 08             	mov    %edx,0x8(%ebx)
  101e4d:	8b 55 ec             	mov    0xffffffec(%ebp),%edx
  101e50:	f6 44 11 04 01       	testb  $0x1,0x4(%ecx,%edx,1)
  101e55:	0f 85 c5 01 00 00    	jne    102020 <chunk_free+0x230>
  101e5b:	8b 45 e8             	mov    0xffffffe8(%ebp),%eax
  101e5e:	01 cf                	add    %ecx,%edi
  101e60:	85 c0                	test   %eax,%eax
  101e62:	0f 85 aa 01 00 00    	jne    102012 <chunk_free+0x222>
  101e68:	8b 45 f0             	mov    0xfffffff0(%ebp),%eax
  101e6b:	8b 52 08             	mov    0x8(%edx),%edx
  101e6e:	83 c0 08             	add    $0x8,%eax
  101e71:	39 c2                	cmp    %eax,%edx
  101e73:	0f 84 7e 01 00 00    	je     101ff7 <chunk_free+0x207>
  101e79:	8b 4d ec             	mov    0xffffffec(%ebp),%ecx
  101e7c:	8b 59 0c             	mov    0xc(%ecx),%ebx
  101e7f:	89 5a 0c             	mov    %ebx,0xc(%edx)
  101e82:	89 53 08             	mov    %edx,0x8(%ebx)
  101e85:	8d 1c 37             	lea    (%edi,%esi,1),%ebx
  101e88:	89 5d ec             	mov    %ebx,0xffffffec(%ebp)
  101e8b:	89 f8                	mov    %edi,%eax
  101e8d:	8b 55 ec             	mov    0xffffffec(%ebp),%edx
  101e90:	83 c8 01             	or     $0x1,%eax
  101e93:	89 46 04             	mov    %eax,0x4(%esi)
  101e96:	8b 45 e8             	mov    0xffffffe8(%ebp),%eax
  101e99:	89 3a                	mov    %edi,(%edx)
  101e9b:	85 c0                	test   %eax,%eax
  101e9d:	75 35                	jne    101ed4 <chunk_free+0xe4>
  101e9f:	81 ff ff 01 00 00    	cmp    $0x1ff,%edi
  101ea5:	0f 87 95 00 00 00    	ja     101f40 <chunk_free+0x150>
  101eab:	89 f9                	mov    %edi,%ecx
  101ead:	b8 01 00 00 00       	mov    $0x1,%eax
  101eb2:	c1 e9 03             	shr    $0x3,%ecx
  101eb5:	89 ca                	mov    %ecx,%edx
  101eb7:	c1 f9 02             	sar    $0x2,%ecx
  101eba:	d3 e0                	shl    %cl,%eax
  101ebc:	8b 4d f0             	mov    0xfffffff0(%ebp),%ecx
  101ebf:	8d 1c d1             	lea    (%ecx,%edx,8),%ebx
  101ec2:	8b 53 08             	mov    0x8(%ebx),%edx
  101ec5:	09 41 04             	or     %eax,0x4(%ecx)
  101ec8:	89 5e 0c             	mov    %ebx,0xc(%esi)
  101ecb:	89 56 08             	mov    %edx,0x8(%esi)
  101ece:	89 72 0c             	mov    %esi,0xc(%edx)
  101ed1:	89 73 08             	mov    %esi,0x8(%ebx)
  101ed4:	8b 5d ec             	mov    0xffffffec(%ebp),%ebx
  101ed7:	83 7b 04 0f          	cmpl   $0xf,0x4(%ebx)
  101edb:	77 33                	ja     101f10 <chunk_free+0x120>
  101edd:	3b 3d b8 86 10 00    	cmp    0x1086b8,%edi
  101ee3:	76 2b                	jbe    101f10 <chunk_free+0x120>
  101ee5:	81 7d f0 80 82 10 00 	cmpl   $0x108280,0xfffffff0(%ebp)
  101eec:	74 22                	je     101f10 <chunk_free+0x120>
  101eee:	8b 45 f0             	mov    0xfffffff0(%ebp),%eax
  101ef1:	8b 50 08             	mov    0x8(%eax),%edx
  101ef4:	89 d1                	mov    %edx,%ecx
  101ef6:	81 e1 00 00 f0 ff    	and    $0xfff00000,%ecx
  101efc:	8d 41 10             	lea    0x10(%ecx),%eax
  101eff:	39 c2                	cmp    %eax,%edx
  101f01:	74 15                	je     101f18 <chunk_free+0x128>
  101f03:	8d b6 00 00 00 00    	lea    0x0(%esi),%esi
  101f09:	8d bc 27 00 00 00 00 	lea    0x0(%edi),%edi
  101f10:	83 c4 10             	add    $0x10,%esp
  101f13:	5b                   	pop    %ebx
  101f14:	5e                   	pop    %esi
  101f15:	5f                   	pop    %edi
  101f16:	5d                   	pop    %ebp
  101f17:	c3                   	ret    
  101f18:	81 e6 00 00 f0 ff    	and    $0xfff00000,%esi
  101f1e:	39 71 04             	cmp    %esi,0x4(%ecx)
  101f21:	75 ed                	jne    101f10 <chunk_free+0x120>
  101f23:	a1 60 92 10 00       	mov    0x109260,%eax
  101f28:	89 4d 08             	mov    %ecx,0x8(%ebp)
  101f2b:	90                   	nop    
  101f2c:	8d 74 26 00          	lea    0x0(%esi),%esi
  101f30:	89 45 0c             	mov    %eax,0xc(%ebp)
  101f33:	83 c4 10             	add    $0x10,%esp
  101f36:	5b                   	pop    %ebx
  101f37:	5e                   	pop    %esi
  101f38:	5f                   	pop    %edi
  101f39:	5d                   	pop    %ebp
  101f3a:	e9 81 0e 00 00       	jmp    102dc0 <heap_trim>
  101f3f:	90                   	nop    
  101f40:	89 f8                	mov    %edi,%eax
  101f42:	c1 e8 09             	shr    $0x9,%eax
  101f45:	75 59                	jne    101fa0 <chunk_free+0x1b0>
  101f47:	89 f9                	mov    %edi,%ecx
  101f49:	c1 e9 03             	shr    $0x3,%ecx
  101f4c:	8b 5d f0             	mov    0xfffffff0(%ebp),%ebx
  101f4f:	8d 1c cb             	lea    (%ebx,%ecx,8),%ebx
  101f52:	8b 53 08             	mov    0x8(%ebx),%edx
  101f55:	89 5d e4             	mov    %ebx,0xffffffe4(%ebp)
  101f58:	39 da                	cmp    %ebx,%edx
  101f5a:	74 2e                	je     101f8a <chunk_free+0x19a>
  101f5c:	8b 42 04             	mov    0x4(%edx),%eax
  101f5f:	83 e0 fc             	and    $0xfffffffc,%eax
  101f62:	39 c7                	cmp    %eax,%edi
  101f64:	73 1c                	jae    101f82 <chunk_free+0x192>
  101f66:	8d 76 00             	lea    0x0(%esi),%esi
  101f69:	8d bc 27 00 00 00 00 	lea    0x0(%edi),%edi
  101f70:	8b 52 08             	mov    0x8(%edx),%edx
  101f73:	3b 55 e4             	cmp    0xffffffe4(%ebp),%edx
  101f76:	74 0a                	je     101f82 <chunk_free+0x192>
  101f78:	8b 42 04             	mov    0x4(%edx),%eax
  101f7b:	83 e0 fc             	and    $0xfffffffc,%eax
  101f7e:	39 c7                	cmp    %eax,%edi
  101f80:	72 ee                	jb     101f70 <chunk_free+0x180>
  101f82:	8b 5a 0c             	mov    0xc(%edx),%ebx
  101f85:	e9 3e ff ff ff       	jmp    101ec8 <chunk_free+0xd8>
  101f8a:	c1 f9 02             	sar    $0x2,%ecx
  101f8d:	b8 01 00 00 00       	mov    $0x1,%eax
  101f92:	d3 e0                	shl    %cl,%eax
  101f94:	8b 4d f0             	mov    0xfffffff0(%ebp),%ecx
  101f97:	e9 29 ff ff ff       	jmp    101ec5 <chunk_free+0xd5>
  101f9c:	8d 74 26 00          	lea    0x0(%esi),%esi
  101fa0:	83 f8 04             	cmp    $0x4,%eax
  101fa3:	77 0a                	ja     101faf <chunk_free+0x1bf>
  101fa5:	89 f8                	mov    %edi,%eax
  101fa7:	c1 e8 06             	shr    $0x6,%eax
  101faa:	8d 48 38             	lea    0x38(%eax),%ecx
  101fad:	eb 9d                	jmp    101f4c <chunk_free+0x15c>
  101faf:	83 f8 14             	cmp    $0x14,%eax
  101fb2:	8d 48 5b             	lea    0x5b(%eax),%ecx
  101fb5:	76 95                	jbe    101f4c <chunk_free+0x15c>
  101fb7:	83 f8 54             	cmp    $0x54,%eax
  101fba:	77 0a                	ja     101fc6 <chunk_free+0x1d6>
  101fbc:	89 f8                	mov    %edi,%eax
  101fbe:	c1 e8 0c             	shr    $0xc,%eax
  101fc1:	8d 48 6e             	lea    0x6e(%eax),%ecx
  101fc4:	eb 86                	jmp    101f4c <chunk_free+0x15c>
  101fc6:	3d 54 01 00 00       	cmp    $0x154,%eax
  101fcb:	77 0d                	ja     101fda <chunk_free+0x1ea>
  101fcd:	89 f8                	mov    %edi,%eax
  101fcf:	c1 e8 0f             	shr    $0xf,%eax
  101fd2:	8d 48 77             	lea    0x77(%eax),%ecx
  101fd5:	e9 72 ff ff ff       	jmp    101f4c <chunk_free+0x15c>
  101fda:	3d 54 05 00 00       	cmp    $0x554,%eax
  101fdf:	b9 7e 00 00 00       	mov    $0x7e,%ecx
  101fe4:	0f 87 62 ff ff ff    	ja     101f4c <chunk_free+0x15c>
  101fea:	89 f8                	mov    %edi,%eax
  101fec:	c1 e8 12             	shr    $0x12,%eax
  101fef:	8d 48 7c             	lea    0x7c(%eax),%ecx
  101ff2:	e9 55 ff ff ff       	jmp    101f4c <chunk_free+0x15c>
  101ff7:	c7 45 e8 01 00 00 00 	movl   $0x1,0xffffffe8(%ebp)
  101ffe:	8b 5d f0             	mov    0xfffffff0(%ebp),%ebx
  102001:	89 73 14             	mov    %esi,0x14(%ebx)
  102004:	89 73 10             	mov    %esi,0x10(%ebx)
  102007:	89 56 0c             	mov    %edx,0xc(%esi)
  10200a:	89 56 08             	mov    %edx,0x8(%esi)
  10200d:	e9 73 fe ff ff       	jmp    101e85 <chunk_free+0x95>
  102012:	8b 45 ec             	mov    0xffffffec(%ebp),%eax
  102015:	8b 50 08             	mov    0x8(%eax),%edx
  102018:	e9 5c fe ff ff       	jmp    101e79 <chunk_free+0x89>
  10201d:	8d 76 00             	lea    0x0(%esi),%esi
  102020:	8b 45 ec             	mov    0xffffffec(%ebp),%eax
  102023:	89 48 04             	mov    %ecx,0x4(%eax)
  102026:	e9 60 fe ff ff       	jmp    101e8b <chunk_free+0x9b>
  10202b:	c7 45 e8 01 00 00 00 	movl   $0x1,0xffffffe8(%ebp)
  102032:	e9 16 fe ff ff       	jmp    101e4d <chunk_free+0x5d>
  102037:	01 cf                	add    %ecx,%edi
  102039:	a8 01                	test   $0x1,%al
  10203b:	75 12                	jne    10204f <chunk_free+0x25f>
  10203d:	8b 06                	mov    (%esi),%eax
  10203f:	29 c6                	sub    %eax,%esi
  102041:	01 c7                	add    %eax,%edi
  102043:	8b 5e 0c             	mov    0xc(%esi),%ebx
  102046:	8b 56 08             	mov    0x8(%esi),%edx
  102049:	89 5a 0c             	mov    %ebx,0xc(%edx)
  10204c:	89 53 08             	mov    %edx,0x8(%ebx)
  10204f:	89 f8                	mov    %edi,%eax
  102051:	83 c8 01             	or     $0x1,%eax
  102054:	89 46 04             	mov    %eax,0x4(%esi)
  102057:	8b 45 f0             	mov    0xfffffff0(%ebp),%eax
  10205a:	3d 80 82 10 00       	cmp    $0x108280,%eax
  10205f:	89 70 08             	mov    %esi,0x8(%eax)
  102062:	74 28                	je     10208c <chunk_free+0x29c>
  102064:	89 f2                	mov    %esi,%edx
  102066:	81 e2 00 00 f0 ff    	and    $0xfff00000,%edx
  10206c:	3b 3d b8 86 10 00    	cmp    0x1086b8,%edi
  102072:	73 0b                	jae    10207f <chunk_free+0x28f>
  102074:	8d 42 10             	lea    0x10(%edx),%eax
  102077:	39 c6                	cmp    %eax,%esi
  102079:	0f 85 91 fe ff ff    	jne    101f10 <chunk_free+0x120>
  10207f:	a1 60 92 10 00       	mov    0x109260,%eax
  102084:	89 55 08             	mov    %edx,0x8(%ebp)
  102087:	e9 a4 fe ff ff       	jmp    101f30 <chunk_free+0x140>
  10208c:	3b 3d b8 86 10 00    	cmp    0x1086b8,%edi
  102092:	0f 82 78 fe ff ff    	jb     101f10 <chunk_free+0x120>
  102098:	a1 60 92 10 00       	mov    0x109260,%eax
  10209d:	89 45 08             	mov    %eax,0x8(%ebp)
  1020a0:	83 c4 10             	add    $0x10,%esp
  1020a3:	5b                   	pop    %ebx
  1020a4:	5e                   	pop    %esi
  1020a5:	5f                   	pop    %edi
  1020a6:	5d                   	pop    %ebp
  1020a7:	e9 54 0c 00 00       	jmp    102d00 <main_trim>
  1020ac:	8d 74 26 00          	lea    0x0(%esi),%esi

001020b0 <realloc>:
  1020b0:	55                   	push   %ebp
  1020b1:	89 e5                	mov    %esp,%ebp
  1020b3:	83 ec 28             	sub    $0x28,%esp
  1020b6:	89 75 f8             	mov    %esi,0xfffffff8(%ebp)
  1020b9:	8b 55 0c             	mov    0xc(%ebp),%edx
  1020bc:	8b 75 08             	mov    0x8(%ebp),%esi
  1020bf:	89 5d f4             	mov    %ebx,0xfffffff4(%ebp)
  1020c2:	85 d2                	test   %edx,%edx
  1020c4:	89 7d fc             	mov    %edi,0xfffffffc(%ebp)
  1020c7:	75 38                	jne    102101 <realloc+0x51>
  1020c9:	85 f6                	test   %esi,%esi
  1020cb:	75 14                	jne    1020e1 <realloc+0x31>
  1020cd:	89 55 08             	mov    %edx,0x8(%ebp)
  1020d0:	8b 5d f4             	mov    0xfffffff4(%ebp),%ebx
  1020d3:	8b 75 f8             	mov    0xfffffff8(%ebp),%esi
  1020d6:	8b 7d fc             	mov    0xfffffffc(%ebp),%edi
  1020d9:	89 ec                	mov    %ebp,%esp
  1020db:	5d                   	pop    %ebp
  1020dc:	e9 8f f6 ff ff       	jmp    101770 <malloc>
  1020e1:	89 34 24             	mov    %esi,(%esp)
  1020e4:	e8 67 fc ff ff       	call   101d50 <free>
  1020e9:	8d b4 26 00 00 00 00 	lea    0x0(%esi),%esi
  1020f0:	31 c9                	xor    %ecx,%ecx
  1020f2:	8b 5d f4             	mov    0xfffffff4(%ebp),%ebx
  1020f5:	89 c8                	mov    %ecx,%eax
  1020f7:	8b 75 f8             	mov    0xfffffff8(%ebp),%esi
  1020fa:	8b 7d fc             	mov    0xfffffffc(%ebp),%edi
  1020fd:	89 ec                	mov    %ebp,%esp
  1020ff:	5d                   	pop    %ebp
  102100:	c3                   	ret    
  102101:	85 f6                	test   %esi,%esi
  102103:	74 c8                	je     1020cd <realloc+0x1d>
  102105:	8d 46 f8             	lea    0xfffffff8(%esi),%eax
  102108:	8d 5a 0b             	lea    0xb(%edx),%ebx
  10210b:	89 45 f0             	mov    %eax,0xfffffff0(%ebp)
  10210e:	8b 40 04             	mov    0x4(%eax),%eax
  102111:	89 c1                	mov    %eax,%ecx
  102113:	83 e1 fc             	and    $0xfffffffc,%ecx
  102116:	85 db                	test   %ebx,%ebx
  102118:	89 4d ec             	mov    %ecx,0xffffffec(%ebp)
  10211b:	7e 04                	jle    102121 <realloc+0x71>
  10211d:	39 d3                	cmp    %edx,%ebx
  10211f:	73 0f                	jae    102130 <realloc+0x80>
  102121:	b8 31 00 00 00       	mov    $0x31,%eax
  102126:	a3 9c 96 10 00       	mov    %eax,0x10969c
  10212b:	eb c3                	jmp    1020f0 <realloc+0x40>
  10212d:	8d 76 00             	lea    0x0(%esi),%esi
  102130:	83 fb 16             	cmp    $0x16,%ebx
  102133:	0f 87 32 01 00 00    	ja     10226b <realloc+0x1bb>
  102139:	bb 10 00 00 00       	mov    $0x10,%ebx
  10213e:	a8 02                	test   $0x2,%al
  102140:	0f 84 ac 00 00 00    	je     1021f2 <realloc+0x142>
  102146:	8b 45 ec             	mov    0xffffffec(%ebp),%eax
  102149:	89 f1                	mov    %esi,%ecx
  10214b:	83 e8 04             	sub    $0x4,%eax
  10214e:	39 d8                	cmp    %ebx,%eax
  102150:	73 a0                	jae    1020f2 <realloc+0x42>
  102152:	89 14 24             	mov    %edx,(%esp)
  102155:	e8 16 f6 ff ff       	call   101770 <malloc>
  10215a:	31 c9                	xor    %ecx,%ecx
  10215c:	89 c3                	mov    %eax,%ebx
  10215e:	85 c0                	test   %eax,%eax
  102160:	74 90                	je     1020f2 <realloc+0x42>
  102162:	8b 55 ec             	mov    0xffffffec(%ebp),%edx
  102165:	83 ea 08             	sub    $0x8,%edx
  102168:	83 fa 24             	cmp    $0x24,%edx
  10216b:	77 6d                	ja     1021da <realloc+0x12a>
  10216d:	83 fa 13             	cmp    $0x13,%edx
  102170:	89 f7                	mov    %esi,%edi
  102172:	89 c1                	mov    %eax,%ecx
  102174:	76 3e                	jbe    1021b4 <realloc+0x104>
  102176:	8b 06                	mov    (%esi),%eax
  102178:	83 fa 1b             	cmp    $0x1b,%edx
  10217b:	8d 7e 08             	lea    0x8(%esi),%edi
  10217e:	8d 4b 08             	lea    0x8(%ebx),%ecx
  102181:	89 03                	mov    %eax,(%ebx)
  102183:	8b 46 04             	mov    0x4(%esi),%eax
  102186:	89 43 04             	mov    %eax,0x4(%ebx)
  102189:	76 29                	jbe    1021b4 <realloc+0x104>
  10218b:	8b 46 08             	mov    0x8(%esi),%eax
  10218e:	83 fa 23             	cmp    $0x23,%edx
  102191:	8d 7e 10             	lea    0x10(%esi),%edi
  102194:	8d 4b 10             	lea    0x10(%ebx),%ecx
  102197:	89 43 08             	mov    %eax,0x8(%ebx)
  10219a:	8b 46 0c             	mov    0xc(%esi),%eax
  10219d:	89 43 0c             	mov    %eax,0xc(%ebx)
  1021a0:	76 12                	jbe    1021b4 <realloc+0x104>
  1021a2:	8b 46 10             	mov    0x10(%esi),%eax
  1021a5:	8d 7e 18             	lea    0x18(%esi),%edi
  1021a8:	8d 4b 18             	lea    0x18(%ebx),%ecx
  1021ab:	89 43 10             	mov    %eax,0x10(%ebx)
  1021ae:	8b 46 14             	mov    0x14(%esi),%eax
  1021b1:	89 43 14             	mov    %eax,0x14(%ebx)
  1021b4:	8b 07                	mov    (%edi),%eax
  1021b6:	83 c7 04             	add    $0x4,%edi
  1021b9:	89 01                	mov    %eax,(%ecx)
  1021bb:	8b 07                	mov    (%edi),%eax
  1021bd:	83 c1 04             	add    $0x4,%ecx
  1021c0:	89 01                	mov    %eax,(%ecx)
  1021c2:	8b 47 04             	mov    0x4(%edi),%eax
  1021c5:	89 41 04             	mov    %eax,0x4(%ecx)
  1021c8:	8b 45 f0             	mov    0xfffffff0(%ebp),%eax
  1021cb:	89 04 24             	mov    %eax,(%esp)
  1021ce:	e8 ed f1 ff ff       	call   1013c0 <munmap_chunk>
  1021d3:	89 d9                	mov    %ebx,%ecx
  1021d5:	e9 18 ff ff ff       	jmp    1020f2 <realloc+0x42>
  1021da:	89 d1                	mov    %edx,%ecx
  1021dc:	89 c7                	mov    %eax,%edi
  1021de:	c1 e9 02             	shr    $0x2,%ecx
  1021e1:	f3 a5                	repz movsl %ds:(%esi),%es:(%edi)
  1021e3:	f6 c2 02             	test   $0x2,%dl
  1021e6:	74 02                	je     1021ea <realloc+0x13a>
  1021e8:	66 a5                	movsw  %ds:(%esi),%es:(%edi)
  1021ea:	f6 c2 01             	test   $0x1,%dl
  1021ed:	74 01                	je     1021f0 <realloc+0x140>
  1021ef:	a4                   	movsb  %ds:(%esi),%es:(%edi)
  1021f0:	eb d6                	jmp    1021c8 <realloc+0x118>
  1021f2:	8b 4d f0             	mov    0xfffffff0(%ebp),%ecx
  1021f5:	3b 0d 88 82 10 00    	cmp    0x108288,%ecx
  1021fb:	73 08                	jae    102205 <realloc+0x155>
  1021fd:	3b 0d c8 86 10 00    	cmp    0x1086c8,%ecx
  102203:	73 5f                	jae    102264 <realloc+0x1b4>
  102205:	8b 45 f0             	mov    0xfffffff0(%ebp),%eax
  102208:	25 00 00 f0 ff       	and    $0xfff00000,%eax
  10220d:	8b 38                	mov    (%eax),%edi
  10220f:	8d b7 10 04 00 00    	lea    0x410(%edi),%esi
  102215:	89 34 24             	mov    %esi,(%esp)
  102218:	e8 13 2a 00 00       	call   104c30 <pthread_mutex_lock>
  10221d:	e8 7e 2a 00 00       	call   104ca0 <pthread_self>
  102222:	25 ff 00 00 00       	and    $0xff,%eax
  102227:	89 3c 85 80 92 10 00 	mov    %edi,0x109280(,%eax,4)
  10222e:	89 5c 24 0c          	mov    %ebx,0xc(%esp)
  102232:	8b 45 ec             	mov    0xffffffec(%ebp),%eax
  102235:	89 44 24 08          	mov    %eax,0x8(%esp)
  102239:	8b 4d f0             	mov    0xfffffff0(%ebp),%ecx
  10223c:	89 3c 24             	mov    %edi,(%esp)
  10223f:	89 4c 24 04          	mov    %ecx,0x4(%esp)
  102243:	e8 38 00 00 00       	call   102280 <chunk_realloc>
  102248:	89 34 24             	mov    %esi,(%esp)
  10224b:	89 c3                	mov    %eax,%ebx
  10224d:	e8 1e 2a 00 00       	call   104c70 <pthread_mutex_unlock>
  102252:	31 c0                	xor    %eax,%eax
  102254:	8d 4b 08             	lea    0x8(%ebx),%ecx
  102257:	85 db                	test   %ebx,%ebx
  102259:	0f 94 c0             	sete   %al
  10225c:	48                   	dec    %eax
  10225d:	21 c1                	and    %eax,%ecx
  10225f:	e9 8e fe ff ff       	jmp    1020f2 <realloc+0x42>
  102264:	bf 80 82 10 00       	mov    $0x108280,%edi
  102269:	eb a4                	jmp    10220f <realloc+0x15f>
  10226b:	83 e3 f8             	and    $0xfffffff8,%ebx
  10226e:	e9 cb fe ff ff       	jmp    10213e <realloc+0x8e>
  102273:	8d b6 00 00 00 00    	lea    0x0(%esi),%esi
  102279:	8d bc 27 00 00 00 00 	lea    0x0(%edi),%edi

00102280 <chunk_realloc>:
  102280:	55                   	push   %ebp
  102281:	89 e5                	mov    %esp,%ebp
  102283:	57                   	push   %edi
  102284:	56                   	push   %esi
  102285:	53                   	push   %ebx
  102286:	83 ec 1c             	sub    $0x1c,%esp
  102289:	8b 7d 10             	mov    0x10(%ebp),%edi
  10228c:	3b 7d 14             	cmp    0x14(%ebp),%edi
  10228f:	8b 5d 0c             	mov    0xc(%ebp),%ebx
  102292:	89 fa                	mov    %edi,%edx
  102294:	0f 8d 76 01 00 00    	jge    102410 <chunk_realloc+0x190>
  10229a:	8b 45 08             	mov    0x8(%ebp),%eax
  10229d:	8d 0c 1f             	lea    (%edi,%ebx,1),%ecx
  1022a0:	8b 70 08             	mov    0x8(%eax),%esi
  1022a3:	39 f1                	cmp    %esi,%ecx
  1022a5:	0f 84 d1 04 00 00    	je     10277c <chunk_realloc+0x4fc>
  1022ab:	8b 51 04             	mov    0x4(%ecx),%edx
  1022ae:	89 d0                	mov    %edx,%eax
  1022b0:	83 e0 fe             	and    $0xfffffffe,%eax
  1022b3:	f6 44 08 04 01       	testb  $0x1,0x4(%eax,%ecx,1)
  1022b8:	0f 85 b5 04 00 00    	jne    102773 <chunk_realloc+0x4f3>
  1022be:	83 e2 fc             	and    $0xfffffffc,%edx
  1022c1:	39 f1                	cmp    %esi,%ecx
  1022c3:	0f 84 68 04 00 00    	je     102731 <chunk_realloc+0x4b1>
  1022c9:	8d 04 17             	lea    (%edi,%edx,1),%eax
  1022cc:	3b 45 14             	cmp    0x14(%ebp),%eax
  1022cf:	0f 8d 49 04 00 00    	jge    10271e <chunk_realloc+0x49e>
  1022d5:	8b 45 0c             	mov    0xc(%ebp),%eax
  1022d8:	f6 40 04 01          	testb  $0x1,0x4(%eax)
  1022dc:	75 3a                	jne    102318 <chunk_realloc+0x98>
  1022de:	8b 18                	mov    (%eax),%ebx
  1022e0:	29 d8                	sub    %ebx,%eax
  1022e2:	8b 58 04             	mov    0x4(%eax),%ebx
  1022e5:	89 45 f0             	mov    %eax,0xfffffff0(%ebp)
  1022e8:	83 e3 fc             	and    $0xfffffffc,%ebx
  1022eb:	85 c9                	test   %ecx,%ecx
  1022ed:	74 16                	je     102305 <chunk_realloc+0x85>
  1022ef:	39 f1                	cmp    %esi,%ecx
  1022f1:	0f 84 2b 03 00 00    	je     102622 <chunk_realloc+0x3a2>
  1022f7:	8d 04 13             	lea    (%ebx,%edx,1),%eax
  1022fa:	01 f8                	add    %edi,%eax
  1022fc:	3b 45 14             	cmp    0x14(%ebp),%eax
  1022ff:	0f 8d 9f 02 00 00    	jge    1025a4 <chunk_realloc+0x324>
  102305:	8b 45 f0             	mov    0xfffffff0(%ebp),%eax
  102308:	85 c0                	test   %eax,%eax
  10230a:	74 0c                	je     102318 <chunk_realloc+0x98>
  10230c:	8d 04 1f             	lea    (%edi,%ebx,1),%eax
  10230f:	3b 45 14             	cmp    0x14(%ebp),%eax
  102312:	0f 8d d0 01 00 00    	jge    1024e8 <chunk_realloc+0x268>
  102318:	8b 55 14             	mov    0x14(%ebp),%edx
  10231b:	8b 4d 08             	mov    0x8(%ebp),%ecx
  10231e:	89 54 24 04          	mov    %edx,0x4(%esp)
  102322:	89 0c 24             	mov    %ecx,(%esp)
  102325:	e8 96 f5 ff ff       	call   1018c0 <chunk_alloc>
  10232a:	85 c0                	test   %eax,%eax
  10232c:	89 c3                	mov    %eax,%ebx
  10232e:	0f 84 2c 01 00 00    	je     102460 <chunk_realloc+0x1e0>
  102334:	8b 55 0c             	mov    0xc(%ebp),%edx
  102337:	8b 42 04             	mov    0x4(%edx),%eax
  10233a:	83 e0 fe             	and    $0xfffffffe,%eax
  10233d:	01 d0                	add    %edx,%eax
  10233f:	39 c3                	cmp    %eax,%ebx
  102341:	0f 84 b8 00 00 00    	je     1023ff <chunk_realloc+0x17f>
  102347:	8d 57 fc             	lea    0xfffffffc(%edi),%edx
  10234a:	83 fa 24             	cmp    $0x24,%edx
  10234d:	0f 87 8d 00 00 00    	ja     1023e0 <chunk_realloc+0x160>
  102353:	8b 75 0c             	mov    0xc(%ebp),%esi
  102356:	8d 4b 08             	lea    0x8(%ebx),%ecx
  102359:	83 c6 08             	add    $0x8,%esi
  10235c:	83 fa 13             	cmp    $0x13,%edx
  10235f:	76 4f                	jbe    1023b0 <chunk_realloc+0x130>
  102361:	8b 4d 0c             	mov    0xc(%ebp),%ecx
  102364:	8b 41 08             	mov    0x8(%ecx),%eax
  102367:	89 ce                	mov    %ecx,%esi
  102369:	83 c6 10             	add    $0x10,%esi
  10236c:	83 fa 1b             	cmp    $0x1b,%edx
  10236f:	89 43 08             	mov    %eax,0x8(%ebx)
  102372:	8b 41 0c             	mov    0xc(%ecx),%eax
  102375:	8d 4b 10             	lea    0x10(%ebx),%ecx
  102378:	89 43 0c             	mov    %eax,0xc(%ebx)
  10237b:	76 33                	jbe    1023b0 <chunk_realloc+0x130>
  10237d:	8b 4d 0c             	mov    0xc(%ebp),%ecx
  102380:	8b 41 10             	mov    0x10(%ecx),%eax
  102383:	89 ce                	mov    %ecx,%esi
  102385:	83 c6 18             	add    $0x18,%esi
  102388:	83 fa 23             	cmp    $0x23,%edx
  10238b:	89 43 10             	mov    %eax,0x10(%ebx)
  10238e:	8b 41 14             	mov    0x14(%ecx),%eax
  102391:	8d 4b 18             	lea    0x18(%ebx),%ecx
  102394:	89 43 14             	mov    %eax,0x14(%ebx)
  102397:	76 17                	jbe    1023b0 <chunk_realloc+0x130>
  102399:	8b 55 0c             	mov    0xc(%ebp),%edx
  10239c:	8d 4b 20             	lea    0x20(%ebx),%ecx
  10239f:	8b 42 18             	mov    0x18(%edx),%eax
  1023a2:	89 d6                	mov    %edx,%esi
  1023a4:	83 c6 20             	add    $0x20,%esi
  1023a7:	89 43 18             	mov    %eax,0x18(%ebx)
  1023aa:	8b 42 1c             	mov    0x1c(%edx),%eax
  1023ad:	89 43 1c             	mov    %eax,0x1c(%ebx)
  1023b0:	8b 06                	mov    (%esi),%eax
  1023b2:	83 c6 04             	add    $0x4,%esi
  1023b5:	89 01                	mov    %eax,(%ecx)
  1023b7:	8b 06                	mov    (%esi),%eax
  1023b9:	83 c1 04             	add    $0x4,%ecx
  1023bc:	89 01                	mov    %eax,(%ecx)
  1023be:	8b 46 04             	mov    0x4(%esi),%eax
  1023c1:	89 41 04             	mov    %eax,0x4(%ecx)
  1023c4:	8b 4d 0c             	mov    0xc(%ebp),%ecx
  1023c7:	8b 45 08             	mov    0x8(%ebp),%eax
  1023ca:	89 4c 24 04          	mov    %ecx,0x4(%esp)
  1023ce:	89 04 24             	mov    %eax,(%esp)
  1023d1:	e8 1a fa ff ff       	call   101df0 <chunk_free>
  1023d6:	89 d8                	mov    %ebx,%eax
  1023d8:	83 c4 1c             	add    $0x1c,%esp
  1023db:	5b                   	pop    %ebx
  1023dc:	5e                   	pop    %esi
  1023dd:	5f                   	pop    %edi
  1023de:	5d                   	pop    %ebp
  1023df:	c3                   	ret    
  1023e0:	8b 75 0c             	mov    0xc(%ebp),%esi
  1023e3:	89 d1                	mov    %edx,%ecx
  1023e5:	8d 7b 08             	lea    0x8(%ebx),%edi
  1023e8:	c1 e9 02             	shr    $0x2,%ecx
  1023eb:	83 c6 08             	add    $0x8,%esi
  1023ee:	f3 a5                	repz movsl %ds:(%esi),%es:(%edi)
  1023f0:	f6 c2 02             	test   $0x2,%dl
  1023f3:	74 02                	je     1023f7 <chunk_realloc+0x177>
  1023f5:	66 a5                	movsw  %ds:(%esi),%es:(%edi)
  1023f7:	f6 c2 01             	test   $0x1,%dl
  1023fa:	74 01                	je     1023fd <chunk_realloc+0x17d>
  1023fc:	a4                   	movsb  %ds:(%esi),%es:(%edi)
  1023fd:	eb c5                	jmp    1023c4 <chunk_realloc+0x144>
  1023ff:	8b 43 04             	mov    0x4(%ebx),%eax
  102402:	8b 5d 0c             	mov    0xc(%ebp),%ebx
  102405:	83 e0 fc             	and    $0xfffffffc,%eax
  102408:	8d 14 38             	lea    (%eax,%edi,1),%edx
  10240b:	90                   	nop    
  10240c:	8d 74 26 00          	lea    0x0(%esi),%esi
  102410:	8b 7d 14             	mov    0x14(%ebp),%edi
  102413:	89 d1                	mov    %edx,%ecx
  102415:	29 f9                	sub    %edi,%ecx
  102417:	83 f9 0f             	cmp    $0xf,%ecx
  10241a:	77 14                	ja     102430 <chunk_realloc+0x1b0>
  10241c:	8b 43 04             	mov    0x4(%ebx),%eax
  10241f:	83 e0 01             	and    $0x1,%eax
  102422:	09 d0                	or     %edx,%eax
  102424:	89 43 04             	mov    %eax,0x4(%ebx)
  102427:	83 4c 1a 04 01       	orl    $0x1,0x4(%edx,%ebx,1)
  10242c:	eb a8                	jmp    1023d6 <chunk_realloc+0x156>
  10242e:	89 f6                	mov    %esi,%esi
  102430:	8b 55 14             	mov    0x14(%ebp),%edx
  102433:	8b 75 14             	mov    0x14(%ebp),%esi
  102436:	8d 04 1a             	lea    (%edx,%ebx,1),%eax
  102439:	8b 53 04             	mov    0x4(%ebx),%edx
  10243c:	83 e2 01             	and    $0x1,%edx
  10243f:	09 f2                	or     %esi,%edx
  102441:	89 53 04             	mov    %edx,0x4(%ebx)
  102444:	89 ca                	mov    %ecx,%edx
  102446:	83 ca 01             	or     $0x1,%edx
  102449:	89 50 04             	mov    %edx,0x4(%eax)
  10244c:	83 4c 01 04 01       	orl    $0x1,0x4(%ecx,%eax,1)
  102451:	8b 4d 08             	mov    0x8(%ebp),%ecx
  102454:	89 44 24 04          	mov    %eax,0x4(%esp)
  102458:	89 0c 24             	mov    %ecx,(%esp)
  10245b:	e9 71 ff ff ff       	jmp    1023d1 <chunk_realloc+0x151>
  102460:	81 7d 08 80 82 10 00 	cmpl   $0x108280,0x8(%ebp)
  102467:	74 3c                	je     1024a5 <chunk_realloc+0x225>
  102469:	c7 04 24 90 86 10 00 	movl   $0x108690,(%esp)
  102470:	e8 bb 27 00 00       	call   104c30 <pthread_mutex_lock>
  102475:	c7 04 24 80 82 10 00 	movl   $0x108280,(%esp)
  10247c:	8b 45 14             	mov    0x14(%ebp),%eax
  10247f:	89 44 24 04          	mov    %eax,0x4(%esp)
  102483:	e8 38 f4 ff ff       	call   1018c0 <chunk_alloc>
  102488:	c7 04 24 90 86 10 00 	movl   $0x108690,(%esp)
  10248f:	89 c3                	mov    %eax,%ebx
  102491:	e8 da 27 00 00       	call   104c70 <pthread_mutex_unlock>
  102496:	31 c0                	xor    %eax,%eax
  102498:	85 db                	test   %ebx,%ebx
  10249a:	0f 85 94 fe ff ff    	jne    102334 <chunk_realloc+0xb4>
  1024a0:	e9 33 ff ff ff       	jmp    1023d8 <chunk_realloc+0x158>
  1024a5:	31 c0                	xor    %eax,%eax
  1024a7:	8b 55 14             	mov    0x14(%ebp),%edx
  1024aa:	83 3d 88 86 10 00 00 	cmpl   $0x0,0x108688
  1024b1:	89 54 24 04          	mov    %edx,0x4(%esp)
  1024b5:	0f 94 c0             	sete   %al
  1024b8:	48                   	dec    %eax
  1024b9:	25 80 82 10 00       	and    $0x108280,%eax
  1024be:	89 04 24             	mov    %eax,(%esp)
  1024c1:	e8 fa f0 ff ff       	call   1015c0 <arena_get2>
  1024c6:	85 c0                	test   %eax,%eax
  1024c8:	89 c6                	mov    %eax,%esi
  1024ca:	74 ca                	je     102496 <chunk_realloc+0x216>
  1024cc:	89 04 24             	mov    %eax,(%esp)
  1024cf:	8b 4d 14             	mov    0x14(%ebp),%ecx
  1024d2:	89 4c 24 04          	mov    %ecx,0x4(%esp)
  1024d6:	e8 e5 f3 ff ff       	call   1018c0 <chunk_alloc>
  1024db:	89 c3                	mov    %eax,%ebx
  1024dd:	8d 86 10 04 00 00    	lea    0x410(%esi),%eax
  1024e3:	89 04 24             	mov    %eax,(%esp)
  1024e6:	eb a9                	jmp    102491 <chunk_realloc+0x211>
  1024e8:	8b 55 f0             	mov    0xfffffff0(%ebp),%edx
  1024eb:	8b 72 0c             	mov    0xc(%edx),%esi
  1024ee:	89 d1                	mov    %edx,%ecx
  1024f0:	8b 52 08             	mov    0x8(%edx),%edx
  1024f3:	89 cb                	mov    %ecx,%ebx
  1024f5:	89 72 0c             	mov    %esi,0xc(%edx)
  1024f8:	89 56 08             	mov    %edx,0x8(%esi)
  1024fb:	89 c2                	mov    %eax,%edx
  1024fd:	8d 47 fc             	lea    0xfffffffc(%edi),%eax
  102500:	89 45 e4             	mov    %eax,0xffffffe4(%ebp)
  102503:	83 f8 24             	cmp    $0x24,%eax
  102506:	77 78                	ja     102580 <chunk_realloc+0x300>
  102508:	8b 75 0c             	mov    0xc(%ebp),%esi
  10250b:	8d 49 08             	lea    0x8(%ecx),%ecx
  10250e:	83 c6 08             	add    $0x8,%esi
  102511:	83 f8 13             	cmp    $0x13,%eax
  102514:	76 51                	jbe    102567 <chunk_realloc+0x2e7>
  102516:	8b 4d 0c             	mov    0xc(%ebp),%ecx
  102519:	8b 41 08             	mov    0x8(%ecx),%eax
  10251c:	89 ce                	mov    %ecx,%esi
  10251e:	83 c6 10             	add    $0x10,%esi
  102521:	83 7d e4 1b          	cmpl   $0x1b,0xffffffe4(%ebp)
  102525:	89 43 08             	mov    %eax,0x8(%ebx)
  102528:	8b 41 0c             	mov    0xc(%ecx),%eax
  10252b:	8d 4b 10             	lea    0x10(%ebx),%ecx
  10252e:	89 43 0c             	mov    %eax,0xc(%ebx)
  102531:	76 34                	jbe    102567 <chunk_realloc+0x2e7>
  102533:	8b 4d 0c             	mov    0xc(%ebp),%ecx
  102536:	8b 41 10             	mov    0x10(%ecx),%eax
  102539:	89 ce                	mov    %ecx,%esi
  10253b:	83 c6 18             	add    $0x18,%esi
  10253e:	83 7d e4 23          	cmpl   $0x23,0xffffffe4(%ebp)
  102542:	89 43 10             	mov    %eax,0x10(%ebx)
  102545:	8b 41 14             	mov    0x14(%ecx),%eax
  102548:	8d 4b 18             	lea    0x18(%ebx),%ecx
  10254b:	89 43 14             	mov    %eax,0x14(%ebx)
  10254e:	76 17                	jbe    102567 <chunk_realloc+0x2e7>
  102550:	8b 4d 0c             	mov    0xc(%ebp),%ecx
  102553:	8b 41 18             	mov    0x18(%ecx),%eax
  102556:	89 ce                	mov    %ecx,%esi
  102558:	83 c6 20             	add    $0x20,%esi
  10255b:	89 43 18             	mov    %eax,0x18(%ebx)
  10255e:	8b 41 1c             	mov    0x1c(%ecx),%eax
  102561:	8d 4b 20             	lea    0x20(%ebx),%ecx
  102564:	89 43 1c             	mov    %eax,0x1c(%ebx)
  102567:	8b 06                	mov    (%esi),%eax
  102569:	83 c6 04             	add    $0x4,%esi
  10256c:	89 01                	mov    %eax,(%ecx)
  10256e:	8b 06                	mov    (%esi),%eax
  102570:	83 c1 04             	add    $0x4,%ecx
  102573:	89 01                	mov    %eax,(%ecx)
  102575:	8b 46 04             	mov    0x4(%esi),%eax
  102578:	89 41 04             	mov    %eax,0x4(%ecx)
  10257b:	e9 90 fe ff ff       	jmp    102410 <chunk_realloc+0x190>
  102580:	8d 79 08             	lea    0x8(%ecx),%edi
  102583:	8b 75 0c             	mov    0xc(%ebp),%esi
  102586:	8b 4d e4             	mov    0xffffffe4(%ebp),%ecx
  102589:	8b 45 e4             	mov    0xffffffe4(%ebp),%eax
  10258c:	83 c6 08             	add    $0x8,%esi
  10258f:	c1 e9 02             	shr    $0x2,%ecx
  102592:	f3 a5                	repz movsl %ds:(%esi),%es:(%edi)
  102594:	a8 02                	test   $0x2,%al
  102596:	74 02                	je     10259a <chunk_realloc+0x31a>
  102598:	66 a5                	movsw  %ds:(%esi),%es:(%edi)
  10259a:	a8 01                	test   $0x1,%al
  10259c:	74 01                	je     10259f <chunk_realloc+0x31f>
  10259e:	a4                   	movsb  %ds:(%esi),%es:(%edi)
  10259f:	e9 6c fe ff ff       	jmp    102410 <chunk_realloc+0x190>
  1025a4:	8b 71 0c             	mov    0xc(%ecx),%esi
  1025a7:	8b 51 08             	mov    0x8(%ecx),%edx
  1025aa:	8b 4d f0             	mov    0xfffffff0(%ebp),%ecx
  1025ad:	89 72 0c             	mov    %esi,0xc(%edx)
  1025b0:	89 cb                	mov    %ecx,%ebx
  1025b2:	89 56 08             	mov    %edx,0x8(%esi)
  1025b5:	8b 51 08             	mov    0x8(%ecx),%edx
  1025b8:	8b 71 0c             	mov    0xc(%ecx),%esi
  1025bb:	89 72 0c             	mov    %esi,0xc(%edx)
  1025be:	89 56 08             	mov    %edx,0x8(%esi)
  1025c1:	89 c2                	mov    %eax,%edx
  1025c3:	8d 47 fc             	lea    0xfffffffc(%edi),%eax
  1025c6:	89 45 e8             	mov    %eax,0xffffffe8(%ebp)
  1025c9:	83 f8 24             	cmp    $0x24,%eax
  1025cc:	77 43                	ja     102611 <chunk_realloc+0x391>
  1025ce:	8b 75 0c             	mov    0xc(%ebp),%esi
  1025d1:	8d 49 08             	lea    0x8(%ecx),%ecx
  1025d4:	83 c6 08             	add    $0x8,%esi
  1025d7:	83 f8 13             	cmp    $0x13,%eax
  1025da:	76 8b                	jbe    102567 <chunk_realloc+0x2e7>
  1025dc:	8b 4d 0c             	mov    0xc(%ebp),%ecx
  1025df:	8b 41 08             	mov    0x8(%ecx),%eax
  1025e2:	89 ce                	mov    %ecx,%esi
  1025e4:	83 c6 10             	add    $0x10,%esi
  1025e7:	83 7d e8 1b          	cmpl   $0x1b,0xffffffe8(%ebp)
  1025eb:	89 43 08             	mov    %eax,0x8(%ebx)
  1025ee:	8b 41 0c             	mov    0xc(%ecx),%eax
  1025f1:	8d 4b 10             	lea    0x10(%ebx),%ecx
  1025f4:	89 43 0c             	mov    %eax,0xc(%ebx)
  1025f7:	0f 86 6a ff ff ff    	jbe    102567 <chunk_realloc+0x2e7>
  1025fd:	8b 4d 0c             	mov    0xc(%ebp),%ecx
  102600:	8b 41 10             	mov    0x10(%ecx),%eax
  102603:	89 ce                	mov    %ecx,%esi
  102605:	83 c6 18             	add    $0x18,%esi
  102608:	83 7d e8 23          	cmpl   $0x23,0xffffffe8(%ebp)
  10260c:	e9 31 ff ff ff       	jmp    102542 <chunk_realloc+0x2c2>
  102611:	8d 79 08             	lea    0x8(%ecx),%edi
  102614:	8b 75 0c             	mov    0xc(%ebp),%esi
  102617:	8b 4d e8             	mov    0xffffffe8(%ebp),%ecx
  10261a:	8b 45 e8             	mov    0xffffffe8(%ebp),%eax
  10261d:	e9 6a ff ff ff       	jmp    10258c <chunk_realloc+0x30c>
  102622:	8d 04 13             	lea    (%ebx,%edx,1),%eax
  102625:	01 f8                	add    %edi,%eax
  102627:	89 45 ec             	mov    %eax,0xffffffec(%ebp)
  10262a:	8b 45 14             	mov    0x14(%ebp),%eax
  10262d:	83 c0 10             	add    $0x10,%eax
  102630:	39 45 ec             	cmp    %eax,0xffffffec(%ebp)
  102633:	0f 8c cc fc ff ff    	jl     102305 <chunk_realloc+0x85>
  102639:	8b 55 f0             	mov    0xfffffff0(%ebp),%edx
  10263c:	8b 72 0c             	mov    0xc(%edx),%esi
  10263f:	89 d1                	mov    %edx,%ecx
  102641:	8b 52 08             	mov    0x8(%edx),%edx
  102644:	89 cb                	mov    %ecx,%ebx
  102646:	89 72 0c             	mov    %esi,0xc(%edx)
  102649:	89 56 08             	mov    %edx,0x8(%esi)
  10264c:	8d 57 fc             	lea    0xfffffffc(%edi),%edx
  10264f:	83 fa 24             	cmp    $0x24,%edx
  102652:	0f 87 a7 00 00 00    	ja     1026ff <chunk_realloc+0x47f>
  102658:	8b 75 0c             	mov    0xc(%ebp),%esi
  10265b:	8d 49 08             	lea    0x8(%ecx),%ecx
  10265e:	83 c6 08             	add    $0x8,%esi
  102661:	83 fa 13             	cmp    $0x13,%edx
  102664:	76 4f                	jbe    1026b5 <chunk_realloc+0x435>
  102666:	8b 4d 0c             	mov    0xc(%ebp),%ecx
  102669:	8b 41 08             	mov    0x8(%ecx),%eax
  10266c:	89 ce                	mov    %ecx,%esi
  10266e:	83 c6 10             	add    $0x10,%esi
  102671:	83 fa 1b             	cmp    $0x1b,%edx
  102674:	89 43 08             	mov    %eax,0x8(%ebx)
  102677:	8b 41 0c             	mov    0xc(%ecx),%eax
  10267a:	8d 4b 10             	lea    0x10(%ebx),%ecx
  10267d:	89 43 0c             	mov    %eax,0xc(%ebx)
  102680:	76 33                	jbe    1026b5 <chunk_realloc+0x435>
  102682:	8b 4d 0c             	mov    0xc(%ebp),%ecx
  102685:	8b 41 10             	mov    0x10(%ecx),%eax
  102688:	89 ce                	mov    %ecx,%esi
  10268a:	83 c6 18             	add    $0x18,%esi
  10268d:	83 fa 23             	cmp    $0x23,%edx
  102690:	89 43 10             	mov    %eax,0x10(%ebx)
  102693:	8b 41 14             	mov    0x14(%ecx),%eax
  102696:	8d 4b 18             	lea    0x18(%ebx),%ecx
  102699:	89 43 14             	mov    %eax,0x14(%ebx)
  10269c:	76 17                	jbe    1026b5 <chunk_realloc+0x435>
  10269e:	8b 55 0c             	mov    0xc(%ebp),%edx
  1026a1:	8d 4b 20             	lea    0x20(%ebx),%ecx
  1026a4:	8b 42 18             	mov    0x18(%edx),%eax
  1026a7:	89 d6                	mov    %edx,%esi
  1026a9:	83 c6 20             	add    $0x20,%esi
  1026ac:	89 43 18             	mov    %eax,0x18(%ebx)
  1026af:	8b 42 1c             	mov    0x1c(%edx),%eax
  1026b2:	89 43 1c             	mov    %eax,0x1c(%ebx)
  1026b5:	8b 06                	mov    (%esi),%eax
  1026b7:	83 c6 04             	add    $0x4,%esi
  1026ba:	89 01                	mov    %eax,(%ecx)
  1026bc:	8b 06                	mov    (%esi),%eax
  1026be:	83 c1 04             	add    $0x4,%ecx
  1026c1:	89 01                	mov    %eax,(%ecx)
  1026c3:	8b 46 04             	mov    0x4(%esi),%eax
  1026c6:	89 41 04             	mov    %eax,0x4(%ecx)
  1026c9:	8b 55 14             	mov    0x14(%ebp),%edx
  1026cc:	8b 5d 14             	mov    0x14(%ebp),%ebx
  1026cf:	8b 45 f0             	mov    0xfffffff0(%ebp),%eax
  1026d2:	29 55 ec             	sub    %edx,0xffffffec(%ebp)
  1026d5:	8b 4d 08             	mov    0x8(%ebp),%ecx
  1026d8:	01 d8                	add    %ebx,%eax
  1026da:	83 4d ec 01          	orl    $0x1,0xffffffec(%ebp)
  1026de:	8b 55 f0             	mov    0xfffffff0(%ebp),%edx
  1026e1:	89 41 08             	mov    %eax,0x8(%ecx)
  1026e4:	8b 4d ec             	mov    0xffffffec(%ebp),%ecx
  1026e7:	89 48 04             	mov    %ecx,0x4(%eax)
  1026ea:	8b 42 04             	mov    0x4(%edx),%eax
  1026ed:	8b 4d 14             	mov    0x14(%ebp),%ecx
  1026f0:	83 e0 01             	and    $0x1,%eax
  1026f3:	09 c8                	or     %ecx,%eax
  1026f5:	89 42 04             	mov    %eax,0x4(%edx)
  1026f8:	89 d0                	mov    %edx,%eax
  1026fa:	e9 d9 fc ff ff       	jmp    1023d8 <chunk_realloc+0x158>
  1026ff:	8b 75 0c             	mov    0xc(%ebp),%esi
  102702:	8d 79 08             	lea    0x8(%ecx),%edi
  102705:	89 d1                	mov    %edx,%ecx
  102707:	c1 e9 02             	shr    $0x2,%ecx
  10270a:	83 c6 08             	add    $0x8,%esi
  10270d:	f3 a5                	repz movsl %ds:(%esi),%es:(%edi)
  10270f:	f6 c2 02             	test   $0x2,%dl
  102712:	74 02                	je     102716 <chunk_realloc+0x496>
  102714:	66 a5                	movsw  %ds:(%esi),%es:(%edi)
  102716:	f6 c2 01             	test   $0x1,%dl
  102719:	74 01                	je     10271c <chunk_realloc+0x49c>
  10271b:	a4                   	movsb  %ds:(%esi),%es:(%edi)
  10271c:	eb ab                	jmp    1026c9 <chunk_realloc+0x449>
  10271e:	8b 51 08             	mov    0x8(%ecx),%edx
  102721:	8b 71 0c             	mov    0xc(%ecx),%esi
  102724:	89 72 0c             	mov    %esi,0xc(%edx)
  102727:	89 56 08             	mov    %edx,0x8(%esi)
  10272a:	89 c2                	mov    %eax,%edx
  10272c:	e9 df fc ff ff       	jmp    102410 <chunk_realloc+0x190>
  102731:	8b 45 14             	mov    0x14(%ebp),%eax
  102734:	8d 1c 17             	lea    (%edi,%edx,1),%ebx
  102737:	83 c0 10             	add    $0x10,%eax
  10273a:	39 c3                	cmp    %eax,%ebx
  10273c:	0f 8c 93 fb ff ff    	jl     1022d5 <chunk_realloc+0x55>
  102742:	8b 55 14             	mov    0x14(%ebp),%edx
  102745:	8b 7d 14             	mov    0x14(%ebp),%edi
  102748:	8b 45 0c             	mov    0xc(%ebp),%eax
  10274b:	8b 4d 0c             	mov    0xc(%ebp),%ecx
  10274e:	29 fb                	sub    %edi,%ebx
  102750:	8b 75 14             	mov    0x14(%ebp),%esi
  102753:	01 d0                	add    %edx,%eax
  102755:	83 cb 01             	or     $0x1,%ebx
  102758:	8b 55 08             	mov    0x8(%ebp),%edx
  10275b:	89 58 04             	mov    %ebx,0x4(%eax)
  10275e:	89 42 08             	mov    %eax,0x8(%edx)
  102761:	8b 41 04             	mov    0x4(%ecx),%eax
  102764:	83 e0 01             	and    $0x1,%eax
  102767:	09 f0                	or     %esi,%eax
  102769:	89 41 04             	mov    %eax,0x4(%ecx)
  10276c:	89 c8                	mov    %ecx,%eax
  10276e:	e9 65 fc ff ff       	jmp    1023d8 <chunk_realloc+0x158>
  102773:	31 c9                	xor    %ecx,%ecx
  102775:	31 d2                	xor    %edx,%edx
  102777:	e9 59 fb ff ff       	jmp    1022d5 <chunk_realloc+0x55>
  10277c:	8b 51 04             	mov    0x4(%ecx),%edx
  10277f:	e9 3a fb ff ff       	jmp    1022be <chunk_realloc+0x3e>
  102784:	8d b6 00 00 00 00    	lea    0x0(%esi),%esi
  10278a:	8d bf 00 00 00 00    	lea    0x0(%edi),%edi

00102790 <memalign>:
  102790:	55                   	push   %ebp
  102791:	89 e5                	mov    %esp,%ebp
  102793:	83 ec 28             	sub    $0x28,%esp
  102796:	89 75 f8             	mov    %esi,0xfffffff8(%ebp)
  102799:	8b 45 0c             	mov    0xc(%ebp),%eax
  10279c:	8b 75 08             	mov    0x8(%ebp),%esi
  10279f:	89 5d f4             	mov    %ebx,0xfffffff4(%ebp)
  1027a2:	89 7d fc             	mov    %edi,0xfffffffc(%ebp)
  1027a5:	83 fe 08             	cmp    $0x8,%esi
  1027a8:	0f 86 42 01 00 00    	jbe    1028f0 <memalign+0x160>
  1027ae:	83 fe 0f             	cmp    $0xf,%esi
  1027b1:	77 05                	ja     1027b8 <memalign+0x28>
  1027b3:	be 10 00 00 00       	mov    $0x10,%esi
  1027b8:	8d 78 0b             	lea    0xb(%eax),%edi
  1027bb:	85 ff                	test   %edi,%edi
  1027bd:	7e 04                	jle    1027c3 <memalign+0x33>
  1027bf:	39 c7                	cmp    %eax,%edi
  1027c1:	73 1d                	jae    1027e0 <memalign+0x50>
  1027c3:	b8 31 00 00 00       	mov    $0x31,%eax
  1027c8:	a3 9c 96 10 00       	mov    %eax,0x10969c
  1027cd:	31 c0                	xor    %eax,%eax
  1027cf:	8b 5d f4             	mov    0xfffffff4(%ebp),%ebx
  1027d2:	8b 75 f8             	mov    0xfffffff8(%ebp),%esi
  1027d5:	8b 7d fc             	mov    0xfffffffc(%ebp),%edi
  1027d8:	89 ec                	mov    %ebp,%esp
  1027da:	5d                   	pop    %ebp
  1027db:	c3                   	ret    
  1027dc:	8d 74 26 00          	lea    0x0(%esi),%esi
  1027e0:	83 ff 16             	cmp    $0x16,%edi
  1027e3:	0f 87 fe 00 00 00    	ja     1028e7 <memalign+0x157>
  1027e9:	bf 10 00 00 00       	mov    $0x10,%edi
  1027ee:	e8 ad 24 00 00       	call   104ca0 <pthread_self>
  1027f3:	25 ff 00 00 00       	and    $0xff,%eax
  1027f8:	8b 1c 85 80 92 10 00 	mov    0x109280(,%eax,4),%ebx
  1027ff:	85 db                	test   %ebx,%ebx
  102801:	74 12                	je     102815 <memalign+0x85>
  102803:	8d 83 10 04 00 00    	lea    0x410(%ebx),%eax
  102809:	89 04 24             	mov    %eax,(%esp)
  10280c:	e8 3f 24 00 00       	call   104c50 <pthread_mutex_trylock>
  102811:	85 c0                	test   %eax,%eax
  102813:	74 12                	je     102827 <memalign+0x97>
  102815:	89 1c 24             	mov    %ebx,(%esp)
  102818:	8d 44 3e 10          	lea    0x10(%esi,%edi,1),%eax
  10281c:	89 44 24 04          	mov    %eax,0x4(%esp)
  102820:	e8 9b ed ff ff       	call   1015c0 <arena_get2>
  102825:	89 c3                	mov    %eax,%ebx
  102827:	31 c0                	xor    %eax,%eax
  102829:	85 db                	test   %ebx,%ebx
  10282b:	74 a2                	je     1027cf <memalign+0x3f>
  10282d:	89 74 24 08          	mov    %esi,0x8(%esp)
  102831:	89 7c 24 04          	mov    %edi,0x4(%esp)
  102835:	89 1c 24             	mov    %ebx,(%esp)
  102838:	e8 d3 00 00 00       	call   102910 <chunk_align>
  10283d:	89 45 f0             	mov    %eax,0xfffffff0(%ebp)
  102840:	8d 83 10 04 00 00    	lea    0x410(%ebx),%eax
  102846:	89 04 24             	mov    %eax,(%esp)
  102849:	e8 22 24 00 00       	call   104c70 <pthread_mutex_unlock>
  10284e:	8b 45 f0             	mov    0xfffffff0(%ebp),%eax
  102851:	85 c0                	test   %eax,%eax
  102853:	74 0b                	je     102860 <memalign+0xd0>
  102855:	8b 45 f0             	mov    0xfffffff0(%ebp),%eax
  102858:	83 c0 08             	add    $0x8,%eax
  10285b:	e9 6f ff ff ff       	jmp    1027cf <memalign+0x3f>
  102860:	81 fb 80 82 10 00    	cmp    $0x108280,%ebx
  102866:	74 3d                	je     1028a5 <memalign+0x115>
  102868:	c7 04 24 90 86 10 00 	movl   $0x108690,(%esp)
  10286f:	e8 bc 23 00 00       	call   104c30 <pthread_mutex_lock>
  102874:	89 74 24 08          	mov    %esi,0x8(%esp)
  102878:	89 7c 24 04          	mov    %edi,0x4(%esp)
  10287c:	c7 04 24 80 82 10 00 	movl   $0x108280,(%esp)
  102883:	e8 88 00 00 00       	call   102910 <chunk_align>
  102888:	89 45 f0             	mov    %eax,0xfffffff0(%ebp)
  10288b:	c7 04 24 90 86 10 00 	movl   $0x108690,(%esp)
  102892:	e8 d9 23 00 00       	call   104c70 <pthread_mutex_unlock>
  102897:	8b 4d f0             	mov    0xfffffff0(%ebp),%ecx
  10289a:	31 c0                	xor    %eax,%eax
  10289c:	85 c9                	test   %ecx,%ecx
  10289e:	75 b5                	jne    102855 <memalign+0xc5>
  1028a0:	e9 2a ff ff ff       	jmp    1027cf <memalign+0x3f>
  1028a5:	89 7c 24 04          	mov    %edi,0x4(%esp)
  1028a9:	31 c0                	xor    %eax,%eax
  1028ab:	83 3d 88 86 10 00 00 	cmpl   $0x0,0x108688
  1028b2:	0f 94 c0             	sete   %al
  1028b5:	48                   	dec    %eax
  1028b6:	25 80 82 10 00       	and    $0x108280,%eax
  1028bb:	89 04 24             	mov    %eax,(%esp)
  1028be:	e8 fd ec ff ff       	call   1015c0 <arena_get2>
  1028c3:	85 c0                	test   %eax,%eax
  1028c5:	89 c3                	mov    %eax,%ebx
  1028c7:	74 ce                	je     102897 <memalign+0x107>
  1028c9:	89 74 24 08          	mov    %esi,0x8(%esp)
  1028cd:	89 7c 24 04          	mov    %edi,0x4(%esp)
  1028d1:	89 04 24             	mov    %eax,(%esp)
  1028d4:	e8 37 00 00 00       	call   102910 <chunk_align>
  1028d9:	89 45 f0             	mov    %eax,0xfffffff0(%ebp)
  1028dc:	8d 83 10 04 00 00    	lea    0x410(%ebx),%eax
  1028e2:	89 04 24             	mov    %eax,(%esp)
  1028e5:	eb ab                	jmp    102892 <memalign+0x102>
  1028e7:	83 e7 f8             	and    $0xfffffff8,%edi
  1028ea:	e9 ff fe ff ff       	jmp    1027ee <memalign+0x5e>
  1028ef:	90                   	nop    
  1028f0:	89 45 08             	mov    %eax,0x8(%ebp)
  1028f3:	8b 5d f4             	mov    0xfffffff4(%ebp),%ebx
  1028f6:	8b 75 f8             	mov    0xfffffff8(%ebp),%esi
  1028f9:	8b 7d fc             	mov    0xfffffffc(%ebp),%edi
  1028fc:	89 ec                	mov    %ebp,%esp
  1028fe:	5d                   	pop    %ebp
  1028ff:	e9 6c ee ff ff       	jmp    101770 <malloc>
  102904:	8d b6 00 00 00 00    	lea    0x0(%esi),%esi
  10290a:	8d bf 00 00 00 00    	lea    0x0(%edi),%edi

00102910 <chunk_align>:
  102910:	55                   	push   %ebp
  102911:	89 e5                	mov    %esp,%ebp
  102913:	57                   	push   %edi
  102914:	56                   	push   %esi
  102915:	53                   	push   %ebx
  102916:	83 ec 0c             	sub    $0xc,%esp
  102919:	8b 7d 10             	mov    0x10(%ebp),%edi
  10291c:	8b 55 0c             	mov    0xc(%ebp),%edx
  10291f:	8b 4d 08             	mov    0x8(%ebp),%ecx
  102922:	8d 44 17 10          	lea    0x10(%edi,%edx,1),%eax
  102926:	89 44 24 04          	mov    %eax,0x4(%esp)
  10292a:	89 0c 24             	mov    %ecx,(%esp)
  10292d:	e8 8e ef ff ff       	call   1018c0 <chunk_alloc>
  102932:	89 c3                	mov    %eax,%ebx
  102934:	31 c0                	xor    %eax,%eax
  102936:	85 db                	test   %ebx,%ebx
  102938:	74 28                	je     102962 <chunk_align+0x52>
  10293a:	8d 4b 08             	lea    0x8(%ebx),%ecx
  10293d:	31 d2                	xor    %edx,%edx
  10293f:	89 c8                	mov    %ecx,%eax
  102941:	f7 f7                	div    %edi
  102943:	85 d2                	test   %edx,%edx
  102945:	75 51                	jne    102998 <chunk_align+0x88>
  102947:	8b 53 04             	mov    0x4(%ebx),%edx
  10294a:	89 d8                	mov    %ebx,%eax
  10294c:	f6 c2 02             	test   $0x2,%dl
  10294f:	75 11                	jne    102962 <chunk_align+0x52>
  102951:	89 d0                	mov    %edx,%eax
  102953:	8b 55 0c             	mov    0xc(%ebp),%edx
  102956:	83 e0 fc             	and    $0xfffffffc,%eax
  102959:	29 d0                	sub    %edx,%eax
  10295b:	83 f8 0f             	cmp    $0xf,%eax
  10295e:	7f 10                	jg     102970 <chunk_align+0x60>
  102960:	89 d8                	mov    %ebx,%eax
  102962:	83 c4 0c             	add    $0xc,%esp
  102965:	5b                   	pop    %ebx
  102966:	5e                   	pop    %esi
  102967:	5f                   	pop    %edi
  102968:	5d                   	pop    %ebp
  102969:	c3                   	ret    
  10296a:	8d b6 00 00 00 00    	lea    0x0(%esi),%esi
  102970:	8b 4d 0c             	mov    0xc(%ebp),%ecx
  102973:	83 c8 01             	or     $0x1,%eax
  102976:	8d 14 19             	lea    (%ecx,%ebx,1),%edx
  102979:	89 42 04             	mov    %eax,0x4(%edx)
  10297c:	8b 43 04             	mov    0x4(%ebx),%eax
  10297f:	83 e0 01             	and    $0x1,%eax
  102982:	09 c8                	or     %ecx,%eax
  102984:	89 43 04             	mov    %eax,0x4(%ebx)
  102987:	8b 45 08             	mov    0x8(%ebp),%eax
  10298a:	89 54 24 04          	mov    %edx,0x4(%esp)
  10298e:	89 04 24             	mov    %eax,(%esp)
  102991:	e8 5a f4 ff ff       	call   101df0 <chunk_free>
  102996:	eb c8                	jmp    102960 <chunk_align+0x50>
  102998:	89 fa                	mov    %edi,%edx
  10299a:	8d 44 0f ff          	lea    0xffffffff(%edi,%ecx,1),%eax
  10299e:	f7 da                	neg    %edx
  1029a0:	21 d0                	and    %edx,%eax
  1029a2:	8d 70 f8             	lea    0xfffffff8(%eax),%esi
  1029a5:	89 f0                	mov    %esi,%eax
  1029a7:	29 d8                	sub    %ebx,%eax
  1029a9:	83 f8 0f             	cmp    $0xf,%eax
  1029ac:	7f 02                	jg     1029b0 <chunk_align+0xa0>
  1029ae:	01 fe                	add    %edi,%esi
  1029b0:	8b 43 04             	mov    0x4(%ebx),%eax
  1029b3:	89 f1                	mov    %esi,%ecx
  1029b5:	29 d9                	sub    %ebx,%ecx
  1029b7:	89 c2                	mov    %eax,%edx
  1029b9:	83 e2 fc             	and    $0xfffffffc,%edx
  1029bc:	29 ca                	sub    %ecx,%edx
  1029be:	a8 02                	test   $0x2,%al
  1029c0:	74 10                	je     1029d2 <chunk_align+0xc2>
  1029c2:	8b 3b                	mov    (%ebx),%edi
  1029c4:	83 ca 02             	or     $0x2,%edx
  1029c7:	89 f0                	mov    %esi,%eax
  1029c9:	89 56 04             	mov    %edx,0x4(%esi)
  1029cc:	01 f9                	add    %edi,%ecx
  1029ce:	89 0e                	mov    %ecx,(%esi)
  1029d0:	eb 90                	jmp    102962 <chunk_align+0x52>
  1029d2:	89 d0                	mov    %edx,%eax
  1029d4:	83 c8 01             	or     $0x1,%eax
  1029d7:	89 46 04             	mov    %eax,0x4(%esi)
  1029da:	83 4c 32 04 01       	orl    $0x1,0x4(%edx,%esi,1)
  1029df:	8b 43 04             	mov    0x4(%ebx),%eax
  1029e2:	83 e0 01             	and    $0x1,%eax
  1029e5:	09 c8                	or     %ecx,%eax
  1029e7:	89 43 04             	mov    %eax,0x4(%ebx)
  1029ea:	8b 45 08             	mov    0x8(%ebp),%eax
  1029ed:	89 5c 24 04          	mov    %ebx,0x4(%esp)
  1029f1:	89 f3                	mov    %esi,%ebx
  1029f3:	89 04 24             	mov    %eax,(%esp)
  1029f6:	e8 f5 f3 ff ff       	call   101df0 <chunk_free>
  1029fb:	8b 56 04             	mov    0x4(%esi),%edx
  1029fe:	e9 4e ff ff ff       	jmp    102951 <chunk_align+0x41>
  102a03:	8d b6 00 00 00 00    	lea    0x0(%esi),%esi
  102a09:	8d bc 27 00 00 00 00 	lea    0x0(%edi),%edi

00102a10 <valloc>:
  102a10:	55                   	push   %ebp
  102a11:	89 e5                	mov    %esp,%ebp
  102a13:	83 ec 08             	sub    $0x8,%esp
  102a16:	c7 04 24 00 10 00 00 	movl   $0x1000,(%esp)
  102a1d:	8b 45 08             	mov    0x8(%ebp),%eax
  102a20:	89 44 24 04          	mov    %eax,0x4(%esp)
  102a24:	e8 67 fd ff ff       	call   102790 <memalign>
  102a29:	89 ec                	mov    %ebp,%esp
  102a2b:	5d                   	pop    %ebp
  102a2c:	c3                   	ret    
  102a2d:	8d 76 00             	lea    0x0(%esi),%esi

00102a30 <pvalloc>:
  102a30:	55                   	push   %ebp
  102a31:	89 e5                	mov    %esp,%ebp
  102a33:	83 ec 08             	sub    $0x8,%esp
  102a36:	c7 04 24 00 10 00 00 	movl   $0x1000,(%esp)
  102a3d:	8b 45 08             	mov    0x8(%ebp),%eax
  102a40:	05 ff 0f 00 00       	add    $0xfff,%eax
  102a45:	25 00 f0 ff ff       	and    $0xfffff000,%eax
  102a4a:	89 44 24 04          	mov    %eax,0x4(%esp)
  102a4e:	e8 3d fd ff ff       	call   102790 <memalign>
  102a53:	89 ec                	mov    %ebp,%esp
  102a55:	5d                   	pop    %ebp
  102a56:	c3                   	ret    
  102a57:	89 f6                	mov    %esi,%esi
  102a59:	8d bc 27 00 00 00 00 	lea    0x0(%edi),%edi

00102a60 <calloc>:
  102a60:	55                   	push   %ebp
  102a61:	89 e5                	mov    %esp,%ebp
  102a63:	57                   	push   %edi
  102a64:	56                   	push   %esi
  102a65:	53                   	push   %ebx
  102a66:	83 ec 1c             	sub    $0x1c,%esp
  102a69:	8b 45 0c             	mov    0xc(%ebp),%eax
  102a6c:	8b 55 08             	mov    0x8(%ebp),%edx
  102a6f:	0f af c2             	imul   %edx,%eax
  102a72:	8d 78 0b             	lea    0xb(%eax),%edi
  102a75:	85 ff                	test   %edi,%edi
  102a77:	7e 04                	jle    102a7d <calloc+0x1d>
  102a79:	39 c7                	cmp    %eax,%edi
  102a7b:	73 15                	jae    102a92 <calloc+0x32>
  102a7d:	bf 31 00 00 00       	mov    $0x31,%edi
  102a82:	31 c0                	xor    %eax,%eax
  102a84:	89 3d 9c 96 10 00    	mov    %edi,0x10969c
  102a8a:	83 c4 1c             	add    $0x1c,%esp
  102a8d:	5b                   	pop    %ebx
  102a8e:	5e                   	pop    %esi
  102a8f:	5f                   	pop    %edi
  102a90:	5d                   	pop    %ebp
  102a91:	c3                   	ret    
  102a92:	83 ff 16             	cmp    $0x16,%edi
  102a95:	0f 87 05 02 00 00    	ja     102ca0 <calloc+0x240>
  102a9b:	bf 10 00 00 00       	mov    $0x10,%edi
  102aa0:	e8 fb 21 00 00       	call   104ca0 <pthread_self>
  102aa5:	25 ff 00 00 00       	and    $0xff,%eax
  102aaa:	8b 1c 85 80 92 10 00 	mov    0x109280(,%eax,4),%ebx
  102ab1:	85 db                	test   %ebx,%ebx
  102ab3:	74 12                	je     102ac7 <calloc+0x67>
  102ab5:	8d 83 10 04 00 00    	lea    0x410(%ebx),%eax
  102abb:	89 04 24             	mov    %eax,(%esp)
  102abe:	e8 8d 21 00 00       	call   104c50 <pthread_mutex_trylock>
  102ac3:	85 c0                	test   %eax,%eax
  102ac5:	74 0e                	je     102ad5 <calloc+0x75>
  102ac7:	89 1c 24             	mov    %ebx,(%esp)
  102aca:	89 7c 24 04          	mov    %edi,0x4(%esp)
  102ace:	e8 ed ea ff ff       	call   1015c0 <arena_get2>
  102ad3:	89 c3                	mov    %eax,%ebx
  102ad5:	31 c0                	xor    %eax,%eax
  102ad7:	85 db                	test   %ebx,%ebx
  102ad9:	74 af                	je     102a8a <calloc+0x2a>
  102adb:	8b 43 08             	mov    0x8(%ebx),%eax
  102ade:	8b 50 04             	mov    0x4(%eax),%edx
  102ae1:	89 45 f0             	mov    %eax,0xfffffff0(%ebp)
  102ae4:	83 e2 fc             	and    $0xfffffffc,%edx
  102ae7:	81 fb 80 82 10 00    	cmp    $0x108280,%ebx
  102aed:	89 55 ec             	mov    %edx,0xffffffec(%ebp)
  102af0:	0f 84 88 01 00 00    	je     102c7e <calloc+0x21e>
  102af6:	89 7c 24 04          	mov    %edi,0x4(%esp)
  102afa:	89 1c 24             	mov    %ebx,(%esp)
  102afd:	e8 be ed ff ff       	call   1018c0 <chunk_alloc>
  102b02:	89 c6                	mov    %eax,%esi
  102b04:	8d 83 10 04 00 00    	lea    0x410(%ebx),%eax
  102b0a:	89 04 24             	mov    %eax,(%esp)
  102b0d:	e8 5e 21 00 00       	call   104c70 <pthread_mutex_unlock>
  102b12:	85 f6                	test   %esi,%esi
  102b14:	0f 84 ce 00 00 00    	je     102be8 <calloc+0x188>
  102b1a:	8b 56 04             	mov    0x4(%esi),%edx
  102b1d:	8d 5e 08             	lea    0x8(%esi),%ebx
  102b20:	89 d8                	mov    %ebx,%eax
  102b22:	f6 c2 02             	test   $0x2,%dl
  102b25:	0f 85 5f ff ff ff    	jne    102a8a <calloc+0x2a>
  102b2b:	89 d0                	mov    %edx,%eax
  102b2d:	83 e0 fc             	and    $0xfffffffc,%eax
  102b30:	3b 75 f0             	cmp    0xfffffff0(%ebp),%esi
  102b33:	0f 84 9e 00 00 00    	je     102bd7 <calloc+0x177>
  102b39:	8d 48 fc             	lea    0xfffffffc(%eax),%ecx
  102b3c:	83 f9 24             	cmp    $0x24,%ecx
  102b3f:	77 6f                	ja     102bb0 <calloc+0x150>
  102b41:	83 f9 13             	cmp    $0x13,%ecx
  102b44:	89 d8                	mov    %ebx,%eax
  102b46:	76 48                	jbe    102b90 <calloc+0x130>
  102b48:	c7 03 00 00 00 00    	movl   $0x0,(%ebx)
  102b4e:	83 f9 1b             	cmp    $0x1b,%ecx
  102b51:	8d 43 08             	lea    0x8(%ebx),%eax
  102b54:	c7 43 04 00 00 00 00 	movl   $0x0,0x4(%ebx)
  102b5b:	76 33                	jbe    102b90 <calloc+0x130>
  102b5d:	c7 43 08 00 00 00 00 	movl   $0x0,0x8(%ebx)
  102b64:	83 f9 23             	cmp    $0x23,%ecx
  102b67:	8d 43 10             	lea    0x10(%ebx),%eax
  102b6a:	c7 43 0c 00 00 00 00 	movl   $0x0,0xc(%ebx)
  102b71:	76 1d                	jbe    102b90 <calloc+0x130>
  102b73:	c7 43 10 00 00 00 00 	movl   $0x0,0x10(%ebx)
  102b7a:	8d 43 18             	lea    0x18(%ebx),%eax
  102b7d:	c7 43 14 00 00 00 00 	movl   $0x0,0x14(%ebx)
  102b84:	8d b6 00 00 00 00    	lea    0x0(%esi),%esi
  102b8a:	8d bf 00 00 00 00    	lea    0x0(%edi),%edi
  102b90:	c7 00 00 00 00 00    	movl   $0x0,(%eax)
  102b96:	83 c0 04             	add    $0x4,%eax
  102b99:	c7 00 00 00 00 00    	movl   $0x0,(%eax)
  102b9f:	c7 40 04 00 00 00 00 	movl   $0x0,0x4(%eax)
  102ba6:	89 d8                	mov    %ebx,%eax
  102ba8:	e9 dd fe ff ff       	jmp    102a8a <calloc+0x2a>
  102bad:	8d 76 00             	lea    0x0(%esi),%esi
  102bb0:	89 ca                	mov    %ecx,%edx
  102bb2:	89 df                	mov    %ebx,%edi
  102bb4:	31 c0                	xor    %eax,%eax
  102bb6:	fc                   	cld    
  102bb7:	83 f9 0b             	cmp    $0xb,%ecx
  102bba:	76 15                	jbe    102bd1 <calloc+0x171>
  102bbc:	89 d9                	mov    %ebx,%ecx
  102bbe:	f7 d9                	neg    %ecx
  102bc0:	83 e1 03             	and    $0x3,%ecx
  102bc3:	29 ca                	sub    %ecx,%edx
  102bc5:	f3 aa                	repz stos %al,%es:(%edi)
  102bc7:	89 d1                	mov    %edx,%ecx
  102bc9:	c1 e9 02             	shr    $0x2,%ecx
  102bcc:	f3 ab                	repz stos %eax,%es:(%edi)
  102bce:	83 e2 03             	and    $0x3,%edx
  102bd1:	89 d1                	mov    %edx,%ecx
  102bd3:	f3 aa                	repz stos %al,%es:(%edi)
  102bd5:	eb cf                	jmp    102ba6 <calloc+0x146>
  102bd7:	3b 45 ec             	cmp    0xffffffec(%ebp),%eax
  102bda:	0f 86 59 ff ff ff    	jbe    102b39 <calloc+0xd9>
  102be0:	8b 45 ec             	mov    0xffffffec(%ebp),%eax
  102be3:	e9 51 ff ff ff       	jmp    102b39 <calloc+0xd9>
  102be8:	81 fb 80 82 10 00    	cmp    $0x108280,%ebx
  102bee:	74 39                	je     102c29 <calloc+0x1c9>
  102bf0:	c7 04 24 90 86 10 00 	movl   $0x108690,(%esp)
  102bf7:	e8 34 20 00 00       	call   104c30 <pthread_mutex_lock>
  102bfc:	89 7c 24 04          	mov    %edi,0x4(%esp)
  102c00:	c7 04 24 80 82 10 00 	movl   $0x108280,(%esp)
  102c07:	e8 b4 ec ff ff       	call   1018c0 <chunk_alloc>
  102c0c:	c7 04 24 90 86 10 00 	movl   $0x108690,(%esp)
  102c13:	89 c6                	mov    %eax,%esi
  102c15:	e8 56 20 00 00       	call   104c70 <pthread_mutex_unlock>
  102c1a:	31 c0                	xor    %eax,%eax
  102c1c:	85 f6                	test   %esi,%esi
  102c1e:	0f 85 f6 fe ff ff    	jne    102b1a <calloc+0xba>
  102c24:	e9 61 fe ff ff       	jmp    102a8a <calloc+0x2a>
  102c29:	c7 04 24 90 86 10 00 	movl   $0x108690,(%esp)
  102c30:	e8 fb 1f 00 00       	call   104c30 <pthread_mutex_lock>
  102c35:	89 7c 24 04          	mov    %edi,0x4(%esp)
  102c39:	31 c0                	xor    %eax,%eax
  102c3b:	83 3d 88 86 10 00 00 	cmpl   $0x0,0x108688
  102c42:	0f 94 c0             	sete   %al
  102c45:	48                   	dec    %eax
  102c46:	25 80 82 10 00       	and    $0x108280,%eax
  102c4b:	89 04 24             	mov    %eax,(%esp)
  102c4e:	e8 6d e9 ff ff       	call   1015c0 <arena_get2>
  102c53:	c7 04 24 90 86 10 00 	movl   $0x108690,(%esp)
  102c5a:	89 c3                	mov    %eax,%ebx
  102c5c:	e8 0f 20 00 00       	call   104c70 <pthread_mutex_unlock>
  102c61:	85 db                	test   %ebx,%ebx
  102c63:	74 b5                	je     102c1a <calloc+0x1ba>
  102c65:	89 7c 24 04          	mov    %edi,0x4(%esp)
  102c69:	89 1c 24             	mov    %ebx,(%esp)
  102c6c:	e8 4f ec ff ff       	call   1018c0 <chunk_alloc>
  102c71:	89 c6                	mov    %eax,%esi
  102c73:	8d 83 10 04 00 00    	lea    0x410(%ebx),%eax
  102c79:	89 04 24             	mov    %eax,(%esp)
  102c7c:	eb 97                	jmp    102c15 <calloc+0x1b5>
  102c7e:	a1 64 92 10 00       	mov    0x109264,%eax
  102c83:	8b 35 c8 86 10 00    	mov    0x1086c8,%esi
  102c89:	8b 4d f0             	mov    0xfffffff0(%ebp),%ecx
  102c8c:	01 f0                	add    %esi,%eax
  102c8e:	29 c8                	sub    %ecx,%eax
  102c90:	39 c2                	cmp    %eax,%edx
  102c92:	0f 83 5e fe ff ff    	jae    102af6 <calloc+0x96>
  102c98:	89 45 ec             	mov    %eax,0xffffffec(%ebp)
  102c9b:	e9 56 fe ff ff       	jmp    102af6 <calloc+0x96>
  102ca0:	83 e7 f8             	and    $0xfffffff8,%edi
  102ca3:	e9 f8 fd ff ff       	jmp    102aa0 <calloc+0x40>
  102ca8:	90                   	nop    
  102ca9:	8d b4 26 00 00 00 00 	lea    0x0(%esi),%esi

00102cb0 <cfree>:
  102cb0:	55                   	push   %ebp
  102cb1:	89 e5                	mov    %esp,%ebp
  102cb3:	5d                   	pop    %ebp
  102cb4:	e9 97 f0 ff ff       	jmp    101d50 <free>
  102cb9:	8d b4 26 00 00 00 00 	lea    0x0(%esi),%esi

00102cc0 <malloc_trim>:
  102cc0:	55                   	push   %ebp
  102cc1:	89 e5                	mov    %esp,%ebp
  102cc3:	83 ec 08             	sub    $0x8,%esp
  102cc6:	c7 04 24 90 86 10 00 	movl   $0x108690,(%esp)
  102ccd:	89 5d fc             	mov    %ebx,0xfffffffc(%ebp)
  102cd0:	e8 5b 1f 00 00       	call   104c30 <pthread_mutex_lock>
  102cd5:	8b 45 08             	mov    0x8(%ebp),%eax
  102cd8:	89 04 24             	mov    %eax,(%esp)
  102cdb:	e8 20 00 00 00       	call   102d00 <main_trim>
  102ce0:	c7 04 24 90 86 10 00 	movl   $0x108690,(%esp)
  102ce7:	89 c3                	mov    %eax,%ebx
  102ce9:	e8 82 1f 00 00       	call   104c70 <pthread_mutex_unlock>
  102cee:	89 d8                	mov    %ebx,%eax
  102cf0:	8b 5d fc             	mov    0xfffffffc(%ebp),%ebx
  102cf3:	89 ec                	mov    %ebp,%esp
  102cf5:	5d                   	pop    %ebp
  102cf6:	c3                   	ret    
  102cf7:	89 f6                	mov    %esi,%esi
  102cf9:	8d bc 27 00 00 00 00 	lea    0x0(%edi),%edi

00102d00 <main_trim>:
  102d00:	55                   	push   %ebp
  102d01:	31 c9                	xor    %ecx,%ecx
  102d03:	89 e5                	mov    %esp,%ebp
  102d05:	83 ec 18             	sub    $0x18,%esp
  102d08:	89 7d fc             	mov    %edi,0xfffffffc(%ebp)
  102d0b:	8b 3d 88 82 10 00    	mov    0x108288,%edi
  102d11:	89 5d f4             	mov    %ebx,0xfffffff4(%ebp)
  102d14:	8b 5d 08             	mov    0x8(%ebp),%ebx
  102d17:	89 75 f8             	mov    %esi,0xfffffff8(%ebp)
  102d1a:	8b 77 04             	mov    0x4(%edi),%esi
  102d1d:	83 e6 fc             	and    $0xfffffffc,%esi
  102d20:	89 f0                	mov    %esi,%eax
  102d22:	29 d8                	sub    %ebx,%eax
  102d24:	05 ef 0f 00 00       	add    $0xfef,%eax
  102d29:	25 00 f0 ff ff       	and    $0xfffff000,%eax
  102d2e:	8d 98 00 f0 ff ff    	lea    0xfffff000(%eax),%ebx
  102d34:	81 fb 00 10 00 00    	cmp    $0x1000,%ebx
  102d3a:	7d 14                	jge    102d50 <main_trim+0x50>
  102d3c:	8b 5d f4             	mov    0xfffffff4(%ebp),%ebx
  102d3f:	89 c8                	mov    %ecx,%eax
  102d41:	8b 75 f8             	mov    0xfffffff8(%ebp),%esi
  102d44:	8b 7d fc             	mov    0xfffffffc(%ebp),%edi
  102d47:	89 ec                	mov    %ebp,%esp
  102d49:	5d                   	pop    %ebp
  102d4a:	c3                   	ret    
  102d4b:	90                   	nop    
  102d4c:	8d 74 26 00          	lea    0x0(%esi),%esi
  102d50:	c7 04 24 00 00 00 00 	movl   $0x0,(%esp)
  102d57:	e8 c4 0b 00 00       	call   103920 <sbrk>
  102d5c:	89 c2                	mov    %eax,%edx
  102d5e:	31 c9                	xor    %ecx,%ecx
  102d60:	8d 04 3e             	lea    (%esi,%edi,1),%eax
  102d63:	39 c2                	cmp    %eax,%edx
  102d65:	75 d5                	jne    102d3c <main_trim+0x3c>
  102d67:	89 d8                	mov    %ebx,%eax
  102d69:	f7 d8                	neg    %eax
  102d6b:	89 04 24             	mov    %eax,(%esp)
  102d6e:	e8 ad 0b 00 00       	call   103920 <sbrk>
  102d73:	40                   	inc    %eax
  102d74:	74 15                	je     102d8b <main_trim+0x8b>
  102d76:	29 1d 8c 86 10 00    	sub    %ebx,0x10868c
  102d7c:	29 de                	sub    %ebx,%esi
  102d7e:	83 ce 01             	or     $0x1,%esi
  102d81:	89 77 04             	mov    %esi,0x4(%edi)
  102d84:	b9 01 00 00 00       	mov    $0x1,%ecx
  102d89:	eb b1                	jmp    102d3c <main_trim+0x3c>
  102d8b:	c7 04 24 00 00 00 00 	movl   $0x0,(%esp)
  102d92:	e8 89 0b 00 00       	call   103920 <sbrk>
  102d97:	89 c6                	mov    %eax,%esi
  102d99:	89 c2                	mov    %eax,%edx
  102d9b:	29 fe                	sub    %edi,%esi
  102d9d:	83 fe 0f             	cmp    $0xf,%esi
  102da0:	7e 14                	jle    102db6 <main_trim+0xb6>
  102da2:	8b 0d c8 86 10 00    	mov    0x1086c8,%ecx
  102da8:	83 ce 01             	or     $0x1,%esi
  102dab:	29 ca                	sub    %ecx,%edx
  102dad:	89 15 8c 86 10 00    	mov    %edx,0x10868c
  102db3:	89 77 04             	mov    %esi,0x4(%edi)
  102db6:	31 c9                	xor    %ecx,%ecx
  102db8:	eb 82                	jmp    102d3c <main_trim+0x3c>
  102dba:	8d b6 00 00 00 00    	lea    0x0(%esi),%esi

00102dc0 <heap_trim>:
  102dc0:	55                   	push   %ebp
  102dc1:	89 e5                	mov    %esp,%ebp
  102dc3:	57                   	push   %edi
  102dc4:	56                   	push   %esi
  102dc5:	53                   	push   %ebx
  102dc6:	83 ec 1c             	sub    $0x1c,%esp
  102dc9:	8b 4d 08             	mov    0x8(%ebp),%ecx
  102dcc:	8b 01                	mov    (%ecx),%eax
  102dce:	8b 50 08             	mov    0x8(%eax),%edx
  102dd1:	89 45 f0             	mov    %eax,0xfffffff0(%ebp)
  102dd4:	8d 41 10             	lea    0x10(%ecx),%eax
  102dd7:	39 c2                	cmp    %eax,%edx
  102dd9:	89 55 ec             	mov    %edx,0xffffffec(%ebp)
  102ddc:	74 72                	je     102e50 <heap_trim+0x90>
  102dde:	8b 45 ec             	mov    0xffffffec(%ebp),%eax
  102de1:	bb 00 10 00 00       	mov    $0x1000,%ebx
  102de6:	31 d2                	xor    %edx,%edx
  102de8:	8b 7d 0c             	mov    0xc(%ebp),%edi
  102deb:	8b 70 04             	mov    0x4(%eax),%esi
  102dee:	83 e6 fc             	and    $0xfffffffc,%esi
  102df1:	89 f0                	mov    %esi,%eax
  102df3:	29 f8                	sub    %edi,%eax
  102df5:	05 ef 0f 00 00       	add    $0xfef,%eax
  102dfa:	f7 f3                	div    %ebx
  102dfc:	31 d2                	xor    %edx,%edx
  102dfe:	8d 58 ff             	lea    0xffffffff(%eax),%ebx
  102e01:	c1 e3 0c             	shl    $0xc,%ebx
  102e04:	81 fb 00 10 00 00    	cmp    $0x1000,%ebx
  102e0a:	7d 0a                	jge    102e16 <heap_trim+0x56>
  102e0c:	83 c4 1c             	add    $0x1c,%esp
  102e0f:	89 d0                	mov    %edx,%eax
  102e11:	5b                   	pop    %ebx
  102e12:	5e                   	pop    %esi
  102e13:	5f                   	pop    %edi
  102e14:	5d                   	pop    %ebp
  102e15:	c3                   	ret    
  102e16:	89 0c 24             	mov    %ecx,(%esp)
  102e19:	89 d8                	mov    %ebx,%eax
  102e1b:	f7 d8                	neg    %eax
  102e1d:	89 44 24 04          	mov    %eax,0x4(%esp)
  102e21:	e8 ea e6 ff ff       	call   101510 <grow_heap>
  102e26:	31 d2                	xor    %edx,%edx
  102e28:	85 c0                	test   %eax,%eax
  102e2a:	75 e0                	jne    102e0c <heap_trim+0x4c>
  102e2c:	29 1d 78 92 10 00    	sub    %ebx,0x109278
  102e32:	29 de                	sub    %ebx,%esi
  102e34:	8b 55 ec             	mov    0xffffffec(%ebp),%edx
  102e37:	8b 45 f0             	mov    0xfffffff0(%ebp),%eax
  102e3a:	83 ce 01             	or     $0x1,%esi
  102e3d:	29 98 0c 04 00 00    	sub    %ebx,0x40c(%eax)
  102e43:	89 72 04             	mov    %esi,0x4(%edx)
  102e46:	ba 01 00 00 00       	mov    $0x1,%edx
  102e4b:	eb bf                	jmp    102e0c <heap_trim+0x4c>
  102e4d:	8d 76 00             	lea    0x0(%esi),%esi
  102e50:	8b 5d 0c             	mov    0xc(%ebp),%ebx
  102e53:	81 c3 00 10 00 00    	add    $0x1000,%ebx
  102e59:	89 5d e4             	mov    %ebx,0xffffffe4(%ebp)
  102e5c:	8d 74 26 00          	lea    0x0(%esi),%esi
  102e60:	8b 71 04             	mov    0x4(%ecx),%esi
  102e63:	8b 7e 08             	mov    0x8(%esi),%edi
  102e66:	8d 04 37             	lea    (%edi,%esi,1),%eax
  102e69:	8b 50 f8             	mov    0xfffffff8(%eax),%edx
  102e6c:	8d 58 f8             	lea    0xfffffff8(%eax),%ebx
  102e6f:	29 d3                	sub    %edx,%ebx
  102e71:	8b 53 04             	mov    0x4(%ebx),%edx
  102e74:	89 d0                	mov    %edx,%eax
  102e76:	83 e0 fc             	and    $0xfffffffc,%eax
  102e79:	83 c0 08             	add    $0x8,%eax
  102e7c:	f6 c2 01             	test   $0x1,%dl
  102e7f:	89 45 e8             	mov    %eax,0xffffffe8(%ebp)
  102e82:	75 07                	jne    102e8b <heap_trim+0xcb>
  102e84:	8b 13                	mov    (%ebx),%edx
  102e86:	01 d0                	add    %edx,%eax
  102e88:	89 45 e8             	mov    %eax,0xffffffe8(%ebp)
  102e8b:	8b 45 e8             	mov    0xffffffe8(%ebp),%eax
  102e8e:	8b 55 e4             	mov    0xffffffe4(%ebp),%edx
  102e91:	29 f8                	sub    %edi,%eax
  102e93:	05 00 00 10 00       	add    $0x100000,%eax
  102e98:	83 c2 10             	add    $0x10,%edx
  102e9b:	39 d0                	cmp    %edx,%eax
  102e9d:	0f 82 3b ff ff ff    	jb     102dde <heap_trim+0x1e>
  102ea3:	8b 55 f0             	mov    0xfffffff0(%ebp),%edx
  102ea6:	8b 79 08             	mov    0x8(%ecx),%edi
  102ea9:	8b 82 0c 04 00 00    	mov    0x40c(%edx),%eax
  102eaf:	29 f8                	sub    %edi,%eax
  102eb1:	89 82 0c 04 00 00    	mov    %eax,0x40c(%edx)
  102eb7:	8b 51 08             	mov    0x8(%ecx),%edx
  102eba:	89 0c 24             	mov    %ecx,(%esp)
  102ebd:	a1 78 92 10 00       	mov    0x109278,%eax
  102ec2:	29 d0                	sub    %edx,%eax
  102ec4:	a3 78 92 10 00       	mov    %eax,0x109278
  102ec9:	b8 00 00 10 00       	mov    $0x100000,%eax
  102ece:	89 44 24 04          	mov    %eax,0x4(%esp)
  102ed2:	e8 09 0a 00 00       	call   1038e0 <munmap>
  102ed7:	f6 43 04 01          	testb  $0x1,0x4(%ebx)
  102edb:	89 f1                	mov    %esi,%ecx
  102edd:	75 10                	jne    102eef <heap_trim+0x12f>
  102edf:	8b 03                	mov    (%ebx),%eax
  102ee1:	29 c3                	sub    %eax,%ebx
  102ee3:	8b 53 0c             	mov    0xc(%ebx),%edx
  102ee6:	8b 43 08             	mov    0x8(%ebx),%eax
  102ee9:	89 50 0c             	mov    %edx,0xc(%eax)
  102eec:	89 42 08             	mov    %eax,0x8(%edx)
  102eef:	83 4d e8 01          	orl    $0x1,0xffffffe8(%ebp)
  102ef3:	8b 45 f0             	mov    0xfffffff0(%ebp),%eax
  102ef6:	89 5d ec             	mov    %ebx,0xffffffec(%ebp)
  102ef9:	8b 55 ec             	mov    0xffffffec(%ebp),%edx
  102efc:	89 58 08             	mov    %ebx,0x8(%eax)
  102eff:	8b 5d e8             	mov    0xffffffe8(%ebp),%ebx
  102f02:	8d 41 10             	lea    0x10(%ecx),%eax
  102f05:	39 c2                	cmp    %eax,%edx
  102f07:	89 5a 04             	mov    %ebx,0x4(%edx)
  102f0a:	0f 84 50 ff ff ff    	je     102e60 <heap_trim+0xa0>
  102f10:	e9 c9 fe ff ff       	jmp    102dde <heap_trim+0x1e>
  102f15:	8d 74 26 00          	lea    0x0(%esi),%esi
  102f19:	8d bc 27 00 00 00 00 	lea    0x0(%edi),%edi

00102f20 <malloc_usable_size>:
  102f20:	55                   	push   %ebp
  102f21:	31 c0                	xor    %eax,%eax
  102f23:	89 e5                	mov    %esp,%ebp
  102f25:	8b 55 08             	mov    0x8(%ebp),%edx
  102f28:	85 d2                	test   %edx,%edx
  102f2a:	74 24                	je     102f50 <malloc_usable_size+0x30>
  102f2c:	8d 4a f8             	lea    0xfffffff8(%edx),%ecx
  102f2f:	8b 51 04             	mov    0x4(%ecx),%edx
  102f32:	f6 c2 02             	test   $0x2,%dl
  102f35:	75 29                	jne    102f60 <malloc_usable_size+0x40>
  102f37:	89 d0                	mov    %edx,%eax
  102f39:	83 e0 fe             	and    $0xfffffffe,%eax
  102f3c:	f6 44 08 04 01       	testb  $0x1,0x4(%eax,%ecx,1)
  102f41:	75 0f                	jne    102f52 <malloc_usable_size+0x32>
  102f43:	31 c0                	xor    %eax,%eax
  102f45:	8d 74 26 00          	lea    0x0(%esi),%esi
  102f49:	8d bc 27 00 00 00 00 	lea    0x0(%edi),%edi
  102f50:	5d                   	pop    %ebp
  102f51:	c3                   	ret    
  102f52:	83 e2 fc             	and    $0xfffffffc,%edx
  102f55:	8d 42 fc             	lea    0xfffffffc(%edx),%eax
  102f58:	eb f6                	jmp    102f50 <malloc_usable_size+0x30>
  102f5a:	8d b6 00 00 00 00    	lea    0x0(%esi),%esi
  102f60:	83 e2 fc             	and    $0xfffffffc,%edx
  102f63:	8d 42 f8             	lea    0xfffffff8(%edx),%eax
  102f66:	eb e8                	jmp    102f50 <malloc_usable_size+0x30>
  102f68:	90                   	nop    
  102f69:	8d b4 26 00 00 00 00 	lea    0x0(%esi),%esi

00102f70 <malloc_update_mallinfo>:
  102f70:	55                   	push   %ebp
  102f71:	89 e5                	mov    %esp,%ebp
  102f73:	57                   	push   %edi
  102f74:	bf 7e 00 00 00       	mov    $0x7e,%edi
  102f79:	56                   	push   %esi
  102f7a:	53                   	push   %ebx
  102f7b:	83 ec 1c             	sub    $0x1c,%esp
  102f7e:	8b 45 08             	mov    0x8(%ebp),%eax
  102f81:	8b 55 0c             	mov    0xc(%ebp),%edx
  102f84:	89 45 f0             	mov    %eax,0xfffffff0(%ebp)
  102f87:	05 10 04 00 00       	add    $0x410,%eax
  102f8c:	89 55 ec             	mov    %edx,0xffffffec(%ebp)
  102f8f:	89 45 e8             	mov    %eax,0xffffffe8(%ebp)
  102f92:	89 04 24             	mov    %eax,(%esp)
  102f95:	e8 96 1c 00 00       	call   104c30 <pthread_mutex_lock>
  102f9a:	8b 45 f0             	mov    0xfffffff0(%ebp),%eax
  102f9d:	31 c9                	xor    %ecx,%ecx
  102f9f:	8b 5d f0             	mov    0xfffffff0(%ebp),%ebx
  102fa2:	8b 40 08             	mov    0x8(%eax),%eax
  102fa5:	8b 70 04             	mov    0x4(%eax),%esi
  102fa8:	89 45 e4             	mov    %eax,0xffffffe4(%ebp)
  102fab:	83 e6 fc             	and    $0xfffffffc,%esi
  102fae:	83 fe 0f             	cmp    $0xf,%esi
  102fb1:	0f 9f c1             	setg   %cl
  102fb4:	83 c3 08             	add    $0x8,%ebx
  102fb7:	89 f6                	mov    %esi,%esi
  102fb9:	8d bc 27 00 00 00 00 	lea    0x0(%edi),%edi
  102fc0:	8b 53 0c             	mov    0xc(%ebx),%edx
  102fc3:	39 da                	cmp    %ebx,%edx
  102fc5:	74 19                	je     102fe0 <malloc_update_mallinfo+0x70>
  102fc7:	89 f6                	mov    %esi,%esi
  102fc9:	8d bc 27 00 00 00 00 	lea    0x0(%edi),%edi
  102fd0:	8b 42 04             	mov    0x4(%edx),%eax
  102fd3:	41                   	inc    %ecx
  102fd4:	8b 52 0c             	mov    0xc(%edx),%edx
  102fd7:	83 e0 fc             	and    $0xfffffffc,%eax
  102fda:	01 c6                	add    %eax,%esi
  102fdc:	39 da                	cmp    %ebx,%edx
  102fde:	75 f0                	jne    102fd0 <malloc_update_mallinfo+0x60>
  102fe0:	83 c3 08             	add    $0x8,%ebx
  102fe3:	4f                   	dec    %edi
  102fe4:	79 da                	jns    102fc0 <malloc_update_mallinfo+0x50>
  102fe6:	8b 55 f0             	mov    0xfffffff0(%ebp),%edx
  102fe9:	8b 82 0c 04 00 00    	mov    0x40c(%edx),%eax
  102fef:	8b 55 ec             	mov    0xffffffec(%ebp),%edx
  102ff2:	89 02                	mov    %eax,(%edx)
  102ff4:	89 4a 04             	mov    %ecx,0x4(%edx)
  102ff7:	c7 42 18 00 00 00 00 	movl   $0x0,0x18(%edx)
  102ffe:	c7 42 14 00 00 00 00 	movl   $0x0,0x14(%edx)
  103005:	c7 42 08 00 00 00 00 	movl   $0x0,0x8(%edx)
  10300c:	8b 55 f0             	mov    0xfffffff0(%ebp),%edx
  10300f:	8b 82 0c 04 00 00    	mov    0x40c(%edx),%eax
  103015:	8b 55 ec             	mov    0xffffffec(%ebp),%edx
  103018:	29 f0                	sub    %esi,%eax
  10301a:	89 42 1c             	mov    %eax,0x1c(%edx)
  10301d:	a1 68 92 10 00       	mov    0x109268,%eax
  103022:	89 72 20             	mov    %esi,0x20(%edx)
  103025:	89 42 0c             	mov    %eax,0xc(%edx)
  103028:	a1 70 92 10 00       	mov    0x109270,%eax
  10302d:	89 42 10             	mov    %eax,0x10(%edx)
  103030:	8b 55 e4             	mov    0xffffffe4(%ebp),%edx
  103033:	8b 42 04             	mov    0x4(%edx),%eax
  103036:	8b 55 ec             	mov    0xffffffec(%ebp),%edx
  103039:	83 e0 fc             	and    $0xfffffffc,%eax
  10303c:	89 42 24             	mov    %eax,0x24(%edx)
  10303f:	8b 45 e8             	mov    0xffffffe8(%ebp),%eax
  103042:	89 45 08             	mov    %eax,0x8(%ebp)
  103045:	83 c4 1c             	add    $0x1c,%esp
  103048:	5b                   	pop    %ebx
  103049:	5e                   	pop    %esi
  10304a:	5f                   	pop    %edi
  10304b:	5d                   	pop    %ebp
  10304c:	e9 1f 1c 00 00       	jmp    104c70 <pthread_mutex_unlock>
  103051:	eb 0d                	jmp    103060 <malloc_stats>
  103053:	90                   	nop    
  103054:	90                   	nop    
  103055:	90                   	nop    
  103056:	90                   	nop    
  103057:	90                   	nop    
  103058:	90                   	nop    
  103059:	90                   	nop    
  10305a:	90                   	nop    
  10305b:	90                   	nop    
  10305c:	90                   	nop    
  10305d:	90                   	nop    
  10305e:	90                   	nop    
  10305f:	90                   	nop    

00103060 <malloc_stats>:
  103060:	55                   	push   %ebp
  103061:	89 e5                	mov    %esp,%ebp
  103063:	57                   	push   %edi
  103064:	56                   	push   %esi
  103065:	53                   	push   %ebx
  103066:	83 ec 5c             	sub    $0x5c,%esp
  103069:	bb 80 82 10 00       	mov    $0x108280,%ebx
  10306e:	c7 45 b4 00 00 00 00 	movl   $0x0,0xffffffb4(%ebp)
  103075:	8b 3d 70 92 10 00    	mov    0x109270,%edi
  10307b:	89 fe                	mov    %edi,%esi
  10307d:	8d 76 00             	lea    0x0(%esi),%esi
  103080:	89 1c 24             	mov    %ebx,(%esp)
  103083:	8d 45 b8             	lea    0xffffffb8(%ebp),%eax
  103086:	89 44 24 04          	mov    %eax,0x4(%esp)
  10308a:	e8 e1 fe ff ff       	call   102f70 <malloc_update_mallinfo>
  10308f:	8b 45 b4             	mov    0xffffffb4(%ebp),%eax
  103092:	ba f8 71 10 00       	mov    $0x1071f8,%edx
  103097:	89 54 24 04          	mov    %edx,0x4(%esp)
  10309b:	89 44 24 08          	mov    %eax,0x8(%esp)
  10309f:	a1 00 87 10 00       	mov    0x108700,%eax
  1030a4:	89 04 24             	mov    %eax,(%esp)
  1030a7:	e8 44 16 00 00       	call   1046f0 <fprintf>
  1030ac:	8b 45 b8             	mov    0xffffffb8(%ebp),%eax
  1030af:	89 44 24 08          	mov    %eax,0x8(%esp)
  1030b3:	b8 03 72 10 00       	mov    $0x107203,%eax
  1030b8:	89 44 24 04          	mov    %eax,0x4(%esp)
  1030bc:	a1 00 87 10 00       	mov    0x108700,%eax
  1030c1:	89 04 24             	mov    %eax,(%esp)
  1030c4:	e8 27 16 00 00       	call   1046f0 <fprintf>
  1030c9:	8b 45 d4             	mov    0xffffffd4(%ebp),%eax
  1030cc:	89 44 24 08          	mov    %eax,0x8(%esp)
  1030d0:	b8 1c 72 10 00       	mov    $0x10721c,%eax
  1030d5:	89 44 24 04          	mov    %eax,0x4(%esp)
  1030d9:	a1 00 87 10 00       	mov    0x108700,%eax
  1030de:	89 04 24             	mov    %eax,(%esp)
  1030e1:	e8 0a 16 00 00       	call   1046f0 <fprintf>
  1030e6:	8b 45 b8             	mov    0xffffffb8(%ebp),%eax
  1030e9:	8b 9b 08 04 00 00    	mov    0x408(%ebx),%ebx
  1030ef:	01 c6                	add    %eax,%esi
  1030f1:	8b 45 d4             	mov    0xffffffd4(%ebp),%eax
  1030f4:	01 c7                	add    %eax,%edi
  1030f6:	81 fb 80 82 10 00    	cmp    $0x108280,%ebx
  1030fc:	74 08                	je     103106 <malloc_stats+0xa6>
  1030fe:	ff 45 b4             	incl   0xffffffb4(%ebp)
  103101:	e9 7a ff ff ff       	jmp    103080 <malloc_stats+0x20>
  103106:	b8 35 72 10 00       	mov    $0x107235,%eax
  10310b:	bb 4a 72 10 00       	mov    $0x10724a,%ebx
  103110:	89 44 24 04          	mov    %eax,0x4(%esp)
  103114:	a1 00 87 10 00       	mov    0x108700,%eax
  103119:	89 04 24             	mov    %eax,(%esp)
  10311c:	e8 cf 15 00 00       	call   1046f0 <fprintf>
  103121:	89 74 24 08          	mov    %esi,0x8(%esp)
  103125:	b8 03 72 10 00       	mov    $0x107203,%eax
  10312a:	be 1c 72 10 00       	mov    $0x10721c,%esi
  10312f:	89 44 24 04          	mov    %eax,0x4(%esp)
  103133:	a1 00 87 10 00       	mov    0x108700,%eax
  103138:	89 04 24             	mov    %eax,(%esp)
  10313b:	e8 b0 15 00 00       	call   1046f0 <fprintf>
  103140:	89 7c 24 08          	mov    %edi,0x8(%esp)
  103144:	a1 00 87 10 00       	mov    0x108700,%eax
  103149:	89 74 24 04          	mov    %esi,0x4(%esp)
  10314d:	89 04 24             	mov    %eax,(%esp)
  103150:	e8 9b 15 00 00       	call   1046f0 <fprintf>
  103155:	89 5c 24 04          	mov    %ebx,0x4(%esp)
  103159:	a1 6c 92 10 00       	mov    0x10926c,%eax
  10315e:	89 44 24 08          	mov    %eax,0x8(%esp)
  103162:	a1 00 87 10 00       	mov    0x108700,%eax
  103167:	89 04 24             	mov    %eax,(%esp)
  10316a:	e8 81 15 00 00       	call   1046f0 <fprintf>
  10316f:	a1 74 92 10 00       	mov    0x109274,%eax
  103174:	b9 63 72 10 00       	mov    $0x107263,%ecx
  103179:	89 4c 24 04          	mov    %ecx,0x4(%esp)
  10317d:	89 44 24 08          	mov    %eax,0x8(%esp)
  103181:	a1 00 87 10 00       	mov    0x108700,%eax
  103186:	89 04 24             	mov    %eax,(%esp)
  103189:	e8 62 15 00 00       	call   1046f0 <fprintf>
  10318e:	83 c4 5c             	add    $0x5c,%esp
  103191:	5b                   	pop    %ebx
  103192:	5e                   	pop    %esi
  103193:	5f                   	pop    %edi
  103194:	5d                   	pop    %ebp
  103195:	c3                   	ret    
  103196:	8d 76 00             	lea    0x0(%esi),%esi
  103199:	8d bc 27 00 00 00 00 	lea    0x0(%edi),%edi

001031a0 <mallinfo>:
  1031a0:	55                   	push   %ebp
  1031a1:	89 e5                	mov    %esp,%ebp
  1031a3:	53                   	push   %ebx
  1031a4:	83 ec 44             	sub    $0x44,%esp
  1031a7:	8b 5d 08             	mov    0x8(%ebp),%ebx
  1031aa:	e8 f1 1a 00 00       	call   104ca0 <pthread_self>
  1031af:	25 ff 00 00 00       	and    $0xff,%eax
  1031b4:	8b 14 85 80 92 10 00 	mov    0x109280(,%eax,4),%edx
  1031bb:	8d 45 c8             	lea    0xffffffc8(%ebp),%eax
  1031be:	89 44 24 04          	mov    %eax,0x4(%esp)
  1031c2:	85 d2                	test   %edx,%edx
  1031c4:	89 d0                	mov    %edx,%eax
  1031c6:	74 4d                	je     103215 <mallinfo+0x75>
  1031c8:	89 04 24             	mov    %eax,(%esp)
  1031cb:	e8 a0 fd ff ff       	call   102f70 <malloc_update_mallinfo>
  1031d0:	8b 45 c8             	mov    0xffffffc8(%ebp),%eax
  1031d3:	89 03                	mov    %eax,(%ebx)
  1031d5:	8b 45 cc             	mov    0xffffffcc(%ebp),%eax
  1031d8:	89 43 04             	mov    %eax,0x4(%ebx)
  1031db:	8b 45 d0             	mov    0xffffffd0(%ebp),%eax
  1031de:	89 43 08             	mov    %eax,0x8(%ebx)
  1031e1:	8b 45 d4             	mov    0xffffffd4(%ebp),%eax
  1031e4:	89 43 0c             	mov    %eax,0xc(%ebx)
  1031e7:	8b 45 d8             	mov    0xffffffd8(%ebp),%eax
  1031ea:	89 43 10             	mov    %eax,0x10(%ebx)
  1031ed:	8b 45 dc             	mov    0xffffffdc(%ebp),%eax
  1031f0:	89 43 14             	mov    %eax,0x14(%ebx)
  1031f3:	8b 45 e0             	mov    0xffffffe0(%ebp),%eax
  1031f6:	89 43 18             	mov    %eax,0x18(%ebx)
  1031f9:	8b 45 e4             	mov    0xffffffe4(%ebp),%eax
  1031fc:	89 43 1c             	mov    %eax,0x1c(%ebx)
  1031ff:	8b 45 e8             	mov    0xffffffe8(%ebp),%eax
  103202:	89 43 20             	mov    %eax,0x20(%ebx)
  103205:	8b 45 ec             	mov    0xffffffec(%ebp),%eax
  103208:	89 43 24             	mov    %eax,0x24(%ebx)
  10320b:	83 c4 44             	add    $0x44,%esp
  10320e:	89 d8                	mov    %ebx,%eax
  103210:	5b                   	pop    %ebx
  103211:	5d                   	pop    %ebp
  103212:	c2 04 00             	ret    $0x4
  103215:	b8 80 82 10 00       	mov    $0x108280,%eax
  10321a:	eb ac                	jmp    1031c8 <mallinfo+0x28>
  10321c:	8d 74 26 00          	lea    0x0(%esi),%esi

00103220 <mallopt>:
  103220:	55                   	push   %ebp
  103221:	31 c0                	xor    %eax,%eax
  103223:	89 e5                	mov    %esp,%ebp
  103225:	8b 55 08             	mov    0x8(%ebp),%edx
  103228:	8b 4d 0c             	mov    0xc(%ebp),%ecx
  10322b:	83 c2 05             	add    $0x5,%edx
  10322e:	83 fa 04             	cmp    $0x4,%edx
  103231:	77 12                	ja     103245 <mallopt+0x25>
  103233:	ff 24 95 00 70 10 00 	jmp    *0x107000(,%edx,4)
  10323a:	89 0d b8 86 10 00    	mov    %ecx,0x1086b8
  103240:	b8 01 00 00 00       	mov    $0x1,%eax
  103245:	5d                   	pop    %ebp
  103246:	c3                   	ret    
  103247:	89 0d c4 86 10 00    	mov    %ecx,0x1086c4
  10324d:	eb f1                	jmp    103240 <mallopt+0x20>
  10324f:	89 0d bc 86 10 00    	mov    %ecx,0x1086bc
  103255:	eb e9                	jmp    103240 <mallopt+0x20>
  103257:	31 c0                	xor    %eax,%eax
  103259:	81 f9 00 00 08 00    	cmp    $0x80000,%ecx
  10325f:	77 e4                	ja     103245 <mallopt+0x25>
  103261:	89 0d c0 86 10 00    	mov    %ecx,0x1086c0
  103267:	eb d7                	jmp    103240 <mallopt+0x20>
  103269:	89 0d 60 92 10 00    	mov    %ecx,0x109260
  10326f:	eb cf                	jmp    103240 <mallopt+0x20>
  103271:	eb 0d                	jmp    103280 <malloc_get_state>
  103273:	90                   	nop    
  103274:	90                   	nop    
  103275:	90                   	nop    
  103276:	90                   	nop    
  103277:	90                   	nop    
  103278:	90                   	nop    
  103279:	90                   	nop    
  10327a:	90                   	nop    
  10327b:	90                   	nop    
  10327c:	90                   	nop    
  10327d:	90                   	nop    
  10327e:	90                   	nop    
  10327f:	90                   	nop    

00103280 <malloc_get_state>:
  103280:	55                   	push   %ebp
  103281:	89 e5                	mov    %esp,%ebp
  103283:	53                   	push   %ebx
  103284:	83 ec 04             	sub    $0x4,%esp
  103287:	c7 04 24 48 04 00 00 	movl   $0x448,(%esp)
  10328e:	e8 dd e4 ff ff       	call   101770 <malloc>
  103293:	89 c3                	mov    %eax,%ebx
  103295:	31 c0                	xor    %eax,%eax
  103297:	85 db                	test   %ebx,%ebx
  103299:	0f 84 f2 00 00 00    	je     103391 <malloc_get_state+0x111>
  10329f:	c7 04 24 90 86 10 00 	movl   $0x108690,(%esp)
  1032a6:	e8 85 19 00 00       	call   104c30 <pthread_mutex_lock>
  1032ab:	c7 03 41 45 4c 44    	movl   $0x444c4541,(%ebx)
  1032b1:	a1 80 82 10 00       	mov    0x108280,%eax
  1032b6:	31 d2                	xor    %edx,%edx
  1032b8:	c7 43 04 01 00 00 00 	movl   $0x1,0x4(%ebx)
  1032bf:	b9 80 82 10 00       	mov    $0x108280,%ecx
  1032c4:	89 43 08             	mov    %eax,0x8(%ebx)
  1032c7:	a1 84 82 10 00       	mov    0x108284,%eax
  1032cc:	89 43 0c             	mov    %eax,0xc(%ebx)
  1032cf:	90                   	nop    
  1032d0:	8b 41 08             	mov    0x8(%ecx),%eax
  1032d3:	39 c8                	cmp    %ecx,%eax
  1032d5:	0f 84 ba 00 00 00    	je     103395 <malloc_get_state+0x115>
  1032db:	89 44 d3 10          	mov    %eax,0x10(%ebx,%edx,8)
  1032df:	8b 41 0c             	mov    0xc(%ecx),%eax
  1032e2:	89 44 d3 14          	mov    %eax,0x14(%ebx,%edx,8)
  1032e6:	42                   	inc    %edx
  1032e7:	83 c1 08             	add    $0x8,%ecx
  1032ea:	83 fa 7f             	cmp    $0x7f,%edx
  1032ed:	7e e1                	jle    1032d0 <malloc_get_state+0x50>
  1032ef:	c7 04 24 90 86 10 00 	movl   $0x108690,(%esp)
  1032f6:	a1 c8 86 10 00       	mov    0x1086c8,%eax
  1032fb:	89 83 10 04 00 00    	mov    %eax,0x410(%ebx)
  103301:	a1 8c 86 10 00       	mov    0x10868c,%eax
  103306:	89 83 14 04 00 00    	mov    %eax,0x414(%ebx)
  10330c:	a1 b8 86 10 00       	mov    0x1086b8,%eax
  103311:	89 83 18 04 00 00    	mov    %eax,0x418(%ebx)
  103317:	a1 60 92 10 00       	mov    0x109260,%eax
  10331c:	89 83 1c 04 00 00    	mov    %eax,0x41c(%ebx)
  103322:	a1 bc 86 10 00       	mov    0x1086bc,%eax
  103327:	89 83 20 04 00 00    	mov    %eax,0x420(%ebx)
  10332d:	a1 c0 86 10 00       	mov    0x1086c0,%eax
  103332:	89 83 24 04 00 00    	mov    %eax,0x424(%ebx)
  103338:	a1 c4 86 10 00       	mov    0x1086c4,%eax
  10333d:	89 83 28 04 00 00    	mov    %eax,0x428(%ebx)
  103343:	a1 64 92 10 00       	mov    0x109264,%eax
  103348:	89 83 2c 04 00 00    	mov    %eax,0x42c(%ebx)
  10334e:	31 c0                	xor    %eax,%eax
  103350:	89 83 30 04 00 00    	mov    %eax,0x430(%ebx)
  103356:	a1 68 92 10 00       	mov    0x109268,%eax
  10335b:	89 83 34 04 00 00    	mov    %eax,0x434(%ebx)
  103361:	a1 6c 92 10 00       	mov    0x10926c,%eax
  103366:	89 83 38 04 00 00    	mov    %eax,0x438(%ebx)
  10336c:	a1 70 92 10 00       	mov    0x109270,%eax
  103371:	89 83 3c 04 00 00    	mov    %eax,0x43c(%ebx)
  103377:	a1 74 92 10 00       	mov    0x109274,%eax
  10337c:	89 83 40 04 00 00    	mov    %eax,0x440(%ebx)
  103382:	31 c0                	xor    %eax,%eax
  103384:	89 83 44 04 00 00    	mov    %eax,0x444(%ebx)
  10338a:	e8 e1 18 00 00       	call   104c70 <pthread_mutex_unlock>
  10338f:	89 d8                	mov    %ebx,%eax
  103391:	59                   	pop    %ecx
  103392:	5b                   	pop    %ebx
  103393:	5d                   	pop    %ebp
  103394:	c3                   	ret    
  103395:	31 c0                	xor    %eax,%eax
  103397:	89 44 d3 14          	mov    %eax,0x14(%ebx,%edx,8)
  10339b:	31 c0                	xor    %eax,%eax
  10339d:	89 44 d3 10          	mov    %eax,0x10(%ebx,%edx,8)
  1033a1:	e9 40 ff ff ff       	jmp    1032e6 <malloc_get_state+0x66>
  1033a6:	8d 76 00             	lea    0x0(%esi),%esi
  1033a9:	8d bc 27 00 00 00 00 	lea    0x0(%edi),%edi

001033b0 <malloc_set_state>:
  1033b0:	55                   	push   %ebp
  1033b1:	89 e5                	mov    %esp,%ebp
  1033b3:	56                   	push   %esi
  1033b4:	53                   	push   %ebx
  1033b5:	83 ec 10             	sub    $0x10,%esp
  1033b8:	8b 75 08             	mov    0x8(%ebp),%esi
  1033bb:	e8 60 df ff ff       	call   101320 <ptmalloc_init>
  1033c0:	81 3e 41 45 4c 44    	cmpl   $0x444c4541,(%esi)
  1033c6:	0f 85 0f 01 00 00    	jne    1034db <malloc_set_state+0x12b>
  1033cc:	f7 46 04 00 ff ff ff 	testl  $0xffffff00,0x4(%esi)
  1033d3:	0f 8f fb 00 00 00    	jg     1034d4 <malloc_set_state+0x124>
  1033d9:	c7 04 24 90 86 10 00 	movl   $0x108690,(%esp)
  1033e0:	31 db                	xor    %ebx,%ebx
  1033e2:	e8 49 18 00 00       	call   104c30 <pthread_mutex_lock>
  1033e7:	8b 46 08             	mov    0x8(%esi),%eax
  1033ea:	b9 80 82 10 00       	mov    $0x108280,%ecx
  1033ef:	a3 80 82 10 00       	mov    %eax,0x108280
  1033f4:	8b 46 0c             	mov    0xc(%esi),%eax
  1033f7:	a3 84 82 10 00       	mov    %eax,0x108284
  1033fc:	8d 74 26 00          	lea    0x0(%esi),%esi
  103400:	8b 54 de 10          	mov    0x10(%esi,%ebx,8),%edx
  103404:	85 d2                	test   %edx,%edx
  103406:	0f 85 a8 00 00 00    	jne    1034b4 <malloc_set_state+0x104>
  10340c:	89 49 0c             	mov    %ecx,0xc(%ecx)
  10340f:	89 49 08             	mov    %ecx,0x8(%ecx)
  103412:	43                   	inc    %ebx
  103413:	83 c1 08             	add    $0x8,%ecx
  103416:	83 fb 7f             	cmp    $0x7f,%ebx
  103419:	7e e5                	jle    103400 <malloc_set_state+0x50>
  10341b:	8b 86 10 04 00 00    	mov    0x410(%esi),%eax
  103421:	a3 c8 86 10 00       	mov    %eax,0x1086c8
  103426:	8b 86 14 04 00 00    	mov    0x414(%esi),%eax
  10342c:	a3 8c 86 10 00       	mov    %eax,0x10868c
  103431:	8b 86 18 04 00 00    	mov    0x418(%esi),%eax
  103437:	a3 b8 86 10 00       	mov    %eax,0x1086b8
  10343c:	8b 86 1c 04 00 00    	mov    0x41c(%esi),%eax
  103442:	a3 60 92 10 00       	mov    %eax,0x109260
  103447:	8b 86 20 04 00 00    	mov    0x420(%esi),%eax
  10344d:	a3 bc 86 10 00       	mov    %eax,0x1086bc
  103452:	8b 86 24 04 00 00    	mov    0x424(%esi),%eax
  103458:	a3 c0 86 10 00       	mov    %eax,0x1086c0
  10345d:	8b 86 28 04 00 00    	mov    0x428(%esi),%eax
  103463:	a3 c4 86 10 00       	mov    %eax,0x1086c4
  103468:	8b 86 2c 04 00 00    	mov    0x42c(%esi),%eax
  10346e:	a3 64 92 10 00       	mov    %eax,0x109264
  103473:	8b 86 34 04 00 00    	mov    0x434(%esi),%eax
  103479:	a3 68 92 10 00       	mov    %eax,0x109268
  10347e:	8b 86 38 04 00 00    	mov    0x438(%esi),%eax
  103484:	a3 6c 92 10 00       	mov    %eax,0x10926c
  103489:	8b 86 3c 04 00 00    	mov    0x43c(%esi),%eax
  10348f:	a3 70 92 10 00       	mov    %eax,0x109270
  103494:	8b 86 40 04 00 00    	mov    0x440(%esi),%eax
  10349a:	c7 04 24 90 86 10 00 	movl   $0x108690,(%esp)
  1034a1:	a3 74 92 10 00       	mov    %eax,0x109274
  1034a6:	e8 c5 17 00 00       	call   104c70 <pthread_mutex_unlock>
  1034ab:	31 c0                	xor    %eax,%eax
  1034ad:	83 c4 10             	add    $0x10,%esp
  1034b0:	5b                   	pop    %ebx
  1034b1:	5e                   	pop    %esi
  1034b2:	5d                   	pop    %ebp
  1034b3:	c3                   	ret    
  1034b4:	89 51 08             	mov    %edx,0x8(%ecx)
  1034b7:	85 db                	test   %ebx,%ebx
  1034b9:	8b 44 de 14          	mov    0x14(%esi,%ebx,8),%eax
  1034bd:	89 41 0c             	mov    %eax,0xc(%ecx)
  1034c0:	0f 8e 4c ff ff ff    	jle    103412 <malloc_set_state+0x62>
  1034c6:	89 4a 0c             	mov    %ecx,0xc(%edx)
  1034c9:	8b 41 0c             	mov    0xc(%ecx),%eax
  1034cc:	89 48 08             	mov    %ecx,0x8(%eax)
  1034cf:	e9 3e ff ff ff       	jmp    103412 <malloc_set_state+0x62>
  1034d4:	b8 fe ff ff ff       	mov    $0xfffffffe,%eax
  1034d9:	eb d2                	jmp    1034ad <malloc_set_state+0xfd>
  1034db:	b8 ff ff ff ff       	mov    $0xffffffff,%eax
  1034e0:	eb cb                	jmp    1034ad <malloc_set_state+0xfd>
  1034e2:	8d b4 26 00 00 00 00 	lea    0x0(%esi),%esi
  1034e9:	8d bc 27 00 00 00 00 	lea    0x0(%edi),%edi

001034f0 <malloc_extend_top>:
  1034f0:	55                   	push   %ebp
  1034f1:	89 e5                	mov    %esp,%ebp
  1034f3:	83 ec 38             	sub    $0x38,%esp
  1034f6:	89 7d fc             	mov    %edi,0xfffffffc(%ebp)
  1034f9:	8b 7d 08             	mov    0x8(%ebp),%edi
  1034fc:	89 5d f4             	mov    %ebx,0xfffffff4(%ebp)
  1034ff:	8b 5d 0c             	mov    0xc(%ebp),%ebx
  103502:	89 75 f8             	mov    %esi,0xfffffff8(%ebp)
  103505:	8b 77 08             	mov    0x8(%edi),%esi
  103508:	8b 46 04             	mov    0x4(%esi),%eax
  10350b:	83 e0 fc             	and    $0xfffffffc,%eax
  10350e:	81 ff 80 82 10 00    	cmp    $0x108280,%edi
  103514:	89 45 f0             	mov    %eax,0xfffffff0(%ebp)
  103517:	0f 84 33 01 00 00    	je     103650 <malloc_extend_top+0x160>
  10351d:	83 7d f0 0f          	cmpl   $0xf,0xfffffff0(%ebp)
  103521:	76 0d                	jbe    103530 <malloc_extend_top+0x40>
  103523:	8d 43 10             	lea    0x10(%ebx),%eax
  103526:	3b 45 f0             	cmp    0xfffffff0(%ebp),%eax
  103529:	77 15                	ja     103540 <malloc_extend_top+0x50>
  10352b:	90                   	nop    
  10352c:	8d 74 26 00          	lea    0x0(%esi),%esi
  103530:	8b 5d f4             	mov    0xfffffff4(%ebp),%ebx
  103533:	8b 75 f8             	mov    0xfffffff8(%ebp),%esi
  103536:	8b 7d fc             	mov    0xfffffffc(%ebp),%edi
  103539:	89 ec                	mov    %ebp,%esp
  10353b:	5d                   	pop    %ebp
  10353c:	c3                   	ret    
  10353d:	8d 76 00             	lea    0x0(%esi),%esi
  103540:	89 f0                	mov    %esi,%eax
  103542:	25 00 00 f0 ff       	and    $0xfff00000,%eax
  103547:	8b 50 08             	mov    0x8(%eax),%edx
  10354a:	89 45 e0             	mov    %eax,0xffffffe0(%ebp)
  10354d:	89 d8                	mov    %ebx,%eax
  10354f:	89 55 dc             	mov    %edx,0xffffffdc(%ebp)
  103552:	8b 55 f0             	mov    0xfffffff0(%ebp),%edx
  103555:	29 d0                	sub    %edx,%eax
  103557:	83 c0 10             	add    $0x10,%eax
  10355a:	89 44 24 04          	mov    %eax,0x4(%esp)
  10355e:	8b 45 e0             	mov    0xffffffe0(%ebp),%eax
  103561:	89 04 24             	mov    %eax,(%esp)
  103564:	e8 a7 df ff ff       	call   101510 <grow_heap>
  103569:	85 c0                	test   %eax,%eax
  10356b:	75 30                	jne    10359d <malloc_extend_top+0xad>
  10356d:	8b 55 e0             	mov    0xffffffe0(%ebp),%edx
  103570:	8b 4d dc             	mov    0xffffffdc(%ebp),%ecx
  103573:	8b 5d e0             	mov    0xffffffe0(%ebp),%ebx
  103576:	8b 42 08             	mov    0x8(%edx),%eax
  103579:	29 c8                	sub    %ecx,%eax
  10357b:	01 87 0c 04 00 00    	add    %eax,0x40c(%edi)
  103581:	8b 7d dc             	mov    0xffffffdc(%ebp),%edi
  103584:	8b 42 08             	mov    0x8(%edx),%eax
  103587:	89 c2                	mov    %eax,%edx
  103589:	29 fa                	sub    %edi,%edx
  10358b:	01 d8                	add    %ebx,%eax
  10358d:	01 15 78 92 10 00    	add    %edx,0x109278
  103593:	29 f0                	sub    %esi,%eax
  103595:	83 c8 01             	or     $0x1,%eax
  103598:	89 46 04             	mov    %eax,0x4(%esi)
  10359b:	eb 93                	jmp    103530 <malloc_extend_top+0x40>
  10359d:	8d 43 20             	lea    0x20(%ebx),%eax
  1035a0:	89 04 24             	mov    %eax,(%esp)
  1035a3:	e8 58 de ff ff       	call   101400 <new_heap>
  1035a8:	85 c0                	test   %eax,%eax
  1035aa:	89 c2                	mov    %eax,%edx
  1035ac:	74 82                	je     103530 <malloc_extend_top+0x40>
  1035ae:	89 38                	mov    %edi,(%eax)
  1035b0:	8b 45 e0             	mov    0xffffffe0(%ebp),%eax
  1035b3:	89 42 04             	mov    %eax,0x4(%edx)
  1035b6:	8b 42 08             	mov    0x8(%edx),%eax
  1035b9:	01 87 0c 04 00 00    	add    %eax,0x40c(%edi)
  1035bf:	8b 42 08             	mov    0x8(%edx),%eax
  1035c2:	83 c2 10             	add    $0x10,%edx
  1035c5:	01 05 78 92 10 00    	add    %eax,0x109278
  1035cb:	83 e8 10             	sub    $0x10,%eax
  1035ce:	83 c8 01             	or     $0x1,%eax
  1035d1:	89 57 08             	mov    %edx,0x8(%edi)
  1035d4:	89 42 04             	mov    %eax,0x4(%edx)
  1035d7:	89 f6                	mov    %esi,%esi
  1035d9:	8d bc 27 00 00 00 00 	lea    0x0(%edi),%edi
  1035e0:	85 f6                	test   %esi,%esi
  1035e2:	0f 84 48 ff ff ff    	je     103530 <malloc_extend_top+0x40>
  1035e8:	83 6d f0 10          	subl   $0x10,0xfffffff0(%ebp)
  1035ec:	b9 01 00 00 00       	mov    $0x1,%ecx
  1035f1:	8b 55 f0             	mov    0xfffffff0(%ebp),%edx
  1035f4:	89 4c 32 0c          	mov    %ecx,0xc(%edx,%esi,1)
  1035f8:	83 fa 0f             	cmp    $0xf,%edx
  1035fb:	77 1a                	ja     103617 <malloc_extend_top+0x127>
  1035fd:	8b 55 f0             	mov    0xfffffff0(%ebp),%edx
  103600:	83 c2 08             	add    $0x8,%edx
  103603:	89 d0                	mov    %edx,%eax
  103605:	83 c8 01             	or     $0x1,%eax
  103608:	89 46 04             	mov    %eax,0x4(%esi)
  10360b:	8b 45 f0             	mov    0xfffffff0(%ebp),%eax
  10360e:	89 54 30 08          	mov    %edx,0x8(%eax,%esi,1)
  103612:	e9 19 ff ff ff       	jmp    103530 <malloc_extend_top+0x40>
  103617:	b8 09 00 00 00       	mov    $0x9,%eax
  10361c:	89 44 32 04          	mov    %eax,0x4(%edx,%esi,1)
  103620:	b8 08 00 00 00       	mov    $0x8,%eax
  103625:	89 44 32 08          	mov    %eax,0x8(%edx,%esi,1)
  103629:	8b 46 04             	mov    0x4(%esi),%eax
  10362c:	83 e0 01             	and    $0x1,%eax
  10362f:	09 d0                	or     %edx,%eax
  103631:	89 46 04             	mov    %eax,0x4(%esi)
  103634:	8b 5d f4             	mov    0xfffffff4(%ebp),%ebx
  103637:	89 75 0c             	mov    %esi,0xc(%ebp)
  10363a:	8b 75 f8             	mov    0xfffffff8(%ebp),%esi
  10363d:	89 7d 08             	mov    %edi,0x8(%ebp)
  103640:	8b 7d fc             	mov    0xfffffffc(%ebp),%edi
  103643:	89 ec                	mov    %ebp,%esp
  103645:	5d                   	pop    %ebp
  103646:	e9 a5 e7 ff ff       	jmp    101df0 <chunk_free>
  10364b:	90                   	nop    
  10364c:	8d 74 26 00          	lea    0x0(%esi),%esi
  103650:	8b 15 60 92 10 00    	mov    0x109260,%edx
  103656:	01 f0                	add    %esi,%eax
  103658:	89 45 e8             	mov    %eax,0xffffffe8(%ebp)
  10365b:	89 d8                	mov    %ebx,%eax
  10365d:	01 d0                	add    %edx,%eax
  10365f:	83 3d c8 86 10 00 ff 	cmpl   $0xffffffff,0x1086c8
  103666:	8d 50 10             	lea    0x10(%eax),%edx
  103669:	89 55 e4             	mov    %edx,0xffffffe4(%ebp)
  10366c:	74 0d                	je     10367b <malloc_extend_top+0x18b>
  10366e:	05 0f 10 00 00       	add    $0x100f,%eax
  103673:	25 00 f0 ff ff       	and    $0xfffff000,%eax
  103678:	89 45 e4             	mov    %eax,0xffffffe4(%ebp)
  10367b:	8b 45 e4             	mov    0xffffffe4(%ebp),%eax
  10367e:	89 04 24             	mov    %eax,(%esp)
  103681:	e8 9a 02 00 00       	call   103920 <sbrk>
  103686:	83 f8 ff             	cmp    $0xffffffff,%eax
  103689:	89 c3                	mov    %eax,%ebx
  10368b:	0f 84 9f fe ff ff    	je     103530 <malloc_extend_top+0x40>
  103691:	3b 45 e8             	cmp    0xffffffe8(%ebp),%eax
  103694:	73 0c                	jae    1036a2 <malloc_extend_top+0x1b2>
  103696:	81 fe 80 82 10 00    	cmp    $0x108280,%esi
  10369c:	0f 85 8e fe ff ff    	jne    103530 <malloc_extend_top+0x40>
  1036a2:	a1 8c 86 10 00       	mov    0x10868c,%eax
  1036a7:	8b 55 e4             	mov    0xffffffe4(%ebp),%edx
  1036aa:	01 c2                	add    %eax,%edx
  1036ac:	3b 5d e8             	cmp    0xffffffe8(%ebp),%ebx
  1036af:	89 15 8c 86 10 00    	mov    %edx,0x10868c
  1036b5:	0f 84 b0 00 00 00    	je     10376b <malloc_extend_top+0x27b>
  1036bb:	83 3d c8 86 10 00 ff 	cmpl   $0xffffffff,0x1086c8
  1036c2:	0f 84 98 00 00 00    	je     103760 <malloc_extend_top+0x270>
  1036c8:	8b 4d e8             	mov    0xffffffe8(%ebp),%ecx
  1036cb:	89 d8                	mov    %ebx,%eax
  1036cd:	29 c8                	sub    %ecx,%eax
  1036cf:	8d 04 10             	lea    (%eax,%edx,1),%eax
  1036d2:	a3 8c 86 10 00       	mov    %eax,0x10868c
  1036d7:	c7 45 ec 00 00 00 00 	movl   $0x0,0xffffffec(%ebp)
  1036de:	89 d8                	mov    %ebx,%eax
  1036e0:	83 e0 07             	and    $0x7,%eax
  1036e3:	74 0f                	je     1036f4 <malloc_extend_top+0x204>
  1036e5:	c7 45 ec 08 00 00 00 	movl   $0x8,0xffffffec(%ebp)
  1036ec:	29 45 ec             	sub    %eax,0xffffffec(%ebp)
  1036ef:	8b 4d ec             	mov    0xffffffec(%ebp),%ecx
  1036f2:	01 cb                	add    %ecx,%ebx
  1036f4:	8b 45 e4             	mov    0xffffffe4(%ebp),%eax
  1036f7:	8d 14 18             	lea    (%eax,%ebx,1),%edx
  1036fa:	81 e2 ff 0f 00 00    	and    $0xfff,%edx
  103700:	b8 00 10 00 00       	mov    $0x1000,%eax
  103705:	29 d0                	sub    %edx,%eax
  103707:	01 45 ec             	add    %eax,0xffffffec(%ebp)
  10370a:	8b 55 ec             	mov    0xffffffec(%ebp),%edx
  10370d:	89 14 24             	mov    %edx,(%esp)
  103710:	e8 0b 02 00 00       	call   103920 <sbrk>
  103715:	83 f8 ff             	cmp    $0xffffffff,%eax
  103718:	0f 84 12 fe ff ff    	je     103530 <malloc_extend_top+0x40>
  10371e:	89 1d 88 82 10 00    	mov    %ebx,0x108288
  103724:	8b 55 ec             	mov    0xffffffec(%ebp),%edx
  103727:	29 d8                	sub    %ebx,%eax
  103729:	01 15 8c 86 10 00    	add    %edx,0x10868c
  10372f:	01 d0                	add    %edx,%eax
  103731:	83 c8 01             	or     $0x1,%eax
  103734:	89 43 04             	mov    %eax,0x4(%ebx)
  103737:	31 c0                	xor    %eax,%eax
  103739:	81 fe 80 82 10 00    	cmp    $0x108280,%esi
  10373f:	0f 94 c0             	sete   %al
  103742:	48                   	dec    %eax
  103743:	21 c6                	and    %eax,%esi
  103745:	a1 8c 86 10 00       	mov    0x10868c,%eax
  10374a:	3b 05 64 92 10 00    	cmp    0x109264,%eax
  103750:	0f 86 8a fe ff ff    	jbe    1035e0 <malloc_extend_top+0xf0>
  103756:	a3 64 92 10 00       	mov    %eax,0x109264
  10375b:	e9 80 fe ff ff       	jmp    1035e0 <malloc_extend_top+0xf0>
  103760:	89 1d c8 86 10 00    	mov    %ebx,0x1086c8
  103766:	e9 6c ff ff ff       	jmp    1036d7 <malloc_extend_top+0x1e7>
  10376b:	8b 45 e4             	mov    0xffffffe4(%ebp),%eax
  10376e:	8b 5d f0             	mov    0xfffffff0(%ebp),%ebx
  103771:	01 d8                	add    %ebx,%eax
  103773:	83 c8 01             	or     $0x1,%eax
  103776:	89 46 04             	mov    %eax,0x4(%esi)
  103779:	31 f6                	xor    %esi,%esi
  10377b:	eb c8                	jmp    103745 <malloc_extend_top+0x255>
  10377d:	00 00                	add    %al,(%eax)
	...

00103780 <mlock>:
  103780:	55                   	push   %ebp
  103781:	31 d2                	xor    %edx,%edx
  103783:	89 e5                	mov    %esp,%ebp
  103785:	53                   	push   %ebx
  103786:	8b 4d 0c             	mov    0xc(%ebp),%ecx
  103789:	b8 1c 00 00 00       	mov    $0x1c,%eax
  10378e:	8b 5d 08             	mov    0x8(%ebp),%ebx
  103791:	cd 30                	int    $0x30
  103793:	85 c0                	test   %eax,%eax
  103795:	89 c2                	mov    %eax,%edx
  103797:	78 07                	js     1037a0 <mlock+0x20>
  103799:	5b                   	pop    %ebx
  10379a:	89 d0                	mov    %edx,%eax
  10379c:	5d                   	pop    %ebp
  10379d:	c3                   	ret    
  10379e:	89 f6                	mov    %esi,%esi
  1037a0:	f7 d8                	neg    %eax
  1037a2:	ba ff ff ff ff       	mov    $0xffffffff,%edx
  1037a7:	a3 9c 96 10 00       	mov    %eax,0x10969c
  1037ac:	eb eb                	jmp    103799 <mlock+0x19>
  1037ae:	89 f6                	mov    %esi,%esi

001037b0 <mlockall>:
  1037b0:	55                   	push   %ebp
  1037b1:	b8 1c 00 00 00       	mov    $0x1c,%eax
  1037b6:	89 e5                	mov    %esp,%ebp
  1037b8:	53                   	push   %ebx
  1037b9:	8b 55 08             	mov    0x8(%ebp),%edx
  1037bc:	31 db                	xor    %ebx,%ebx
  1037be:	89 d9                	mov    %ebx,%ecx
  1037c0:	cd 30                	int    $0x30
  1037c2:	85 c0                	test   %eax,%eax
  1037c4:	89 c2                	mov    %eax,%edx
  1037c6:	78 08                	js     1037d0 <mlockall+0x20>
  1037c8:	5b                   	pop    %ebx
  1037c9:	89 d0                	mov    %edx,%eax
  1037cb:	5d                   	pop    %ebp
  1037cc:	c3                   	ret    
  1037cd:	8d 76 00             	lea    0x0(%esi),%esi
  1037d0:	f7 d8                	neg    %eax
  1037d2:	ba ff ff ff ff       	mov    $0xffffffff,%edx
  1037d7:	a3 9c 96 10 00       	mov    %eax,0x10969c
  1037dc:	eb ea                	jmp    1037c8 <mlockall+0x18>
  1037de:	89 f6                	mov    %esi,%esi

001037e0 <munlock>:
  1037e0:	55                   	push   %ebp
  1037e1:	31 d2                	xor    %edx,%edx
  1037e3:	89 e5                	mov    %esp,%ebp
  1037e5:	53                   	push   %ebx
  1037e6:	8b 4d 0c             	mov    0xc(%ebp),%ecx
  1037e9:	b8 1d 00 00 00       	mov    $0x1d,%eax
  1037ee:	8b 5d 08             	mov    0x8(%ebp),%ebx
  1037f1:	cd 30                	int    $0x30
  1037f3:	85 c0                	test   %eax,%eax
  1037f5:	89 c2                	mov    %eax,%edx
  1037f7:	78 07                	js     103800 <munlock+0x20>
  1037f9:	5b                   	pop    %ebx
  1037fa:	89 d0                	mov    %edx,%eax
  1037fc:	5d                   	pop    %ebp
  1037fd:	c3                   	ret    
  1037fe:	89 f6                	mov    %esi,%esi
  103800:	f7 d8                	neg    %eax
  103802:	ba ff ff ff ff       	mov    $0xffffffff,%edx
  103807:	a3 9c 96 10 00       	mov    %eax,0x10969c
  10380c:	eb eb                	jmp    1037f9 <munlock+0x19>
  10380e:	89 f6                	mov    %esi,%esi

00103810 <munlockall>:
  103810:	55                   	push   %ebp
  103811:	b8 1d 00 00 00       	mov    $0x1d,%eax
  103816:	89 e5                	mov    %esp,%ebp
  103818:	53                   	push   %ebx
  103819:	31 db                	xor    %ebx,%ebx
  10381b:	89 d9                	mov    %ebx,%ecx
  10381d:	89 da                	mov    %ebx,%edx
  10381f:	cd 30                	int    $0x30
  103821:	85 c0                	test   %eax,%eax
  103823:	89 c2                	mov    %eax,%edx
  103825:	78 09                	js     103830 <munlockall+0x20>
  103827:	5b                   	pop    %ebx
  103828:	89 d0                	mov    %edx,%eax
  10382a:	5d                   	pop    %ebp
  10382b:	c3                   	ret    
  10382c:	8d 74 26 00          	lea    0x0(%esi),%esi
  103830:	f7 d8                	neg    %eax
  103832:	ba ff ff ff ff       	mov    $0xffffffff,%edx
  103837:	a3 9c 96 10 00       	mov    %eax,0x10969c
  10383c:	eb e9                	jmp    103827 <munlockall+0x17>
  10383e:	89 f6                	mov    %esi,%esi

00103840 <mprotect>:
  103840:	55                   	push   %ebp
  103841:	b8 1e 00 00 00       	mov    $0x1e,%eax
  103846:	89 e5                	mov    %esp,%ebp
  103848:	53                   	push   %ebx
  103849:	8b 4d 0c             	mov    0xc(%ebp),%ecx
  10384c:	8b 5d 08             	mov    0x8(%ebp),%ebx
  10384f:	8b 55 10             	mov    0x10(%ebp),%edx
  103852:	cd 30                	int    $0x30
  103854:	85 c0                	test   %eax,%eax
  103856:	89 c2                	mov    %eax,%edx
  103858:	78 06                	js     103860 <mprotect+0x20>
  10385a:	5b                   	pop    %ebx
  10385b:	89 d0                	mov    %edx,%eax
  10385d:	5d                   	pop    %ebp
  10385e:	c3                   	ret    
  10385f:	90                   	nop    
  103860:	f7 d8                	neg    %eax
  103862:	ba ff ff ff ff       	mov    $0xffffffff,%edx
  103867:	a3 9c 96 10 00       	mov    %eax,0x10969c
  10386c:	eb ec                	jmp    10385a <mprotect+0x1a>
  10386e:	89 f6                	mov    %esi,%esi

00103870 <mmap>:
  103870:	55                   	push   %ebp
  103871:	89 e5                	mov    %esp,%ebp
  103873:	83 ec 38             	sub    $0x38,%esp
  103876:	89 5d fc             	mov    %ebx,0xfffffffc(%ebp)
  103879:	8b 45 18             	mov    0x18(%ebp),%eax
  10387c:	8b 4d 14             	mov    0x14(%ebp),%ecx
  10387f:	83 f8 ff             	cmp    $0xffffffff,%eax
  103882:	74 4f                	je     1038d3 <mmap+0x63>
  103884:	81 c9 80 00 00 00    	or     $0x80,%ecx
  10388a:	89 45 c8             	mov    %eax,0xffffffc8(%ebp)
  10388d:	8d 5d c8             	lea    0xffffffc8(%ebp),%ebx
  103890:	8b 45 08             	mov    0x8(%ebp),%eax
  103893:	89 4d dc             	mov    %ecx,0xffffffdc(%ebp)
  103896:	c7 45 e8 02 00 00 00 	movl   $0x2,0xffffffe8(%ebp)
  10389d:	89 45 d4             	mov    %eax,0xffffffd4(%ebp)
  1038a0:	8b 45 1c             	mov    0x1c(%ebp),%eax
  1038a3:	89 45 d8             	mov    %eax,0xffffffd8(%ebp)
  1038a6:	8b 45 0c             	mov    0xc(%ebp),%eax
  1038a9:	89 45 e4             	mov    %eax,0xffffffe4(%ebp)
  1038ac:	8b 45 10             	mov    0x10(%ebp),%eax
  1038af:	89 45 e0             	mov    %eax,0xffffffe0(%ebp)
  1038b2:	b8 1b 00 00 00       	mov    $0x1b,%eax
  1038b7:	cd 30                	int    $0x30
  1038b9:	85 c0                	test   %eax,%eax
  1038bb:	89 c2                	mov    %eax,%edx
  1038bd:	78 09                	js     1038c8 <mmap+0x58>
  1038bf:	8b 5d fc             	mov    0xfffffffc(%ebp),%ebx
  1038c2:	89 d0                	mov    %edx,%eax
  1038c4:	89 ec                	mov    %ebp,%esp
  1038c6:	5d                   	pop    %ebp
  1038c7:	c3                   	ret    
  1038c8:	f7 d8                	neg    %eax
  1038ca:	31 d2                	xor    %edx,%edx
  1038cc:	a3 9c 96 10 00       	mov    %eax,0x10969c
  1038d1:	eb ec                	jmp    1038bf <mmap+0x4f>
  1038d3:	83 c9 08             	or     $0x8,%ecx
  1038d6:	eb b2                	jmp    10388a <mmap+0x1a>
  1038d8:	90                   	nop    
  1038d9:	8d b4 26 00 00 00 00 	lea    0x0(%esi),%esi

001038e0 <munmap>:
  1038e0:	55                   	push   %ebp
  1038e1:	b8 1a 00 00 00       	mov    $0x1a,%eax
  1038e6:	89 e5                	mov    %esp,%ebp
  1038e8:	53                   	push   %ebx
  1038e9:	8b 4d 0c             	mov    0xc(%ebp),%ecx
  1038ec:	8b 5d 08             	mov    0x8(%ebp),%ebx
  1038ef:	cd 30                	int    $0x30
  1038f1:	85 c0                	test   %eax,%eax
  1038f3:	89 c2                	mov    %eax,%edx
  1038f5:	78 09                	js     103900 <munmap+0x20>
  1038f7:	5b                   	pop    %ebx
  1038f8:	89 d0                	mov    %edx,%eax
  1038fa:	5d                   	pop    %ebp
  1038fb:	c3                   	ret    
  1038fc:	8d 74 26 00          	lea    0x0(%esi),%esi
  103900:	f7 d8                	neg    %eax
  103902:	ba ff ff ff ff       	mov    $0xffffffff,%edx
  103907:	a3 9c 96 10 00       	mov    %eax,0x10969c
  10390c:	eb e9                	jmp    1038f7 <munmap+0x17>
  10390e:	89 f6                	mov    %esi,%esi

00103910 <msync>:
  103910:	55                   	push   %ebp
  103911:	31 c0                	xor    %eax,%eax
  103913:	89 e5                	mov    %esp,%ebp
  103915:	5d                   	pop    %ebp
  103916:	c3                   	ret    
  103917:	89 f6                	mov    %esi,%esi
  103919:	8d bc 27 00 00 00 00 	lea    0x0(%edi),%edi

00103920 <sbrk>:
  103920:	55                   	push   %ebp
  103921:	89 e5                	mov    %esp,%ebp
  103923:	8b 4d 08             	mov    0x8(%ebp),%ecx
  103926:	53                   	push   %ebx
  103927:	31 db                	xor    %ebx,%ebx
  103929:	85 c9                	test   %ecx,%ecx
  10392b:	7e 23                	jle    103950 <sbrk+0x30>
  10392d:	b8 19 00 00 00       	mov    $0x19,%eax
  103932:	cd 30                	int    $0x30
  103934:	85 c0                	test   %eax,%eax
  103936:	78 0b                	js     103943 <sbrk+0x23>
  103938:	89 1d 80 96 10 00    	mov    %ebx,0x109680
  10393e:	89 d8                	mov    %ebx,%eax
  103940:	5b                   	pop    %ebx
  103941:	5d                   	pop    %ebp
  103942:	c3                   	ret    
  103943:	f7 d8                	neg    %eax
  103945:	a3 9c 96 10 00       	mov    %eax,0x10969c
  10394a:	eb ec                	jmp    103938 <sbrk+0x18>
  10394c:	8d 74 26 00          	lea    0x0(%esi),%esi
  103950:	a1 80 96 10 00       	mov    0x109680,%eax
  103955:	eb e9                	jmp    103940 <sbrk+0x20>
	...

00103960 <vsnprintf>:
  103960:	55                   	push   %ebp
  103961:	31 c0                	xor    %eax,%eax
  103963:	89 e5                	mov    %esp,%ebp
  103965:	57                   	push   %edi
  103966:	56                   	push   %esi
  103967:	53                   	push   %ebx
  103968:	81 ec ac 00 00 00    	sub    $0xac,%esp
  10396e:	8b 5d 0c             	mov    0xc(%ebp),%ebx
  103971:	89 85 64 ff ff ff    	mov    %eax,0xffffff64(%ebp)
  103977:	8b 75 08             	mov    0x8(%ebp),%esi
  10397a:	8b 45 10             	mov    0x10(%ebp),%eax
  10397d:	4b                   	dec    %ebx
  10397e:	85 c0                	test   %eax,%eax
  103980:	0f 84 5e 0b 00 00    	je     1044e4 <vsnprintf+0xb84>
  103986:	85 db                	test   %ebx,%ebx
  103988:	0f 84 72 03 00 00    	je     103d00 <vsnprintf+0x3a0>
  10398e:	8b 45 10             	mov    0x10(%ebp),%eax
  103991:	0f be 10             	movsbl (%eax),%edx
  103994:	40                   	inc    %eax
  103995:	89 45 10             	mov    %eax,0x10(%ebp)
  103998:	83 fa 25             	cmp    $0x25,%edx
  10399b:	74 28                	je     1039c5 <vsnprintf+0x65>
  10399d:	8d 76 00             	lea    0x0(%esi),%esi
  1039a0:	89 d8                	mov    %ebx,%eax
  1039a2:	4b                   	dec    %ebx
  1039a3:	85 c0                	test   %eax,%eax
  1039a5:	0f 84 55 03 00 00    	je     103d00 <vsnprintf+0x3a0>
  1039ab:	85 d2                	test   %edx,%edx
  1039ad:	0f 84 4d 03 00 00    	je     103d00 <vsnprintf+0x3a0>
  1039b3:	88 16                	mov    %dl,(%esi)
  1039b5:	8b 4d 10             	mov    0x10(%ebp),%ecx
  1039b8:	46                   	inc    %esi
  1039b9:	0f be 11             	movsbl (%ecx),%edx
  1039bc:	41                   	inc    %ecx
  1039bd:	89 4d 10             	mov    %ecx,0x10(%ebp)
  1039c0:	83 fa 25             	cmp    $0x25,%edx
  1039c3:	75 db                	jne    1039a0 <vsnprintf+0x40>
  1039c5:	c7 45 84 00 00 00 00 	movl   $0x0,0xffffff84(%ebp)
  1039cc:	8b 7d 10             	mov    0x10(%ebp),%edi
  1039cf:	ba 01 00 00 00       	mov    $0x1,%edx
  1039d4:	c7 45 88 00 00 00 00 	movl   $0x0,0xffffff88(%ebp)
  1039db:	c7 45 8c 00 00 00 00 	movl   $0x0,0xffffff8c(%ebp)
  1039e2:	c7 45 90 00 00 00 00 	movl   $0x0,0xffffff90(%ebp)
  1039e9:	c7 45 94 00 00 00 00 	movl   $0x0,0xffffff94(%ebp)
  1039f0:	0f b6 0f             	movzbl (%edi),%ecx
  1039f3:	8d b6 00 00 00 00    	lea    0x0(%esi),%esi
  1039f9:	8d bc 27 00 00 00 00 	lea    0x0(%edi),%edi
  103a00:	0f be c1             	movsbl %cl,%eax
  103a03:	83 e8 20             	sub    $0x20,%eax
  103a06:	83 f8 10             	cmp    $0x10,%eax
  103a09:	0f 87 c5 0a 00 00    	ja     1044d4 <vsnprintf+0xb74>
  103a0f:	ff 24 85 14 70 10 00 	jmp    *0x107014(,%eax,4)
  103a16:	c7 45 94 01 00 00 00 	movl   $0x1,0xffffff94(%ebp)
  103a1d:	ff 45 10             	incl   0x10(%ebp)
  103a20:	8b 45 10             	mov    0x10(%ebp),%eax
  103a23:	0f b6 08             	movzbl (%eax),%ecx
  103a26:	8d 76 00             	lea    0x0(%esi),%esi
  103a29:	8d bc 27 00 00 00 00 	lea    0x0(%edi),%edi
  103a30:	85 d2                	test   %edx,%edx
  103a32:	75 cc                	jne    103a00 <vsnprintf+0xa0>
  103a34:	0f be d1             	movsbl %cl,%edx
  103a37:	83 fa 2a             	cmp    $0x2a,%edx
  103a3a:	0f 84 4a 0a 00 00    	je     10448a <vsnprintf+0xb2a>
  103a40:	8d 42 d0             	lea    0xffffffd0(%edx),%eax
  103a43:	bf ff ff ff ff       	mov    $0xffffffff,%edi
  103a48:	83 f8 09             	cmp    $0x9,%eax
  103a4b:	89 bd 7c ff ff ff    	mov    %edi,0xffffff7c(%ebp)
  103a51:	77 4d                	ja     103aa0 <vsnprintf+0x140>
  103a53:	ff 45 10             	incl   0x10(%ebp)
  103a56:	31 c0                	xor    %eax,%eax
  103a58:	83 fa 2f             	cmp    $0x2f,%edx
  103a5b:	89 85 7c ff ff ff    	mov    %eax,0xffffff7c(%ebp)
  103a61:	7e 34                	jle    103a97 <vsnprintf+0x137>
  103a63:	83 fa 39             	cmp    $0x39,%edx
  103a66:	7f 2f                	jg     103a97 <vsnprintf+0x137>
  103a68:	90                   	nop    
  103a69:	8d b4 26 00 00 00 00 	lea    0x0(%esi),%esi
  103a70:	8b 8d 7c ff ff ff    	mov    0xffffff7c(%ebp),%ecx
  103a76:	8b 7d 10             	mov    0x10(%ebp),%edi
  103a79:	8d 04 89             	lea    (%ecx,%ecx,4),%eax
  103a7c:	8d 44 42 d0          	lea    0xffffffd0(%edx,%eax,2),%eax
  103a80:	89 85 7c ff ff ff    	mov    %eax,0xffffff7c(%ebp)
  103a86:	0f be 17             	movsbl (%edi),%edx
  103a89:	47                   	inc    %edi
  103a8a:	89 7d 10             	mov    %edi,0x10(%ebp)
  103a8d:	83 fa 2f             	cmp    $0x2f,%edx
  103a90:	7e 05                	jle    103a97 <vsnprintf+0x137>
  103a92:	83 fa 39             	cmp    $0x39,%edx
  103a95:	7e d9                	jle    103a70 <vsnprintf+0x110>
  103a97:	ff 4d 10             	decl   0x10(%ebp)
  103a9a:	8b 45 10             	mov    0x10(%ebp),%eax
  103a9d:	0f b6 08             	movzbl (%eax),%ecx
  103aa0:	b8 ff ff ff ff       	mov    $0xffffffff,%eax
  103aa5:	80 f9 2e             	cmp    $0x2e,%cl
  103aa8:	89 85 78 ff ff ff    	mov    %eax,0xffffff78(%ebp)
  103aae:	0f 84 47 09 00 00    	je     1043fb <vsnprintf+0xa9b>
  103ab4:	c7 45 80 00 00 00 00 	movl   $0x0,0xffffff80(%ebp)
  103abb:	0f be c1             	movsbl %cl,%eax
  103abe:	83 f8 68             	cmp    $0x68,%eax
  103ac1:	0f 84 26 09 00 00    	je     1043ed <vsnprintf+0xa8d>
  103ac7:	83 f8 68             	cmp    $0x68,%eax
  103aca:	0f 8f ff 08 00 00    	jg     1043cf <vsnprintf+0xa6f>
  103ad0:	83 f8 4c             	cmp    $0x4c,%eax
  103ad3:	0f 84 e8 08 00 00    	je     1043c1 <vsnprintf+0xa61>
  103ad9:	8d b4 26 00 00 00 00 	lea    0x0(%esi),%esi
  103ae0:	ff 45 10             	incl   0x10(%ebp)
  103ae3:	b8 01 00 00 00       	mov    $0x1,%eax
  103ae8:	0f be d1             	movsbl %cl,%edx
  103aeb:	89 85 70 ff ff ff    	mov    %eax,0xffffff70(%ebp)
  103af1:	8d 42 db             	lea    0xffffffdb(%edx),%eax
  103af4:	83 f8 53             	cmp    $0x53,%eax
  103af7:	0f 87 a3 08 00 00    	ja     1043a0 <vsnprintf+0xa40>
  103afd:	ff 24 85 58 70 10 00 	jmp    *0x107058(,%eax,4)
  103b04:	8b 45 80             	mov    0xffffff80(%ebp),%eax
  103b07:	85 c0                	test   %eax,%eax
  103b09:	0f 84 d1 02 00 00    	je     103de0 <vsnprintf+0x480>
  103b0f:	8b 55 14             	mov    0x14(%ebp),%edx
  103b12:	8b 0a                	mov    (%edx),%ecx
  103b14:	83 c2 04             	add    $0x4,%edx
  103b17:	89 55 14             	mov    %edx,0x14(%ebp)
  103b1a:	b8 02 00 00 00       	mov    $0x2,%eax
  103b1f:	bf 7d 72 10 00       	mov    $0x10727d,%edi
  103b24:	89 85 74 ff ff ff    	mov    %eax,0xffffff74(%ebp)
  103b2a:	89 bd 60 ff ff ff    	mov    %edi,0xffffff60(%ebp)
  103b30:	31 d2                	xor    %edx,%edx
  103b32:	89 95 70 ff ff ff    	mov    %edx,0xffffff70(%ebp)
  103b38:	31 c0                	xor    %eax,%eax
  103b3a:	89 85 6c ff ff ff    	mov    %eax,0xffffff6c(%ebp)
  103b40:	8b 85 70 ff ff ff    	mov    0xffffff70(%ebp),%eax
  103b46:	85 c0                	test   %eax,%eax
  103b48:	74 1e                	je     103b68 <vsnprintf+0x208>
  103b4a:	8b 45 90             	mov    0xffffff90(%ebp),%eax
  103b4d:	85 c0                	test   %eax,%eax
  103b4f:	0f 84 5f 02 00 00    	je     103db4 <vsnprintf+0x454>
  103b55:	85 c9                	test   %ecx,%ecx
  103b57:	0f 88 57 02 00 00    	js     103db4 <vsnprintf+0x454>
  103b5d:	b8 2b 00 00 00       	mov    $0x2b,%eax
  103b62:	89 85 6c ff ff ff    	mov    %eax,0xffffff6c(%ebp)
  103b68:	31 d2                	xor    %edx,%edx
  103b6a:	89 95 68 ff ff ff    	mov    %edx,0xffffff68(%ebp)
  103b70:	89 c8                	mov    %ecx,%eax
  103b72:	31 d2                	xor    %edx,%edx
  103b74:	8b bd 60 ff ff ff    	mov    0xffffff60(%ebp),%edi
  103b7a:	f7 b5 74 ff ff ff    	divl   0xffffff74(%ebp)
  103b80:	89 c1                	mov    %eax,%ecx
  103b82:	8b 85 68 ff ff ff    	mov    0xffffff68(%ebp),%eax
  103b88:	0f b6 14 3a          	movzbl (%edx,%edi,1),%edx
  103b8c:	88 54 05 a8          	mov    %dl,0xffffffa8(%ebp,%eax,1)
  103b90:	40                   	inc    %eax
  103b91:	85 c9                	test   %ecx,%ecx
  103b93:	89 85 68 ff ff ff    	mov    %eax,0xffffff68(%ebp)
  103b99:	75 d5                	jne    103b70 <vsnprintf+0x210>
  103b9b:	8b 95 78 ff ff ff    	mov    0xffffff78(%ebp),%edx
  103ba1:	39 c2                	cmp    %eax,%edx
  103ba3:	89 95 64 ff ff ff    	mov    %edx,0xffffff64(%ebp)
  103ba9:	7d 06                	jge    103bb1 <vsnprintf+0x251>
  103bab:	89 85 64 ff ff ff    	mov    %eax,0xffffff64(%ebp)
  103bb1:	8b 85 6c ff ff ff    	mov    0xffffff6c(%ebp),%eax
  103bb7:	85 c0                	test   %eax,%eax
  103bb9:	74 06                	je     103bc1 <vsnprintf+0x261>
  103bbb:	ff 85 64 ff ff ff    	incl   0xffffff64(%ebp)
  103bc1:	8b 45 84             	mov    0xffffff84(%ebp),%eax
  103bc4:	85 c0                	test   %eax,%eax
  103bc6:	74 27                	je     103bef <vsnprintf+0x28f>
  103bc8:	83 bd 74 ff ff ff 08 	cmpl   $0x8,0xffffff74(%ebp)
  103bcf:	0f 84 d4 01 00 00    	je     103da9 <vsnprintf+0x449>
  103bd5:	83 bd 74 ff ff ff 10 	cmpl   $0x10,0xffffff74(%ebp)
  103bdc:	0f 84 bb 01 00 00    	je     103d9d <vsnprintf+0x43d>
  103be2:	83 bd 74 ff ff ff 02 	cmpl   $0x2,0xffffff74(%ebp)
  103be9:	0f 84 ae 01 00 00    	je     103d9d <vsnprintf+0x43d>
  103bef:	8b 45 94             	mov    0xffffff94(%ebp),%eax
  103bf2:	85 c0                	test   %eax,%eax
  103bf4:	75 25                	jne    103c1b <vsnprintf+0x2bb>
  103bf6:	8b 8d 64 ff ff ff    	mov    0xffffff64(%ebp),%ecx
  103bfc:	39 8d 7c ff ff ff    	cmp    %ecx,0xffffff7c(%ebp)
  103c02:	7e 17                	jle    103c1b <vsnprintf+0x2bb>
  103c04:	8b 45 88             	mov    0xffffff88(%ebp),%eax
  103c07:	85 c0                	test   %eax,%eax
  103c09:	0f 84 5f 01 00 00    	je     103d6e <vsnprintf+0x40e>
  103c0f:	8b bd 7c ff ff ff    	mov    0xffffff7c(%ebp),%edi
  103c15:	89 bd 64 ff ff ff    	mov    %edi,0xffffff64(%ebp)
  103c1b:	8b 85 6c ff ff ff    	mov    0xffffff6c(%ebp),%eax
  103c21:	85 c0                	test   %eax,%eax
  103c23:	74 1b                	je     103c40 <vsnprintf+0x2e0>
  103c25:	89 d8                	mov    %ebx,%eax
  103c27:	4b                   	dec    %ebx
  103c28:	85 c0                	test   %eax,%eax
  103c2a:	0f 84 d0 00 00 00    	je     103d00 <vsnprintf+0x3a0>
  103c30:	0f b6 85 6c ff ff ff 	movzbl 0xffffff6c(%ebp),%eax
  103c37:	88 06                	mov    %al,(%esi)
  103c39:	46                   	inc    %esi
  103c3a:	ff 8d 64 ff ff ff    	decl   0xffffff64(%ebp)
  103c40:	8b 7d 84             	mov    0xffffff84(%ebp),%edi
  103c43:	85 ff                	test   %edi,%edi
  103c45:	74 27                	je     103c6e <vsnprintf+0x30e>
  103c47:	83 bd 74 ff ff ff 02 	cmpl   $0x2,0xffffff74(%ebp)
  103c4e:	0f 84 08 01 00 00    	je     103d5c <vsnprintf+0x3fc>
  103c54:	83 bd 74 ff ff ff 08 	cmpl   $0x8,0xffffff74(%ebp)
  103c5b:	0f 84 e5 00 00 00    	je     103d46 <vsnprintf+0x3e6>
  103c61:	83 bd 74 ff ff ff 10 	cmpl   $0x10,0xffffff74(%ebp)
  103c68:	0f 84 a7 00 00 00    	je     103d15 <vsnprintf+0x3b5>
  103c6e:	8b 95 64 ff ff ff    	mov    0xffffff64(%ebp),%edx
  103c74:	8b 8d 68 ff ff ff    	mov    0xffffff68(%ebp),%ecx
  103c7a:	29 ca                	sub    %ecx,%edx
  103c7c:	85 d2                	test   %edx,%edx
  103c7e:	7e 10                	jle    103c90 <vsnprintf+0x330>
  103c80:	89 d8                	mov    %ebx,%eax
  103c82:	4b                   	dec    %ebx
  103c83:	85 c0                	test   %eax,%eax
  103c85:	74 79                	je     103d00 <vsnprintf+0x3a0>
  103c87:	c6 06 30             	movb   $0x30,(%esi)
  103c8a:	4a                   	dec    %edx
  103c8b:	46                   	inc    %esi
  103c8c:	85 d2                	test   %edx,%edx
  103c8e:	7f f0                	jg     103c80 <vsnprintf+0x320>
  103c90:	8b 95 68 ff ff ff    	mov    0xffffff68(%ebp),%edx
  103c96:	85 d2                	test   %edx,%edx
  103c98:	7e 25                	jle    103cbf <vsnprintf+0x35f>
  103c9a:	8d b6 00 00 00 00    	lea    0x0(%esi),%esi
  103ca0:	89 d8                	mov    %ebx,%eax
  103ca2:	4b                   	dec    %ebx
  103ca3:	85 c0                	test   %eax,%eax
  103ca5:	74 59                	je     103d00 <vsnprintf+0x3a0>
  103ca7:	ff 8d 68 ff ff ff    	decl   0xffffff68(%ebp)
  103cad:	8b 95 68 ff ff ff    	mov    0xffffff68(%ebp),%edx
  103cb3:	0f b6 44 2a a8       	movzbl 0xffffffa8(%edx,%ebp,1),%eax
  103cb8:	88 06                	mov    %al,(%esi)
  103cba:	46                   	inc    %esi
  103cbb:	85 d2                	test   %edx,%edx
  103cbd:	7f e1                	jg     103ca0 <vsnprintf+0x340>
  103cbf:	8b 85 64 ff ff ff    	mov    0xffffff64(%ebp),%eax
  103cc5:	8b 95 7c ff ff ff    	mov    0xffffff7c(%ebp),%edx
  103ccb:	29 c2                	sub    %eax,%edx
  103ccd:	8b 85 6c ff ff ff    	mov    0xffffff6c(%ebp),%eax
  103cd3:	85 c0                	test   %eax,%eax
  103cd5:	74 01                	je     103cd8 <vsnprintf+0x378>
  103cd7:	4a                   	dec    %edx
  103cd8:	8b 45 94             	mov    0xffffff94(%ebp),%eax
  103cdb:	85 c0                	test   %eax,%eax
  103cdd:	74 17                	je     103cf6 <vsnprintf+0x396>
  103cdf:	85 d2                	test   %edx,%edx
  103ce1:	7e 13                	jle    103cf6 <vsnprintf+0x396>
  103ce3:	4a                   	dec    %edx
  103ce4:	89 d8                	mov    %ebx,%eax
  103ce6:	4b                   	dec    %ebx
  103ce7:	85 c0                	test   %eax,%eax
  103ce9:	74 15                	je     103d00 <vsnprintf+0x3a0>
  103ceb:	c6 06 20             	movb   $0x20,(%esi)
  103cee:	89 d0                	mov    %edx,%eax
  103cf0:	46                   	inc    %esi
  103cf1:	4a                   	dec    %edx
  103cf2:	85 c0                	test   %eax,%eax
  103cf4:	7f ee                	jg     103ce4 <vsnprintf+0x384>
  103cf6:	85 db                	test   %ebx,%ebx
  103cf8:	0f 85 90 fc ff ff    	jne    10398e <vsnprintf+0x2e>
  103cfe:	89 f6                	mov    %esi,%esi
  103d00:	c6 06 00             	movb   $0x0,(%esi)
  103d03:	8b 45 08             	mov    0x8(%ebp),%eax
  103d06:	81 c4 ac 00 00 00    	add    $0xac,%esp
  103d0c:	5b                   	pop    %ebx
  103d0d:	29 c6                	sub    %eax,%esi
  103d0f:	89 f0                	mov    %esi,%eax
  103d11:	5e                   	pop    %esi
  103d12:	5f                   	pop    %edi
  103d13:	5d                   	pop    %ebp
  103d14:	c3                   	ret    
  103d15:	83 ad 64 ff ff ff 02 	subl   $0x2,0xffffff64(%ebp)
  103d1c:	ba 80 72 10 00       	mov    $0x107280,%edx
  103d21:	80 3d 80 72 10 00 00 	cmpb   $0x0,0x107280
  103d28:	0f 84 40 ff ff ff    	je     103c6e <vsnprintf+0x30e>
  103d2e:	89 d8                	mov    %ebx,%eax
  103d30:	4b                   	dec    %ebx
  103d31:	85 c0                	test   %eax,%eax
  103d33:	74 cb                	je     103d00 <vsnprintf+0x3a0>
  103d35:	0f b6 02             	movzbl (%edx),%eax
  103d38:	42                   	inc    %edx
  103d39:	88 06                	mov    %al,(%esi)
  103d3b:	46                   	inc    %esi
  103d3c:	80 3a 00             	cmpb   $0x0,(%edx)
  103d3f:	75 ed                	jne    103d2e <vsnprintf+0x3ce>
  103d41:	e9 28 ff ff ff       	jmp    103c6e <vsnprintf+0x30e>
  103d46:	ff 8d 64 ff ff ff    	decl   0xffffff64(%ebp)
  103d4c:	89 d8                	mov    %ebx,%eax
  103d4e:	4b                   	dec    %ebx
  103d4f:	85 c0                	test   %eax,%eax
  103d51:	74 ad                	je     103d00 <vsnprintf+0x3a0>
  103d53:	c6 06 30             	movb   $0x30,(%esi)
  103d56:	46                   	inc    %esi
  103d57:	e9 12 ff ff ff       	jmp    103c6e <vsnprintf+0x30e>
  103d5c:	ff 8d 64 ff ff ff    	decl   0xffffff64(%ebp)
  103d62:	89 d8                	mov    %ebx,%eax
  103d64:	4b                   	dec    %ebx
  103d65:	85 c0                	test   %eax,%eax
  103d67:	74 97                	je     103d00 <vsnprintf+0x3a0>
  103d69:	c6 06 25             	movb   $0x25,(%esi)
  103d6c:	eb e8                	jmp    103d56 <vsnprintf+0x3f6>
  103d6e:	8b 95 7c ff ff ff    	mov    0xffffff7c(%ebp),%edx
  103d74:	8b 85 64 ff ff ff    	mov    0xffffff64(%ebp),%eax
  103d7a:	29 c2                	sub    %eax,%edx
  103d7c:	85 d2                	test   %edx,%edx
  103d7e:	0f 8e 97 fe ff ff    	jle    103c1b <vsnprintf+0x2bb>
  103d84:	89 d8                	mov    %ebx,%eax
  103d86:	4b                   	dec    %ebx
  103d87:	85 c0                	test   %eax,%eax
  103d89:	0f 84 71 ff ff ff    	je     103d00 <vsnprintf+0x3a0>
  103d8f:	c6 06 20             	movb   $0x20,(%esi)
  103d92:	4a                   	dec    %edx
  103d93:	46                   	inc    %esi
  103d94:	85 d2                	test   %edx,%edx
  103d96:	7f ec                	jg     103d84 <vsnprintf+0x424>
  103d98:	e9 7e fe ff ff       	jmp    103c1b <vsnprintf+0x2bb>
  103d9d:	83 85 64 ff ff ff 02 	addl   $0x2,0xffffff64(%ebp)
  103da4:	e9 46 fe ff ff       	jmp    103bef <vsnprintf+0x28f>
  103da9:	ff 85 64 ff ff ff    	incl   0xffffff64(%ebp)
  103daf:	e9 3b fe ff ff       	jmp    103bef <vsnprintf+0x28f>
  103db4:	8b 45 8c             	mov    0xffffff8c(%ebp),%eax
  103db7:	85 c0                	test   %eax,%eax
  103db9:	74 0b                	je     103dc6 <vsnprintf+0x466>
  103dbb:	b8 20 00 00 00       	mov    $0x20,%eax
  103dc0:	89 85 6c ff ff ff    	mov    %eax,0xffffff6c(%ebp)
  103dc6:	85 c9                	test   %ecx,%ecx
  103dc8:	0f 89 9a fd ff ff    	jns    103b68 <vsnprintf+0x208>
  103dce:	bf 2d 00 00 00       	mov    $0x2d,%edi
  103dd3:	f7 d9                	neg    %ecx
  103dd5:	89 bd 6c ff ff ff    	mov    %edi,0xffffff6c(%ebp)
  103ddb:	e9 88 fd ff ff       	jmp    103b68 <vsnprintf+0x208>
  103de0:	8b 7d 14             	mov    0x14(%ebp),%edi
  103de3:	8b 0f                	mov    (%edi),%ecx
  103de5:	83 c7 04             	add    $0x4,%edi
  103de8:	89 7d 14             	mov    %edi,0x14(%ebp)
  103deb:	e9 2a fd ff ff       	jmp    103b1a <vsnprintf+0x1ba>
  103df0:	89 d8                	mov    %ebx,%eax
  103df2:	4b                   	dec    %ebx
  103df3:	85 c0                	test   %eax,%eax
  103df5:	0f 84 05 ff ff ff    	je     103d00 <vsnprintf+0x3a0>
  103dfb:	c6 06 25             	movb   $0x25,(%esi)
  103dfe:	46                   	inc    %esi
  103dff:	e9 f2 fe ff ff       	jmp    103cf6 <vsnprintf+0x396>
  103e04:	8b 4d 80             	mov    0xffffff80(%ebp),%ecx
  103e07:	85 c9                	test   %ecx,%ecx
  103e09:	74 26                	je     103e31 <vsnprintf+0x4d1>
  103e0b:	8b 55 14             	mov    0x14(%ebp),%edx
  103e0e:	8b 0a                	mov    (%edx),%ecx
  103e10:	83 c2 04             	add    $0x4,%edx
  103e13:	89 55 14             	mov    %edx,0x14(%ebp)
  103e16:	ba 10 00 00 00       	mov    $0x10,%edx
  103e1b:	b8 83 72 10 00       	mov    $0x107283,%eax
  103e20:	89 95 74 ff ff ff    	mov    %edx,0xffffff74(%ebp)
  103e26:	89 85 60 ff ff ff    	mov    %eax,0xffffff60(%ebp)
  103e2c:	e9 ff fc ff ff       	jmp    103b30 <vsnprintf+0x1d0>
  103e31:	8b 7d 14             	mov    0x14(%ebp),%edi
  103e34:	8b 0f                	mov    (%edi),%ecx
  103e36:	83 c7 04             	add    $0x4,%edi
  103e39:	89 7d 14             	mov    %edi,0x14(%ebp)
  103e3c:	eb d8                	jmp    103e16 <vsnprintf+0x4b6>
  103e3e:	89 d8                	mov    %ebx,%eax
  103e40:	4b                   	dec    %ebx
  103e41:	85 c0                	test   %eax,%eax
  103e43:	0f 84 b7 fe ff ff    	je     103d00 <vsnprintf+0x3a0>
  103e49:	8b 7d 14             	mov    0x14(%ebp),%edi
  103e4c:	0f b6 07             	movzbl (%edi),%eax
  103e4f:	83 c7 04             	add    $0x4,%edi
  103e52:	88 06                	mov    %al,(%esi)
  103e54:	89 7d 14             	mov    %edi,0x14(%ebp)
  103e57:	eb a5                	jmp    103dfe <vsnprintf+0x49e>
  103e59:	8b 4d 14             	mov    0x14(%ebp),%ecx
  103e5c:	dd 01                	fldl   (%ecx)
  103e5e:	83 c1 08             	add    $0x8,%ecx
  103e61:	83 bd 78 ff ff ff ff 	cmpl   $0xffffffff,0xffffff78(%ebp)
  103e68:	89 4d 14             	mov    %ecx,0x14(%ebp)
  103e6b:	0f 84 7b 02 00 00    	je     1040ec <vsnprintf+0x78c>
  103e71:	8b 45 90             	mov    0xffffff90(%ebp),%eax
  103e74:	85 c0                	test   %eax,%eax
  103e76:	0f 84 6c 02 00 00    	je     1040e8 <vsnprintf+0x788>
  103e7c:	d9 ee                	fldz   
  103e7e:	d9 c9                	fxch   %st(1)
  103e80:	dd e1                	fucom  %st(1)
  103e82:	df e0                	fnstsw %ax
  103e84:	9e                   	sahf   
  103e85:	0f 82 17 02 00 00    	jb     1040a2 <vsnprintf+0x742>
  103e8b:	dd d9                	fstp   %st(1)
  103e8d:	b8 2b 00 00 00       	mov    $0x2b,%eax
  103e92:	89 85 6c ff ff ff    	mov    %eax,0xffffff6c(%ebp)
  103e98:	d9 7d a6             	fnstcw 0xffffffa6(%ebp)
  103e9b:	d9 c0                	fld    %st(0)
  103e9d:	0f b7 45 a6          	movzwl 0xffffffa6(%ebp),%eax
  103ea1:	66 0d 00 0c          	or     $0xc00,%ax
  103ea5:	66 89 45 a4          	mov    %ax,0xffffffa4(%ebp)
  103ea9:	31 c0                	xor    %eax,%eax
  103eab:	d9 6d a4             	fldcw  0xffffffa4(%ebp)
  103eae:	df bd 50 ff ff ff    	fistpll 0xffffff50(%ebp)
  103eb4:	d9 6d a6             	fldcw  0xffffffa6(%ebp)
  103eb7:	89 85 68 ff ff ff    	mov    %eax,0xffffff68(%ebp)
  103ebd:	8b 8d 50 ff ff ff    	mov    0xffffff50(%ebp),%ecx
  103ec3:	b8 cd cc cc cc       	mov    $0xcccccccd,%eax
  103ec8:	f7 e1                	mul    %ecx
  103eca:	c1 ea 03             	shr    $0x3,%edx
  103ecd:	8d 04 92             	lea    (%edx,%edx,4),%eax
  103ed0:	01 c0                	add    %eax,%eax
  103ed2:	29 c1                	sub    %eax,%ecx
  103ed4:	88 c8                	mov    %cl,%al
  103ed6:	8b 8d 68 ff ff ff    	mov    0xffffff68(%ebp),%ecx
  103edc:	04 30                	add    $0x30,%al
  103ede:	88 44 0d a8          	mov    %al,0xffffffa8(%ebp,%ecx,1)
  103ee2:	41                   	inc    %ecx
  103ee3:	85 d2                	test   %edx,%edx
  103ee5:	89 8d 68 ff ff ff    	mov    %ecx,0xffffff68(%ebp)
  103eeb:	89 d1                	mov    %edx,%ecx
  103eed:	75 d4                	jne    103ec3 <vsnprintf+0x563>
  103eef:	8b 85 6c ff ff ff    	mov    0xffffff6c(%ebp),%eax
  103ef5:	8b bd 68 ff ff ff    	mov    0xffffff68(%ebp),%edi
  103efb:	85 c0                	test   %eax,%eax
  103efd:	89 bd 64 ff ff ff    	mov    %edi,0xffffff64(%ebp)
  103f03:	74 06                	je     103f0b <vsnprintf+0x5ab>
  103f05:	ff 85 64 ff ff ff    	incl   0xffffff64(%ebp)
  103f0b:	8b 85 78 ff ff ff    	mov    0xffffff78(%ebp),%eax
  103f11:	85 c0                	test   %eax,%eax
  103f13:	7e 16                	jle    103f2b <vsnprintf+0x5cb>
  103f15:	8b 85 64 ff ff ff    	mov    0xffffff64(%ebp),%eax
  103f1b:	8b 95 78 ff ff ff    	mov    0xffffff78(%ebp),%edx
  103f21:	8d 44 02 01          	lea    0x1(%edx,%eax,1),%eax
  103f25:	89 85 64 ff ff ff    	mov    %eax,0xffffff64(%ebp)
  103f2b:	8b 85 64 ff ff ff    	mov    0xffffff64(%ebp),%eax
  103f31:	8b 95 7c ff ff ff    	mov    0xffffff7c(%ebp),%edx
  103f37:	29 c2                	sub    %eax,%edx
  103f39:	8b 45 94             	mov    0xffffff94(%ebp),%eax
  103f3c:	85 c0                	test   %eax,%eax
  103f3e:	75 27                	jne    103f67 <vsnprintf+0x607>
  103f40:	85 d2                	test   %edx,%edx
  103f42:	7e 23                	jle    103f67 <vsnprintf+0x607>
  103f44:	4a                   	dec    %edx
  103f45:	89 d8                	mov    %ebx,%eax
  103f47:	4b                   	dec    %ebx
  103f48:	85 c0                	test   %eax,%eax
  103f4a:	0f 84 4b 01 00 00    	je     10409b <vsnprintf+0x73b>
  103f50:	8b 7d 88             	mov    0xffffff88(%ebp),%edi
  103f53:	89 f0                	mov    %esi,%eax
  103f55:	b1 30                	mov    $0x30,%cl
  103f57:	46                   	inc    %esi
  103f58:	85 ff                	test   %edi,%edi
  103f5a:	75 02                	jne    103f5e <vsnprintf+0x5fe>
  103f5c:	b1 20                	mov    $0x20,%cl
  103f5e:	88 08                	mov    %cl,(%eax)
  103f60:	89 d0                	mov    %edx,%eax
  103f62:	4a                   	dec    %edx
  103f63:	85 c0                	test   %eax,%eax
  103f65:	7f de                	jg     103f45 <vsnprintf+0x5e5>
  103f67:	8b bd 6c ff ff ff    	mov    0xffffff6c(%ebp),%edi
  103f6d:	85 ff                	test   %edi,%edi
  103f6f:	74 15                	je     103f86 <vsnprintf+0x626>
  103f71:	89 d8                	mov    %ebx,%eax
  103f73:	4b                   	dec    %ebx
  103f74:	85 c0                	test   %eax,%eax
  103f76:	0f 84 1f 01 00 00    	je     10409b <vsnprintf+0x73b>
  103f7c:	0f b6 95 6c ff ff ff 	movzbl 0xffffff6c(%ebp),%edx
  103f83:	88 16                	mov    %dl,(%esi)
  103f85:	46                   	inc    %esi
  103f86:	8b 8d 68 ff ff ff    	mov    0xffffff68(%ebp),%ecx
  103f8c:	85 c9                	test   %ecx,%ecx
  103f8e:	7e 23                	jle    103fb3 <vsnprintf+0x653>
  103f90:	89 d8                	mov    %ebx,%eax
  103f92:	4b                   	dec    %ebx
  103f93:	85 c0                	test   %eax,%eax
  103f95:	0f 84 00 01 00 00    	je     10409b <vsnprintf+0x73b>
  103f9b:	ff 8d 68 ff ff ff    	decl   0xffffff68(%ebp)
  103fa1:	8b 8d 68 ff ff ff    	mov    0xffffff68(%ebp),%ecx
  103fa7:	0f b6 44 29 a8       	movzbl 0xffffffa8(%ecx,%ebp,1),%eax
  103fac:	88 06                	mov    %al,(%esi)
  103fae:	46                   	inc    %esi
  103faf:	85 c9                	test   %ecx,%ecx
  103fb1:	7f dd                	jg     103f90 <vsnprintf+0x630>
  103fb3:	8b 95 78 ff ff ff    	mov    0xffffff78(%ebp),%edx
  103fb9:	85 d2                	test   %edx,%edx
  103fbb:	0f 8e 99 00 00 00    	jle    10405a <vsnprintf+0x6fa>
  103fc1:	d9 e8                	fld1   
  103fc3:	d9 c9                	fxch   %st(1)
  103fc5:	dd e1                	fucom  %st(1)
  103fc7:	df e0                	fnstsw %ax
  103fc9:	9e                   	sahf   
  103fca:	72 29                	jb     103ff5 <vsnprintf+0x695>
  103fcc:	8b 85 50 ff ff ff    	mov    0xffffff50(%ebp),%eax
  103fd2:	31 d2                	xor    %edx,%edx
  103fd4:	52                   	push   %edx
  103fd5:	50                   	push   %eax
  103fd6:	df 2c 24             	fildll (%esp)
  103fd9:	83 c4 08             	add    $0x8,%esp
  103fdc:	de e9                	fsubrp %st,%st(1)
  103fde:	dd e1                	fucom  %st(1)
  103fe0:	df e0                	fnstsw %ax
  103fe2:	9e                   	sahf   
  103fe3:	72 10                	jb     103ff5 <vsnprintf+0x695>
  103fe5:	d9 c0                	fld    %st(0)
  103fe7:	d9 6d a4             	fldcw  0xffffffa4(%ebp)
  103fea:	df bd 50 ff ff ff    	fistpll 0xffffff50(%ebp)
  103ff0:	d9 6d a6             	fldcw  0xffffffa6(%ebp)
  103ff3:	eb d7                	jmp    103fcc <vsnprintf+0x66c>
  103ff5:	dd d9                	fstp   %st(1)
  103ff7:	89 d8                	mov    %ebx,%eax
  103ff9:	4b                   	dec    %ebx
  103ffa:	85 c0                	test   %eax,%eax
  103ffc:	0f 84 99 00 00 00    	je     10409b <vsnprintf+0x73b>
  104002:	c6 06 2e             	movb   $0x2e,(%esi)
  104005:	8b 85 78 ff ff ff    	mov    0xffffff78(%ebp),%eax
  10400b:	46                   	inc    %esi
  10400c:	ff 8d 78 ff ff ff    	decl   0xffffff78(%ebp)
  104012:	85 c0                	test   %eax,%eax
  104014:	7e 44                	jle    10405a <vsnprintf+0x6fa>
  104016:	d9 05 0c 73 10 00    	flds   0x10730c
  10401c:	dc c9                	fmul   %st,%st(1)
  10401e:	d9 c1                	fld    %st(1)
  104020:	d9 6d a4             	fldcw  0xffffffa4(%ebp)
  104023:	df 7d 98             	fistpll 0xffffff98(%ebp)
  104026:	d9 6d a6             	fldcw  0xffffffa6(%ebp)
  104029:	8b 45 98             	mov    0xffffff98(%ebp),%eax
  10402c:	89 c1                	mov    %eax,%ecx
  10402e:	89 d8                	mov    %ebx,%eax
  104030:	4b                   	dec    %ebx
  104031:	85 c0                	test   %eax,%eax
  104033:	74 64                	je     104099 <vsnprintf+0x739>
  104035:	88 c8                	mov    %cl,%al
  104037:	31 d2                	xor    %edx,%edx
  104039:	04 30                	add    $0x30,%al
  10403b:	88 06                	mov    %al,(%esi)
  10403d:	8b 85 78 ff ff ff    	mov    0xffffff78(%ebp),%eax
  104043:	46                   	inc    %esi
  104044:	52                   	push   %edx
  104045:	51                   	push   %ecx
  104046:	df 2c 24             	fildll (%esp)
  104049:	83 c4 08             	add    $0x8,%esp
  10404c:	ff 8d 78 ff ff ff    	decl   0xffffff78(%ebp)
  104052:	85 c0                	test   %eax,%eax
  104054:	de ea                	fsubrp %st,%st(2)
  104056:	7f c4                	jg     10401c <vsnprintf+0x6bc>
  104058:	dd d8                	fstp   %st(0)
  10405a:	dd d8                	fstp   %st(0)
  10405c:	8b 85 64 ff ff ff    	mov    0xffffff64(%ebp),%eax
  104062:	8b 95 7c ff ff ff    	mov    0xffffff7c(%ebp),%edx
  104068:	29 c2                	sub    %eax,%edx
  10406a:	8b 45 94             	mov    0xffffff94(%ebp),%eax
  10406d:	85 c0                	test   %eax,%eax
  10406f:	0f 84 81 fc ff ff    	je     103cf6 <vsnprintf+0x396>
  104075:	85 d2                	test   %edx,%edx
  104077:	0f 8e 79 fc ff ff    	jle    103cf6 <vsnprintf+0x396>
  10407d:	4a                   	dec    %edx
  10407e:	89 d8                	mov    %ebx,%eax
  104080:	4b                   	dec    %ebx
  104081:	85 c0                	test   %eax,%eax
  104083:	0f 84 77 fc ff ff    	je     103d00 <vsnprintf+0x3a0>
  104089:	c6 06 20             	movb   $0x20,(%esi)
  10408c:	89 d0                	mov    %edx,%eax
  10408e:	46                   	inc    %esi
  10408f:	4a                   	dec    %edx
  104090:	85 c0                	test   %eax,%eax
  104092:	7f ea                	jg     10407e <vsnprintf+0x71e>
  104094:	e9 5d fc ff ff       	jmp    103cf6 <vsnprintf+0x396>
  104099:	dd d8                	fstp   %st(0)
  10409b:	dd d8                	fstp   %st(0)
  10409d:	e9 5e fc ff ff       	jmp    103d00 <vsnprintf+0x3a0>
  1040a2:	d9 c9                	fxch   %st(1)
  1040a4:	8b 7d 8c             	mov    0xffffff8c(%ebp),%edi
  1040a7:	85 ff                	test   %edi,%edi
  1040a9:	74 1d                	je     1040c8 <vsnprintf+0x768>
  1040ab:	d9 c9                	fxch   %st(1)
  1040ad:	dd e1                	fucom  %st(1)
  1040af:	df e0                	fnstsw %ax
  1040b1:	9e                   	sahf   
  1040b2:	72 12                	jb     1040c6 <vsnprintf+0x766>
  1040b4:	dd d9                	fstp   %st(1)
  1040b6:	b9 20 00 00 00       	mov    $0x20,%ecx
  1040bb:	89 8d 6c ff ff ff    	mov    %ecx,0xffffff6c(%ebp)
  1040c1:	e9 d2 fd ff ff       	jmp    103e98 <vsnprintf+0x538>
  1040c6:	d9 c9                	fxch   %st(1)
  1040c8:	dd e9                	fucomp %st(1)
  1040ca:	df e0                	fnstsw %ax
  1040cc:	9e                   	sahf   
  1040cd:	76 12                	jbe    1040e1 <vsnprintf+0x781>
  1040cf:	d9 e0                	fchs   
  1040d1:	ba 2d 00 00 00       	mov    $0x2d,%edx
  1040d6:	89 95 6c ff ff ff    	mov    %edx,0xffffff6c(%ebp)
  1040dc:	e9 b7 fd ff ff       	jmp    103e98 <vsnprintf+0x538>
  1040e1:	31 c0                	xor    %eax,%eax
  1040e3:	e9 aa fd ff ff       	jmp    103e92 <vsnprintf+0x532>
  1040e8:	d9 ee                	fldz   
  1040ea:	eb b8                	jmp    1040a4 <vsnprintf+0x744>
  1040ec:	b8 06 00 00 00       	mov    $0x6,%eax
  1040f1:	89 85 78 ff ff ff    	mov    %eax,0xffffff78(%ebp)
  1040f7:	e9 75 fd ff ff       	jmp    103e71 <vsnprintf+0x511>
  1040fc:	8b 45 80             	mov    0xffffff80(%ebp),%eax
  1040ff:	85 c0                	test   %eax,%eax
  104101:	74 26                	je     104129 <vsnprintf+0x7c9>
  104103:	8b 45 14             	mov    0x14(%ebp),%eax
  104106:	8b 08                	mov    (%eax),%ecx
  104108:	83 c0 04             	add    $0x4,%eax
  10410b:	89 45 14             	mov    %eax,0x14(%ebp)
  10410e:	b8 0a 00 00 00       	mov    $0xa,%eax
  104113:	89 85 74 ff ff ff    	mov    %eax,0xffffff74(%ebp)
  104119:	b8 94 72 10 00       	mov    $0x107294,%eax
  10411e:	89 85 60 ff ff ff    	mov    %eax,0xffffff60(%ebp)
  104124:	e9 0f fa ff ff       	jmp    103b38 <vsnprintf+0x1d8>
  104129:	8b 55 14             	mov    0x14(%ebp),%edx
  10412c:	8b 0a                	mov    (%edx),%ecx
  10412e:	83 c2 04             	add    $0x4,%edx
  104131:	89 55 14             	mov    %edx,0x14(%ebp)
  104134:	eb d8                	jmp    10410e <vsnprintf+0x7ae>
  104136:	8b 45 14             	mov    0x14(%ebp),%eax
  104139:	8b 4d 08             	mov    0x8(%ebp),%ecx
  10413c:	83 45 14 04          	addl   $0x4,0x14(%ebp)
  104140:	8b 10                	mov    (%eax),%edx
  104142:	89 f0                	mov    %esi,%eax
  104144:	29 c8                	sub    %ecx,%eax
  104146:	89 02                	mov    %eax,(%edx)
  104148:	e9 a9 fb ff ff       	jmp    103cf6 <vsnprintf+0x396>
  10414d:	8b 55 80             	mov    0xffffff80(%ebp),%edx
  104150:	85 d2                	test   %edx,%edx
  104152:	74 20                	je     104174 <vsnprintf+0x814>
  104154:	8b 45 14             	mov    0x14(%ebp),%eax
  104157:	8b 08                	mov    (%eax),%ecx
  104159:	83 c0 04             	add    $0x4,%eax
  10415c:	89 45 14             	mov    %eax,0x14(%ebp)
  10415f:	b8 08 00 00 00       	mov    $0x8,%eax
  104164:	89 85 74 ff ff ff    	mov    %eax,0xffffff74(%ebp)
  10416a:	b8 9f 72 10 00       	mov    $0x10729f,%eax
  10416f:	e9 b2 fc ff ff       	jmp    103e26 <vsnprintf+0x4c6>
  104174:	8b 55 14             	mov    0x14(%ebp),%edx
  104177:	8b 0a                	mov    (%edx),%ecx
  104179:	83 c2 04             	add    $0x4,%edx
  10417c:	89 55 14             	mov    %edx,0x14(%ebp)
  10417f:	eb de                	jmp    10415f <vsnprintf+0x7ff>
  104181:	c7 45 84 01 00 00 00 	movl   $0x1,0xffffff84(%ebp)
  104188:	b8 08 00 00 00       	mov    $0x8,%eax
  10418d:	89 85 7c ff ff ff    	mov    %eax,0xffffff7c(%ebp)
  104193:	b8 08 00 00 00       	mov    $0x8,%eax
  104198:	89 85 78 ff ff ff    	mov    %eax,0xffffff78(%ebp)
  10419e:	c7 45 80 01 00 00 00 	movl   $0x1,0xffffff80(%ebp)
  1041a5:	8b 45 80             	mov    0xffffff80(%ebp),%eax
  1041a8:	85 c0                	test   %eax,%eax
  1041aa:	74 1a                	je     1041c6 <vsnprintf+0x866>
  1041ac:	8b 7d 14             	mov    0x14(%ebp),%edi
  1041af:	8b 0f                	mov    (%edi),%ecx
  1041b1:	83 c7 04             	add    $0x4,%edi
  1041b4:	89 7d 14             	mov    %edi,0x14(%ebp)
  1041b7:	b8 10 00 00 00       	mov    $0x10,%eax
  1041bc:	bf a9 72 10 00       	mov    $0x1072a9,%edi
  1041c1:	e9 5e f9 ff ff       	jmp    103b24 <vsnprintf+0x1c4>
  1041c6:	8b 45 14             	mov    0x14(%ebp),%eax
  1041c9:	8b 08                	mov    (%eax),%ecx
  1041cb:	83 c0 04             	add    $0x4,%eax
  1041ce:	89 45 14             	mov    %eax,0x14(%ebp)
  1041d1:	eb e4                	jmp    1041b7 <vsnprintf+0x857>
  1041d3:	8b 45 14             	mov    0x14(%ebp),%eax
  1041d6:	8b 00                	mov    (%eax),%eax
  1041d8:	83 45 14 04          	addl   $0x4,0x14(%ebp)
  1041dc:	85 c0                	test   %eax,%eax
  1041de:	89 85 5c ff ff ff    	mov    %eax,0xffffff5c(%ebp)
  1041e4:	0f 84 55 01 00 00    	je     10433f <vsnprintf+0x9df>
  1041ea:	8b 85 7c ff ff ff    	mov    0xffffff7c(%ebp),%eax
  1041f0:	85 c0                	test   %eax,%eax
  1041f2:	7e 72                	jle    104266 <vsnprintf+0x906>
  1041f4:	31 c0                	xor    %eax,%eax
  1041f6:	b9 ff ff ff ff       	mov    $0xffffffff,%ecx
  1041fb:	8b bd 5c ff ff ff    	mov    0xffffff5c(%ebp),%edi
  104201:	f2 ae                	repnz scas %es:(%edi),%al
  104203:	f7 d1                	not    %ecx
  104205:	49                   	dec    %ecx
  104206:	89 8d 64 ff ff ff    	mov    %ecx,0xffffff64(%ebp)
  10420c:	8b 85 78 ff ff ff    	mov    0xffffff78(%ebp),%eax
  104212:	85 c0                	test   %eax,%eax
  104214:	78 14                	js     10422a <vsnprintf+0x8ca>
  104216:	39 8d 78 ff ff ff    	cmp    %ecx,0xffffff78(%ebp)
  10421c:	7d 0c                	jge    10422a <vsnprintf+0x8ca>
  10421e:	8b 85 78 ff ff ff    	mov    0xffffff78(%ebp),%eax
  104224:	89 85 64 ff ff ff    	mov    %eax,0xffffff64(%ebp)
  10422a:	8b 85 64 ff ff ff    	mov    0xffffff64(%ebp),%eax
  104230:	8b 95 7c ff ff ff    	mov    0xffffff7c(%ebp),%edx
  104236:	29 c2                	sub    %eax,%edx
  104238:	8b 45 94             	mov    0xffffff94(%ebp),%eax
  10423b:	85 c0                	test   %eax,%eax
  10423d:	75 27                	jne    104266 <vsnprintf+0x906>
  10423f:	85 d2                	test   %edx,%edx
  104241:	7e 23                	jle    104266 <vsnprintf+0x906>
  104243:	4a                   	dec    %edx
  104244:	89 d8                	mov    %ebx,%eax
  104246:	4b                   	dec    %ebx
  104247:	85 c0                	test   %eax,%eax
  104249:	0f 84 b1 fa ff ff    	je     103d00 <vsnprintf+0x3a0>
  10424f:	8b 7d 88             	mov    0xffffff88(%ebp),%edi
  104252:	89 f0                	mov    %esi,%eax
  104254:	b1 30                	mov    $0x30,%cl
  104256:	46                   	inc    %esi
  104257:	85 ff                	test   %edi,%edi
  104259:	75 02                	jne    10425d <vsnprintf+0x8fd>
  10425b:	b1 20                	mov    $0x20,%cl
  10425d:	88 08                	mov    %cl,(%eax)
  10425f:	89 d0                	mov    %edx,%eax
  104261:	4a                   	dec    %edx
  104262:	85 c0                	test   %eax,%eax
  104264:	7f de                	jg     104244 <vsnprintf+0x8e4>
  104266:	8b 85 78 ff ff ff    	mov    0xffffff78(%ebp),%eax
  10426c:	85 c0                	test   %eax,%eax
  10426e:	0f 88 93 00 00 00    	js     104307 <vsnprintf+0x9a7>
  104274:	8b 85 78 ff ff ff    	mov    0xffffff78(%ebp),%eax
  10427a:	ff 8d 78 ff ff ff    	decl   0xffffff78(%ebp)
  104280:	85 c0                	test   %eax,%eax
  104282:	7e 46                	jle    1042ca <vsnprintf+0x96a>
  104284:	8b 8d 5c ff ff ff    	mov    0xffffff5c(%ebp),%ecx
  10428a:	0f be 11             	movsbl (%ecx),%edx
  10428d:	41                   	inc    %ecx
  10428e:	89 8d 5c ff ff ff    	mov    %ecx,0xffffff5c(%ebp)
  104294:	85 d2                	test   %edx,%edx
  104296:	74 32                	je     1042ca <vsnprintf+0x96a>
  104298:	89 d8                	mov    %ebx,%eax
  10429a:	4b                   	dec    %ebx
  10429b:	85 c0                	test   %eax,%eax
  10429d:	0f 84 5d fa ff ff    	je     103d00 <vsnprintf+0x3a0>
  1042a3:	88 16                	mov    %dl,(%esi)
  1042a5:	8b 85 78 ff ff ff    	mov    0xffffff78(%ebp),%eax
  1042ab:	46                   	inc    %esi
  1042ac:	ff 8d 78 ff ff ff    	decl   0xffffff78(%ebp)
  1042b2:	85 c0                	test   %eax,%eax
  1042b4:	7e 14                	jle    1042ca <vsnprintf+0x96a>
  1042b6:	8b bd 5c ff ff ff    	mov    0xffffff5c(%ebp),%edi
  1042bc:	0f be 17             	movsbl (%edi),%edx
  1042bf:	47                   	inc    %edi
  1042c0:	89 bd 5c ff ff ff    	mov    %edi,0xffffff5c(%ebp)
  1042c6:	85 d2                	test   %edx,%edx
  1042c8:	75 ce                	jne    104298 <vsnprintf+0x938>
  1042ca:	8b 95 7c ff ff ff    	mov    0xffffff7c(%ebp),%edx
  1042d0:	8b 85 64 ff ff ff    	mov    0xffffff64(%ebp),%eax
  1042d6:	8b 7d 94             	mov    0xffffff94(%ebp),%edi
  1042d9:	29 c2                	sub    %eax,%edx
  1042db:	85 ff                	test   %edi,%edi
  1042dd:	0f 84 13 fa ff ff    	je     103cf6 <vsnprintf+0x396>
  1042e3:	85 d2                	test   %edx,%edx
  1042e5:	0f 8e 0b fa ff ff    	jle    103cf6 <vsnprintf+0x396>
  1042eb:	4a                   	dec    %edx
  1042ec:	89 d8                	mov    %ebx,%eax
  1042ee:	4b                   	dec    %ebx
  1042ef:	85 c0                	test   %eax,%eax
  1042f1:	0f 84 09 fa ff ff    	je     103d00 <vsnprintf+0x3a0>
  1042f7:	c6 06 20             	movb   $0x20,(%esi)
  1042fa:	89 d0                	mov    %edx,%eax
  1042fc:	46                   	inc    %esi
  1042fd:	4a                   	dec    %edx
  1042fe:	85 c0                	test   %eax,%eax
  104300:	7f ea                	jg     1042ec <vsnprintf+0x98c>
  104302:	e9 ef f9 ff ff       	jmp    103cf6 <vsnprintf+0x396>
  104307:	8b 85 5c ff ff ff    	mov    0xffffff5c(%ebp),%eax
  10430d:	0f be 10             	movsbl (%eax),%edx
  104310:	40                   	inc    %eax
  104311:	89 85 5c ff ff ff    	mov    %eax,0xffffff5c(%ebp)
  104317:	85 d2                	test   %edx,%edx
  104319:	74 af                	je     1042ca <vsnprintf+0x96a>
  10431b:	89 d8                	mov    %ebx,%eax
  10431d:	4b                   	dec    %ebx
  10431e:	85 c0                	test   %eax,%eax
  104320:	0f 84 da f9 ff ff    	je     103d00 <vsnprintf+0x3a0>
  104326:	88 16                	mov    %dl,(%esi)
  104328:	8b 8d 5c ff ff ff    	mov    0xffffff5c(%ebp),%ecx
  10432e:	46                   	inc    %esi
  10432f:	0f be 11             	movsbl (%ecx),%edx
  104332:	41                   	inc    %ecx
  104333:	89 8d 5c ff ff ff    	mov    %ecx,0xffffff5c(%ebp)
  104339:	85 d2                	test   %edx,%edx
  10433b:	75 de                	jne    10431b <vsnprintf+0x9bb>
  10433d:	eb 8b                	jmp    1042ca <vsnprintf+0x96a>
  10433f:	80 3d ba 72 10 00 00 	cmpb   $0x0,0x1072ba
  104346:	ba ba 72 10 00       	mov    $0x1072ba,%edx
  10434b:	0f 84 a5 f9 ff ff    	je     103cf6 <vsnprintf+0x396>
  104351:	89 d8                	mov    %ebx,%eax
  104353:	4b                   	dec    %ebx
  104354:	85 c0                	test   %eax,%eax
  104356:	0f 84 a4 f9 ff ff    	je     103d00 <vsnprintf+0x3a0>
  10435c:	0f b6 02             	movzbl (%edx),%eax
  10435f:	42                   	inc    %edx
  104360:	88 06                	mov    %al,(%esi)
  104362:	46                   	inc    %esi
  104363:	80 3a 00             	cmpb   $0x0,(%edx)
  104366:	75 e9                	jne    104351 <vsnprintf+0x9f1>
  104368:	e9 89 f9 ff ff       	jmp    103cf6 <vsnprintf+0x396>
  10436d:	8d 76 00             	lea    0x0(%esi),%esi
  104370:	8b 45 80             	mov    0xffffff80(%ebp),%eax
  104373:	85 c0                	test   %eax,%eax
  104375:	74 1a                	je     104391 <vsnprintf+0xa31>
  104377:	8b 7d 14             	mov    0x14(%ebp),%edi
  10437a:	8b 0f                	mov    (%edi),%ecx
  10437c:	83 c7 04             	add    $0x4,%edi
  10437f:	89 7d 14             	mov    %edi,0x14(%ebp)
  104382:	b8 0a 00 00 00       	mov    $0xa,%eax
  104387:	bf 94 72 10 00       	mov    $0x107294,%edi
  10438c:	e9 93 f7 ff ff       	jmp    103b24 <vsnprintf+0x1c4>
  104391:	8b 45 14             	mov    0x14(%ebp),%eax
  104394:	8b 08                	mov    (%eax),%ecx
  104396:	83 c0 04             	add    $0x4,%eax
  104399:	89 45 14             	mov    %eax,0x14(%ebp)
  10439c:	eb e4                	jmp    104382 <vsnprintf+0xa22>
  10439e:	89 f6                	mov    %esi,%esi
  1043a0:	89 d8                	mov    %ebx,%eax
  1043a2:	4b                   	dec    %ebx
  1043a3:	85 c0                	test   %eax,%eax
  1043a5:	0f 84 55 f9 ff ff    	je     103d00 <vsnprintf+0x3a0>
  1043ab:	c6 06 25             	movb   $0x25,(%esi)
  1043ae:	89 d8                	mov    %ebx,%eax
  1043b0:	46                   	inc    %esi
  1043b1:	4b                   	dec    %ebx
  1043b2:	85 c0                	test   %eax,%eax
  1043b4:	0f 84 46 f9 ff ff    	je     103d00 <vsnprintf+0x3a0>
  1043ba:	88 16                	mov    %dl,(%esi)
  1043bc:	e9 3d fa ff ff       	jmp    103dfe <vsnprintf+0x49e>
  1043c1:	ff 45 10             	incl   0x10(%ebp)
  1043c4:	8b 45 10             	mov    0x10(%ebp),%eax
  1043c7:	0f b6 08             	movzbl (%eax),%ecx
  1043ca:	e9 11 f7 ff ff       	jmp    103ae0 <vsnprintf+0x180>
  1043cf:	83 f8 6c             	cmp    $0x6c,%eax
  1043d2:	0f 85 08 f7 ff ff    	jne    103ae0 <vsnprintf+0x180>
  1043d8:	ff 45 10             	incl   0x10(%ebp)
  1043db:	c7 45 80 01 00 00 00 	movl   $0x1,0xffffff80(%ebp)
  1043e2:	8b 7d 10             	mov    0x10(%ebp),%edi
  1043e5:	0f b6 0f             	movzbl (%edi),%ecx
  1043e8:	e9 f3 f6 ff ff       	jmp    103ae0 <vsnprintf+0x180>
  1043ed:	ff 45 10             	incl   0x10(%ebp)
  1043f0:	8b 55 10             	mov    0x10(%ebp),%edx
  1043f3:	0f b6 0a             	movzbl (%edx),%ecx
  1043f6:	e9 e5 f6 ff ff       	jmp    103ae0 <vsnprintf+0x180>
  1043fb:	ff 45 10             	incl   0x10(%ebp)
  1043fe:	8b 55 10             	mov    0x10(%ebp),%edx
  104401:	0f b6 0a             	movzbl (%edx),%ecx
  104404:	0f be d1             	movsbl %cl,%edx
  104407:	83 fa 2a             	cmp    $0x2a,%edx
  10440a:	74 61                	je     10446d <vsnprintf+0xb0d>
  10440c:	8d 42 d0             	lea    0xffffffd0(%edx),%eax
  10440f:	bf ff ff ff ff       	mov    $0xffffffff,%edi
  104414:	83 f8 09             	cmp    $0x9,%eax
  104417:	89 bd 78 ff ff ff    	mov    %edi,0xffffff78(%ebp)
  10441d:	0f 87 91 f6 ff ff    	ja     103ab4 <vsnprintf+0x154>
  104423:	ff 45 10             	incl   0x10(%ebp)
  104426:	31 c0                	xor    %eax,%eax
  104428:	83 fa 2f             	cmp    $0x2f,%edx
  10442b:	89 85 78 ff ff ff    	mov    %eax,0xffffff78(%ebp)
  104431:	7e 2c                	jle    10445f <vsnprintf+0xaff>
  104433:	83 fa 39             	cmp    $0x39,%edx
  104436:	7f 27                	jg     10445f <vsnprintf+0xaff>
  104438:	8b 8d 78 ff ff ff    	mov    0xffffff78(%ebp),%ecx
  10443e:	8b 7d 10             	mov    0x10(%ebp),%edi
  104441:	8d 04 89             	lea    (%ecx,%ecx,4),%eax
  104444:	8d 44 42 d0          	lea    0xffffffd0(%edx,%eax,2),%eax
  104448:	89 85 78 ff ff ff    	mov    %eax,0xffffff78(%ebp)
  10444e:	0f be 17             	movsbl (%edi),%edx
  104451:	47                   	inc    %edi
  104452:	89 7d 10             	mov    %edi,0x10(%ebp)
  104455:	83 fa 2f             	cmp    $0x2f,%edx
  104458:	7e 05                	jle    10445f <vsnprintf+0xaff>
  10445a:	83 fa 39             	cmp    $0x39,%edx
  10445d:	7e d9                	jle    104438 <vsnprintf+0xad8>
  10445f:	ff 4d 10             	decl   0x10(%ebp)
  104462:	8b 45 10             	mov    0x10(%ebp),%eax
  104465:	0f b6 08             	movzbl (%eax),%ecx
  104468:	e9 47 f6 ff ff       	jmp    103ab4 <vsnprintf+0x154>
  10446d:	ff 45 10             	incl   0x10(%ebp)
  104470:	8b 4d 14             	mov    0x14(%ebp),%ecx
  104473:	83 45 14 04          	addl   $0x4,0x14(%ebp)
  104477:	8b 7d 10             	mov    0x10(%ebp),%edi
  10447a:	8b 09                	mov    (%ecx),%ecx
  10447c:	89 8d 78 ff ff ff    	mov    %ecx,0xffffff78(%ebp)
  104482:	0f b6 0f             	movzbl (%edi),%ecx
  104485:	e9 2a f6 ff ff       	jmp    103ab4 <vsnprintf+0x154>
  10448a:	ff 45 10             	incl   0x10(%ebp)
  10448d:	8b 55 14             	mov    0x14(%ebp),%edx
  104490:	83 45 14 04          	addl   $0x4,0x14(%ebp)
  104494:	8b 7d 10             	mov    0x10(%ebp),%edi
  104497:	8b 12                	mov    (%edx),%edx
  104499:	89 95 7c ff ff ff    	mov    %edx,0xffffff7c(%ebp)
  10449f:	0f b6 0f             	movzbl (%edi),%ecx
  1044a2:	e9 f9 f5 ff ff       	jmp    103aa0 <vsnprintf+0x140>
  1044a7:	c7 45 8c 01 00 00 00 	movl   $0x1,0xffffff8c(%ebp)
  1044ae:	e9 6a f5 ff ff       	jmp    103a1d <vsnprintf+0xbd>
  1044b3:	c7 45 84 01 00 00 00 	movl   $0x1,0xffffff84(%ebp)
  1044ba:	e9 5e f5 ff ff       	jmp    103a1d <vsnprintf+0xbd>
  1044bf:	c7 45 90 01 00 00 00 	movl   $0x1,0xffffff90(%ebp)
  1044c6:	ff 45 10             	incl   0x10(%ebp)
  1044c9:	8b 7d 10             	mov    0x10(%ebp),%edi
  1044cc:	0f b6 0f             	movzbl (%edi),%ecx
  1044cf:	e9 5c f5 ff ff       	jmp    103a30 <vsnprintf+0xd0>
  1044d4:	31 d2                	xor    %edx,%edx
  1044d6:	e9 55 f5 ff ff       	jmp    103a30 <vsnprintf+0xd0>
  1044db:	c7 45 88 01 00 00 00 	movl   $0x1,0xffffff88(%ebp)
  1044e2:	eb e2                	jmp    1044c6 <vsnprintf+0xb66>
  1044e4:	80 3d c1 72 10 00 00 	cmpb   $0x0,0x1072c1
  1044eb:	ba c1 72 10 00       	mov    $0x1072c1,%edx
  1044f0:	0f 84 0a f8 ff ff    	je     103d00 <vsnprintf+0x3a0>
  1044f6:	8d 76 00             	lea    0x0(%esi),%esi
  1044f9:	8d bc 27 00 00 00 00 	lea    0x0(%edi),%edi
  104500:	89 d8                	mov    %ebx,%eax
  104502:	4b                   	dec    %ebx
  104503:	85 c0                	test   %eax,%eax
  104505:	0f 84 f5 f7 ff ff    	je     103d00 <vsnprintf+0x3a0>
  10450b:	0f b6 02             	movzbl (%edx),%eax
  10450e:	42                   	inc    %edx
  10450f:	88 06                	mov    %al,(%esi)
  104511:	46                   	inc    %esi
  104512:	80 3a 00             	cmpb   $0x0,(%edx)
  104515:	75 e9                	jne    104500 <vsnprintf+0xba0>
  104517:	e9 e4 f7 ff ff       	jmp    103d00 <vsnprintf+0x3a0>
  10451c:	8d 74 26 00          	lea    0x0(%esi),%esi

00104520 <snprintf>:
  104520:	55                   	push   %ebp
  104521:	31 c0                	xor    %eax,%eax
  104523:	89 e5                	mov    %esp,%ebp
  104525:	83 ec 18             	sub    $0x18,%esp
  104528:	8b 55 10             	mov    0x10(%ebp),%edx
  10452b:	89 75 fc             	mov    %esi,0xfffffffc(%ebp)
  10452e:	8b 75 08             	mov    0x8(%ebp),%esi
  104531:	85 d2                	test   %edx,%edx
  104533:	89 5d f8             	mov    %ebx,0xfffffff8(%ebp)
  104536:	75 0a                	jne    104542 <snprintf+0x22>
  104538:	8b 5d f8             	mov    0xfffffff8(%ebp),%ebx
  10453b:	8b 75 fc             	mov    0xfffffffc(%ebp),%esi
  10453e:	89 ec                	mov    %ebp,%esp
  104540:	5d                   	pop    %ebp
  104541:	c3                   	ret    
  104542:	89 54 24 08          	mov    %edx,0x8(%esp)
  104546:	8d 45 14             	lea    0x14(%ebp),%eax
  104549:	89 44 24 0c          	mov    %eax,0xc(%esp)
  10454d:	b8 04 00 00 00       	mov    $0x4,%eax
  104552:	89 44 24 04          	mov    %eax,0x4(%esp)
  104556:	89 34 24             	mov    %esi,(%esp)
  104559:	e8 02 f4 ff ff       	call   103960 <vsnprintf>
  10455e:	85 c0                	test   %eax,%eax
  104560:	89 c3                	mov    %eax,%ebx
  104562:	7e 14                	jle    104578 <snprintf+0x58>
  104564:	89 44 24 08          	mov    %eax,0x8(%esp)
  104568:	89 74 24 04          	mov    %esi,0x4(%esp)
  10456c:	c7 04 24 01 00 00 00 	movl   $0x1,(%esp)
  104573:	e8 b8 12 00 00       	call   105830 <write>
  104578:	89 d8                	mov    %ebx,%eax
  10457a:	eb bc                	jmp    104538 <snprintf+0x18>
  10457c:	8d 74 26 00          	lea    0x0(%esi),%esi

00104580 <putc>:
  104580:	55                   	push   %ebp
  104581:	89 e5                	mov    %esp,%ebp
  104583:	83 ec 18             	sub    $0x18,%esp
  104586:	c6 45 00 00          	movb   $0x0,0x0(%ebp)
  10458a:	8b 45 08             	mov    0x8(%ebp),%eax
  10458d:	88 45 ff             	mov    %al,0xffffffff(%ebp)
  104590:	b8 01 00 00 00       	mov    $0x1,%eax
  104595:	89 44 24 08          	mov    %eax,0x8(%esp)
  104599:	8d 45 ff             	lea    0xffffffff(%ebp),%eax
  10459c:	89 44 24 04          	mov    %eax,0x4(%esp)
  1045a0:	8b 45 0c             	mov    0xc(%ebp),%eax
  1045a3:	8b 00                	mov    (%eax),%eax
  1045a5:	89 04 24             	mov    %eax,(%esp)
  1045a8:	e8 83 12 00 00       	call   105830 <write>
  1045ad:	89 ec                	mov    %ebp,%esp
  1045af:	31 c0                	xor    %eax,%eax
  1045b1:	5d                   	pop    %ebp
  1045b2:	c3                   	ret    
  1045b3:	8d b6 00 00 00 00    	lea    0x0(%esi),%esi
  1045b9:	8d bc 27 00 00 00 00 	lea    0x0(%edi),%edi

001045c0 <puts>:
  1045c0:	55                   	push   %ebp
  1045c1:	31 c0                	xor    %eax,%eax
  1045c3:	89 e5                	mov    %esp,%ebp
  1045c5:	83 ec 18             	sub    $0x18,%esp
  1045c8:	8b 55 08             	mov    0x8(%ebp),%edx
  1045cb:	89 5d f4             	mov    %ebx,0xfffffff4(%ebp)
  1045ce:	bb ff ff ff ff       	mov    $0xffffffff,%ebx
  1045d3:	89 d9                	mov    %ebx,%ecx
  1045d5:	89 75 f8             	mov    %esi,0xfffffff8(%ebp)
  1045d8:	8b 35 fc 86 10 00    	mov    0x1086fc,%esi
  1045de:	89 7d fc             	mov    %edi,0xfffffffc(%ebp)
  1045e1:	89 d7                	mov    %edx,%edi
  1045e3:	f2 ae                	repnz scas %es:(%edi),%al
  1045e5:	f7 d1                	not    %ecx
  1045e7:	49                   	dec    %ecx
  1045e8:	89 54 24 04          	mov    %edx,0x4(%esp)
  1045ec:	89 cb                	mov    %ecx,%ebx
  1045ee:	8d 41 01             	lea    0x1(%ecx),%eax
  1045f1:	89 44 24 08          	mov    %eax,0x8(%esp)
  1045f5:	c7 04 24 01 00 00 00 	movl   $0x1,(%esp)
  1045fc:	e8 2f 12 00 00       	call   105830 <write>
  104601:	89 74 24 04          	mov    %esi,0x4(%esp)
  104605:	c7 04 24 0a 00 00 00 	movl   $0xa,(%esp)
  10460c:	e8 6f ff ff ff       	call   104580 <putc>
  104611:	89 d8                	mov    %ebx,%eax
  104613:	8b 75 f8             	mov    0xfffffff8(%ebp),%esi
  104616:	8b 5d f4             	mov    0xfffffff4(%ebp),%ebx
  104619:	8b 7d fc             	mov    0xfffffffc(%ebp),%edi
  10461c:	89 ec                	mov    %ebp,%esp
  10461e:	5d                   	pop    %ebp
  10461f:	c3                   	ret    

00104620 <putchar>:
  104620:	55                   	push   %ebp
  104621:	89 e5                	mov    %esp,%ebp
  104623:	83 ec 18             	sub    $0x18,%esp
  104626:	89 5d fc             	mov    %ebx,0xfffffffc(%ebp)
  104629:	a1 fc 86 10 00       	mov    0x1086fc,%eax
  10462e:	8b 5d 08             	mov    0x8(%ebp),%ebx
  104631:	89 44 24 04          	mov    %eax,0x4(%esp)
  104635:	89 1c 24             	mov    %ebx,(%esp)
  104638:	e8 43 ff ff ff       	call   104580 <putc>
  10463d:	89 d8                	mov    %ebx,%eax
  10463f:	8b 5d fc             	mov    0xfffffffc(%ebp),%ebx
  104642:	89 ec                	mov    %ebp,%esp
  104644:	5d                   	pop    %ebp
  104645:	c3                   	ret    
  104646:	8d 76 00             	lea    0x0(%esi),%esi
  104649:	8d bc 27 00 00 00 00 	lea    0x0(%edi),%edi

00104650 <vsprintf>:
  104650:	55                   	push   %ebp
  104651:	89 e5                	mov    %esp,%ebp
  104653:	83 ec 18             	sub    $0x18,%esp
  104656:	8b 45 10             	mov    0x10(%ebp),%eax
  104659:	89 44 24 0c          	mov    %eax,0xc(%esp)
  10465d:	8b 45 0c             	mov    0xc(%ebp),%eax
  104660:	89 44 24 08          	mov    %eax,0x8(%esp)
  104664:	b8 ff ff ff ff       	mov    $0xffffffff,%eax
  104669:	89 44 24 04          	mov    %eax,0x4(%esp)
  10466d:	8b 45 08             	mov    0x8(%ebp),%eax
  104670:	89 04 24             	mov    %eax,(%esp)
  104673:	e8 e8 f2 ff ff       	call   103960 <vsnprintf>
  104678:	89 ec                	mov    %ebp,%esp
  10467a:	5d                   	pop    %ebp
  10467b:	c3                   	ret    
  10467c:	8d 74 26 00          	lea    0x0(%esi),%esi

00104680 <printf>:
  104680:	55                   	push   %ebp
  104681:	31 c0                	xor    %eax,%eax
  104683:	89 e5                	mov    %esp,%ebp
  104685:	81 ec 18 04 00 00    	sub    $0x418,%esp
  10468b:	8b 55 08             	mov    0x8(%ebp),%edx
  10468e:	89 5d f8             	mov    %ebx,0xfffffff8(%ebp)
  104691:	89 75 fc             	mov    %esi,0xfffffffc(%ebp)
  104694:	85 d2                	test   %edx,%edx
  104696:	75 0a                	jne    1046a2 <printf+0x22>
  104698:	8b 5d f8             	mov    0xfffffff8(%ebp),%ebx
  10469b:	8b 75 fc             	mov    0xfffffffc(%ebp),%esi
  10469e:	89 ec                	mov    %ebp,%esp
  1046a0:	5d                   	pop    %ebp
  1046a1:	c3                   	ret    
  1046a2:	89 54 24 08          	mov    %edx,0x8(%esp)
  1046a6:	8d 45 0c             	lea    0xc(%ebp),%eax
  1046a9:	8d b5 f8 fb ff ff    	lea    0xfffffbf8(%ebp),%esi
  1046af:	89 44 24 0c          	mov    %eax,0xc(%esp)
  1046b3:	b8 00 04 00 00       	mov    $0x400,%eax
  1046b8:	89 44 24 04          	mov    %eax,0x4(%esp)
  1046bc:	89 34 24             	mov    %esi,(%esp)
  1046bf:	e8 9c f2 ff ff       	call   103960 <vsnprintf>
  1046c4:	85 c0                	test   %eax,%eax
  1046c6:	89 c3                	mov    %eax,%ebx
  1046c8:	7e 17                	jle    1046e1 <printf+0x61>
  1046ca:	89 74 24 04          	mov    %esi,0x4(%esp)
  1046ce:	8d 40 01             	lea    0x1(%eax),%eax
  1046d1:	89 44 24 08          	mov    %eax,0x8(%esp)
  1046d5:	c7 04 24 01 00 00 00 	movl   $0x1,(%esp)
  1046dc:	e8 4f 11 00 00       	call   105830 <write>
  1046e1:	89 d8                	mov    %ebx,%eax
  1046e3:	eb b3                	jmp    104698 <printf+0x18>
  1046e5:	8d 74 26 00          	lea    0x0(%esi),%esi
  1046e9:	8d bc 27 00 00 00 00 	lea    0x0(%edi),%edi

001046f0 <fprintf>:
  1046f0:	55                   	push   %ebp
  1046f1:	31 c0                	xor    %eax,%eax
  1046f3:	89 e5                	mov    %esp,%ebp
  1046f5:	81 ec 18 04 00 00    	sub    $0x418,%esp
  1046fb:	8b 55 0c             	mov    0xc(%ebp),%edx
  1046fe:	89 5d f8             	mov    %ebx,0xfffffff8(%ebp)
  104701:	89 75 fc             	mov    %esi,0xfffffffc(%ebp)
  104704:	85 d2                	test   %edx,%edx
  104706:	75 0a                	jne    104712 <fprintf+0x22>
  104708:	8b 5d f8             	mov    0xfffffff8(%ebp),%ebx
  10470b:	8b 75 fc             	mov    0xfffffffc(%ebp),%esi
  10470e:	89 ec                	mov    %ebp,%esp
  104710:	5d                   	pop    %ebp
  104711:	c3                   	ret    
  104712:	89 54 24 08          	mov    %edx,0x8(%esp)
  104716:	8d 45 10             	lea    0x10(%ebp),%eax
  104719:	ba 00 04 00 00       	mov    $0x400,%edx
  10471e:	89 44 24 0c          	mov    %eax,0xc(%esp)
  104722:	8d b5 f8 fb ff ff    	lea    0xfffffbf8(%ebp),%esi
  104728:	89 54 24 04          	mov    %edx,0x4(%esp)
  10472c:	89 34 24             	mov    %esi,(%esp)
  10472f:	e8 2c f2 ff ff       	call   103960 <vsnprintf>
  104734:	85 c0                	test   %eax,%eax
  104736:	89 c3                	mov    %eax,%ebx
  104738:	7e 17                	jle    104751 <fprintf+0x61>
  10473a:	89 74 24 04          	mov    %esi,0x4(%esp)
  10473e:	8d 40 01             	lea    0x1(%eax),%eax
  104741:	89 44 24 08          	mov    %eax,0x8(%esp)
  104745:	c7 04 24 01 00 00 00 	movl   $0x1,(%esp)
  10474c:	e8 df 10 00 00       	call   105830 <write>
  104751:	89 d8                	mov    %ebx,%eax
  104753:	eb b3                	jmp    104708 <fprintf+0x18>
	...

00104760 <fork>:
  104760:	55                   	push   %ebp
  104761:	b8 0e 00 00 00       	mov    $0xe,%eax
  104766:	89 e5                	mov    %esp,%ebp
  104768:	83 ec 08             	sub    $0x8,%esp
  10476b:	cd 30                	int    $0x30
  10476d:	8b 40 14             	mov    0x14(%eax),%eax
  104770:	85 c0                	test   %eax,%eax
  104772:	75 21                	jne    104795 <fork+0x35>
  104774:	b8 01 00 00 00       	mov    $0x1,%eax
  104779:	cd 30                	int    $0x30
  10477b:	85 c0                	test   %eax,%eax
  10477d:	89 c2                	mov    %eax,%edx
  10477f:	78 06                	js     104787 <fork+0x27>
  104781:	89 ec                	mov    %ebp,%esp
  104783:	89 d0                	mov    %edx,%eax
  104785:	5d                   	pop    %ebp
  104786:	c3                   	ret    
  104787:	f7 d8                	neg    %eax
  104789:	ba ff ff ff ff       	mov    $0xffffffff,%edx
  10478e:	a3 9c 96 10 00       	mov    %eax,0x10969c
  104793:	eb ec                	jmp    104781 <fork+0x21>
  104795:	ff d0                	call   *%eax
  104797:	eb db                	jmp    104774 <fork+0x14>
  104799:	8d b4 26 00 00 00 00 	lea    0x0(%esi),%esi

001047a0 <_exit>:
  1047a0:	55                   	push   %ebp
  1047a1:	b8 05 00 00 00       	mov    $0x5,%eax
  1047a6:	89 e5                	mov    %esp,%ebp
  1047a8:	cd 30                	int    $0x30
  1047aa:	5d                   	pop    %ebp
  1047ab:	c3                   	ret    
  1047ac:	8d 74 26 00          	lea    0x0(%esi),%esi

001047b0 <exit>:
  1047b0:	55                   	push   %ebp
  1047b1:	b8 05 00 00 00       	mov    $0x5,%eax
  1047b6:	89 e5                	mov    %esp,%ebp
  1047b8:	cd 30                	int    $0x30
  1047ba:	5d                   	pop    %ebp
  1047bb:	c3                   	ret    
  1047bc:	8d 74 26 00          	lea    0x0(%esi),%esi

001047c0 <wait>:
  1047c0:	55                   	push   %ebp
  1047c1:	b8 08 00 00 00       	mov    $0x8,%eax
  1047c6:	89 e5                	mov    %esp,%ebp
  1047c8:	83 ec 08             	sub    $0x8,%esp
  1047cb:	89 74 24 04          	mov    %esi,0x4(%esp)
  1047cf:	8b 75 08             	mov    0x8(%ebp),%esi
  1047d2:	89 1c 24             	mov    %ebx,(%esp)
  1047d5:	31 db                	xor    %ebx,%ebx
  1047d7:	8b 0e                	mov    (%esi),%ecx
  1047d9:	89 da                	mov    %ebx,%edx
  1047db:	cd 30                	int    $0x30
  1047dd:	89 0e                	mov    %ecx,(%esi)
  1047df:	85 c0                	test   %eax,%eax
  1047e1:	78 0d                	js     1047f0 <wait+0x30>
  1047e3:	8b 1c 24             	mov    (%esp),%ebx
  1047e6:	8b 74 24 04          	mov    0x4(%esp),%esi
  1047ea:	89 ec                	mov    %ebp,%esp
  1047ec:	5d                   	pop    %ebp
  1047ed:	c3                   	ret    
  1047ee:	89 f6                	mov    %esi,%esi
  1047f0:	f7 d8                	neg    %eax
  1047f2:	a3 9c 96 10 00       	mov    %eax,0x10969c
  1047f7:	b8 ff ff ff ff       	mov    $0xffffffff,%eax
  1047fc:	eb e5                	jmp    1047e3 <wait+0x23>
	...

00104800 <pthread_attr_init>:
  104800:	55                   	push   %ebp
  104801:	89 e5                	mov    %esp,%ebp
  104803:	8b 45 08             	mov    0x8(%ebp),%eax
  104806:	c7 00 29 00 00 00    	movl   $0x29,(%eax)
  10480c:	c7 40 10 04 00 00 00 	movl   $0x4,0x10(%eax)
  104813:	c7 40 04 18 00 00 00 	movl   $0x18,0x4(%eax)
  10481a:	c7 40 08 00 00 00 00 	movl   $0x0,0x8(%eax)
  104821:	c7 40 0c 00 00 00 00 	movl   $0x0,0xc(%eax)
  104828:	31 c0                	xor    %eax,%eax
  10482a:	5d                   	pop    %ebp
  10482b:	c3                   	ret    
  10482c:	8d 74 26 00          	lea    0x0(%esi),%esi

00104830 <pthread_attr_destroy>:
  104830:	55                   	push   %ebp
  104831:	31 c0                	xor    %eax,%eax
  104833:	89 e5                	mov    %esp,%ebp
  104835:	5d                   	pop    %ebp
  104836:	c3                   	ret    
  104837:	89 f6                	mov    %esi,%esi
  104839:	8d bc 27 00 00 00 00 	lea    0x0(%edi),%edi

00104840 <pthread_attr_getinheritsched>:
  104840:	55                   	push   %ebp
  104841:	89 e5                	mov    %esp,%ebp
  104843:	8b 45 08             	mov    0x8(%ebp),%eax
  104846:	8b 10                	mov    (%eax),%edx
  104848:	8b 45 0c             	mov    0xc(%ebp),%eax
  10484b:	83 e2 03             	and    $0x3,%edx
  10484e:	89 10                	mov    %edx,(%eax)
  104850:	31 c0                	xor    %eax,%eax
  104852:	5d                   	pop    %ebp
  104853:	c3                   	ret    
  104854:	8d b6 00 00 00 00    	lea    0x0(%esi),%esi
  10485a:	8d bf 00 00 00 00    	lea    0x0(%edi),%edi

00104860 <pthread_attr_setinheritsched>:
  104860:	55                   	push   %ebp
  104861:	89 e5                	mov    %esp,%ebp
  104863:	8b 55 08             	mov    0x8(%ebp),%edx
  104866:	8b 4d 0c             	mov    0xc(%ebp),%ecx
  104869:	8b 02                	mov    (%edx),%eax
  10486b:	09 c8                	or     %ecx,%eax
  10486d:	89 02                	mov    %eax,(%edx)
  10486f:	31 c0                	xor    %eax,%eax
  104871:	5d                   	pop    %ebp
  104872:	c3                   	ret    
  104873:	8d b6 00 00 00 00    	lea    0x0(%esi),%esi
  104879:	8d bc 27 00 00 00 00 	lea    0x0(%edi),%edi

00104880 <pthread_attr_getschedparam>:
  104880:	55                   	push   %ebp
  104881:	89 e5                	mov    %esp,%ebp
  104883:	8b 45 08             	mov    0x8(%ebp),%eax
  104886:	8b 50 04             	mov    0x4(%eax),%edx
  104889:	8b 45 0c             	mov    0xc(%ebp),%eax
  10488c:	89 10                	mov    %edx,(%eax)
  10488e:	31 c0                	xor    %eax,%eax
  104890:	5d                   	pop    %ebp
  104891:	c3                   	ret    
  104892:	8d b4 26 00 00 00 00 	lea    0x0(%esi),%esi
  104899:	8d bc 27 00 00 00 00 	lea    0x0(%edi),%edi

001048a0 <pthread_attr_setschedparam>:
  1048a0:	55                   	push   %ebp
  1048a1:	89 e5                	mov    %esp,%ebp
  1048a3:	8b 45 0c             	mov    0xc(%ebp),%eax
  1048a6:	8b 10                	mov    (%eax),%edx
  1048a8:	8b 45 08             	mov    0x8(%ebp),%eax
  1048ab:	89 50 04             	mov    %edx,0x4(%eax)
  1048ae:	31 c0                	xor    %eax,%eax
  1048b0:	5d                   	pop    %ebp
  1048b1:	c3                   	ret    
  1048b2:	8d b4 26 00 00 00 00 	lea    0x0(%esi),%esi
  1048b9:	8d bc 27 00 00 00 00 	lea    0x0(%edi),%edi

001048c0 <pthread_attr_getschedpolicy>:
  1048c0:	55                   	push   %ebp
  1048c1:	89 e5                	mov    %esp,%ebp
  1048c3:	8b 45 08             	mov    0x8(%ebp),%eax
  1048c6:	8b 50 10             	mov    0x10(%eax),%edx
  1048c9:	8b 45 0c             	mov    0xc(%ebp),%eax
  1048cc:	89 10                	mov    %edx,(%eax)
  1048ce:	31 c0                	xor    %eax,%eax
  1048d0:	5d                   	pop    %ebp
  1048d1:	c3                   	ret    
  1048d2:	8d b4 26 00 00 00 00 	lea    0x0(%esi),%esi
  1048d9:	8d bc 27 00 00 00 00 	lea    0x0(%edi),%edi

001048e0 <pthread_attr_setschedpolicy>:
  1048e0:	55                   	push   %ebp
  1048e1:	89 e5                	mov    %esp,%ebp
  1048e3:	8b 55 0c             	mov    0xc(%ebp),%edx
  1048e6:	8d 42 ff             	lea    0xffffffff(%edx),%eax
  1048e9:	83 f8 01             	cmp    $0x1,%eax
  1048ec:	76 0a                	jbe    1048f8 <pthread_attr_setschedpolicy+0x18>
  1048ee:	83 fa 04             	cmp    $0x4,%edx
  1048f1:	b8 1d 00 00 00       	mov    $0x1d,%eax
  1048f6:	75 08                	jne    104900 <pthread_attr_setschedpolicy+0x20>
  1048f8:	8b 45 08             	mov    0x8(%ebp),%eax
  1048fb:	89 50 10             	mov    %edx,0x10(%eax)
  1048fe:	31 c0                	xor    %eax,%eax
  104900:	5d                   	pop    %ebp
  104901:	c3                   	ret    
  104902:	8d b4 26 00 00 00 00 	lea    0x0(%esi),%esi
  104909:	8d bc 27 00 00 00 00 	lea    0x0(%edi),%edi

00104910 <pthread_attr_getscope>:
  104910:	55                   	push   %ebp
  104911:	89 e5                	mov    %esp,%ebp
  104913:	8b 45 08             	mov    0x8(%ebp),%eax
  104916:	8b 10                	mov    (%eax),%edx
  104918:	8b 45 0c             	mov    0xc(%ebp),%eax
  10491b:	83 e2 0c             	and    $0xc,%edx
  10491e:	89 10                	mov    %edx,(%eax)
  104920:	31 c0                	xor    %eax,%eax
  104922:	5d                   	pop    %ebp
  104923:	c3                   	ret    
  104924:	8d b6 00 00 00 00    	lea    0x0(%esi),%esi
  10492a:	8d bf 00 00 00 00    	lea    0x0(%edi),%edi

00104930 <pthread_attr_setscope>:
  104930:	55                   	push   %ebp
  104931:	89 e5                	mov    %esp,%ebp
  104933:	8b 55 0c             	mov    0xc(%ebp),%edx
  104936:	8b 4d 08             	mov    0x8(%ebp),%ecx
  104939:	83 fa 08             	cmp    $0x8,%edx
  10493c:	74 0a                	je     104948 <pthread_attr_setscope+0x18>
  10493e:	83 fa 04             	cmp    $0x4,%edx
  104941:	b8 1d 00 00 00       	mov    $0x1d,%eax
  104946:	75 04                	jne    10494c <pthread_attr_setscope+0x1c>
  104948:	09 11                	or     %edx,(%ecx)
  10494a:	31 c0                	xor    %eax,%eax
  10494c:	5d                   	pop    %ebp
  10494d:	c3                   	ret    
  10494e:	89 f6                	mov    %esi,%esi

00104950 <pthread_attr_getstackaddr>:
  104950:	55                   	push   %ebp
  104951:	89 e5                	mov    %esp,%ebp
  104953:	8b 45 0c             	mov    0xc(%ebp),%eax
  104956:	8b 10                	mov    (%eax),%edx
  104958:	8b 45 08             	mov    0x8(%ebp),%eax
  10495b:	83 c0 08             	add    $0x8,%eax
  10495e:	89 02                	mov    %eax,(%edx)
  104960:	31 c0                	xor    %eax,%eax
  104962:	5d                   	pop    %ebp
  104963:	c3                   	ret    
  104964:	8d b6 00 00 00 00    	lea    0x0(%esi),%esi
  10496a:	8d bf 00 00 00 00    	lea    0x0(%edi),%edi

00104970 <pthread_attr_setstackaddr>:
  104970:	55                   	push   %ebp
  104971:	89 e5                	mov    %esp,%ebp
  104973:	8b 45 08             	mov    0x8(%ebp),%eax
  104976:	8b 55 0c             	mov    0xc(%ebp),%edx
  104979:	89 50 08             	mov    %edx,0x8(%eax)
  10497c:	31 c0                	xor    %eax,%eax
  10497e:	5d                   	pop    %ebp
  10497f:	c3                   	ret    

00104980 <pthread_attr_getstack>:
  104980:	55                   	push   %ebp
  104981:	89 e5                	mov    %esp,%ebp
  104983:	83 ec 18             	sub    $0x18,%esp
  104986:	89 5d fc             	mov    %ebx,0xfffffffc(%ebp)
  104989:	8b 45 0c             	mov    0xc(%ebp),%eax
  10498c:	8b 5d 08             	mov    0x8(%ebp),%ebx
  10498f:	89 44 24 04          	mov    %eax,0x4(%esp)
  104993:	89 1c 24             	mov    %ebx,(%esp)
  104996:	e8 b5 ff ff ff       	call   104950 <pthread_attr_getstackaddr>
  10499b:	8b 45 10             	mov    0x10(%ebp),%eax
  10499e:	8b 53 0c             	mov    0xc(%ebx),%edx
  1049a1:	89 10                	mov    %edx,(%eax)
  1049a3:	8b 5d fc             	mov    0xfffffffc(%ebp),%ebx
  1049a6:	31 c0                	xor    %eax,%eax
  1049a8:	89 ec                	mov    %ebp,%esp
  1049aa:	5d                   	pop    %ebp
  1049ab:	c3                   	ret    
  1049ac:	8d 74 26 00          	lea    0x0(%esi),%esi

001049b0 <pthread_attr_setstack>:
  1049b0:	55                   	push   %ebp
  1049b1:	b8 1d 00 00 00       	mov    $0x1d,%eax
  1049b6:	89 e5                	mov    %esp,%ebp
  1049b8:	83 ec 18             	sub    $0x18,%esp
  1049bb:	89 5d f8             	mov    %ebx,0xfffffff8(%ebp)
  1049be:	8b 5d 10             	mov    0x10(%ebp),%ebx
  1049c1:	89 75 fc             	mov    %esi,0xfffffffc(%ebp)
  1049c4:	8b 75 08             	mov    0x8(%ebp),%esi
  1049c7:	81 fb ff 0f 00 00    	cmp    $0xfff,%ebx
  1049cd:	76 14                	jbe    1049e3 <pthread_attr_setstack+0x33>
  1049cf:	89 34 24             	mov    %esi,(%esp)
  1049d2:	8b 45 0c             	mov    0xc(%ebp),%eax
  1049d5:	89 44 24 04          	mov    %eax,0x4(%esp)
  1049d9:	e8 92 ff ff ff       	call   104970 <pthread_attr_setstackaddr>
  1049de:	89 5e 0c             	mov    %ebx,0xc(%esi)
  1049e1:	31 c0                	xor    %eax,%eax
  1049e3:	8b 5d f8             	mov    0xfffffff8(%ebp),%ebx
  1049e6:	8b 75 fc             	mov    0xfffffffc(%ebp),%esi
  1049e9:	89 ec                	mov    %ebp,%esp
  1049eb:	5d                   	pop    %ebp
  1049ec:	c3                   	ret    
  1049ed:	8d 76 00             	lea    0x0(%esi),%esi

001049f0 <pthread_attr_getdetachstate>:
  1049f0:	55                   	push   %ebp
  1049f1:	89 e5                	mov    %esp,%ebp
  1049f3:	8b 45 08             	mov    0x8(%ebp),%eax
  1049f6:	8b 10                	mov    (%eax),%edx
  1049f8:	8b 45 0c             	mov    0xc(%ebp),%eax
  1049fb:	83 e2 30             	and    $0x30,%edx
  1049fe:	89 10                	mov    %edx,(%eax)
  104a00:	31 c0                	xor    %eax,%eax
  104a02:	5d                   	pop    %ebp
  104a03:	c3                   	ret    
  104a04:	8d b6 00 00 00 00    	lea    0x0(%esi),%esi
  104a0a:	8d bf 00 00 00 00    	lea    0x0(%edi),%edi

00104a10 <pthread_attr_setdetachstate>:
  104a10:	55                   	push   %ebp
  104a11:	89 e5                	mov    %esp,%ebp
  104a13:	8b 55 08             	mov    0x8(%ebp),%edx
  104a16:	8b 4d 0c             	mov    0xc(%ebp),%ecx
  104a19:	8b 02                	mov    (%edx),%eax
  104a1b:	09 c8                	or     %ecx,%eax
  104a1d:	89 02                	mov    %eax,(%edx)
  104a1f:	31 c0                	xor    %eax,%eax
  104a21:	5d                   	pop    %ebp
  104a22:	c3                   	ret    
  104a23:	8d b6 00 00 00 00    	lea    0x0(%esi),%esi
  104a29:	8d bc 27 00 00 00 00 	lea    0x0(%edi),%edi

00104a30 <pthread_attr_getguardsize>:
  104a30:	55                   	push   %ebp
  104a31:	31 c0                	xor    %eax,%eax
  104a33:	89 e5                	mov    %esp,%ebp
  104a35:	5d                   	pop    %ebp
  104a36:	c3                   	ret    
  104a37:	89 f6                	mov    %esi,%esi
  104a39:	8d bc 27 00 00 00 00 	lea    0x0(%edi),%edi

00104a40 <pthread_attr_setguardsize>:
  104a40:	55                   	push   %ebp
  104a41:	31 c0                	xor    %eax,%eax
  104a43:	89 e5                	mov    %esp,%ebp
  104a45:	5d                   	pop    %ebp
  104a46:	c3                   	ret    
	...

00104a50 <pthread_mutexattr_init>:
  104a50:	55                   	push   %ebp
  104a51:	b8 1d 00 00 00       	mov    $0x1d,%eax
  104a56:	89 e5                	mov    %esp,%ebp
  104a58:	8b 55 08             	mov    0x8(%ebp),%edx
  104a5b:	85 d2                	test   %edx,%edx
  104a5d:	74 16                	je     104a75 <pthread_mutexattr_init+0x25>
  104a5f:	c7 02 01 00 00 00    	movl   $0x1,(%edx)
  104a65:	31 c0                	xor    %eax,%eax
  104a67:	c7 42 04 01 00 00 00 	movl   $0x1,0x4(%edx)
  104a6e:	c7 42 08 02 00 00 00 	movl   $0x2,0x8(%edx)
  104a75:	5d                   	pop    %ebp
  104a76:	c3                   	ret    
  104a77:	89 f6                	mov    %esi,%esi
  104a79:	8d bc 27 00 00 00 00 	lea    0x0(%edi),%edi

00104a80 <pthread_mutexattr_destroy>:
  104a80:	55                   	push   %ebp
  104a81:	31 c0                	xor    %eax,%eax
  104a83:	89 e5                	mov    %esp,%ebp
  104a85:	83 7d 08 00          	cmpl   $0x0,0x8(%ebp)
  104a89:	5d                   	pop    %ebp
  104a8a:	0f 95 c0             	setne  %al
  104a8d:	48                   	dec    %eax
  104a8e:	83 e0 1d             	and    $0x1d,%eax
  104a91:	c3                   	ret    
  104a92:	8d b4 26 00 00 00 00 	lea    0x0(%esi),%esi
  104a99:	8d bc 27 00 00 00 00 	lea    0x0(%edi),%edi

00104aa0 <pthread_mutexattr_getprioceiling>:
  104aa0:	55                   	push   %ebp
  104aa1:	b8 37 00 00 00       	mov    $0x37,%eax
  104aa6:	89 e5                	mov    %esp,%ebp
  104aa8:	5d                   	pop    %ebp
  104aa9:	c3                   	ret    
  104aaa:	8d b6 00 00 00 00    	lea    0x0(%esi),%esi

00104ab0 <pthread_mutexattr_setprioceiling>:
  104ab0:	55                   	push   %ebp
  104ab1:	b8 37 00 00 00       	mov    $0x37,%eax
  104ab6:	89 e5                	mov    %esp,%ebp
  104ab8:	5d                   	pop    %ebp
  104ab9:	c3                   	ret    
  104aba:	8d b6 00 00 00 00    	lea    0x0(%esi),%esi

00104ac0 <pthread_mutexattr_getprotocol>:
  104ac0:	55                   	push   %ebp
  104ac1:	b8 1d 00 00 00       	mov    $0x1d,%eax
  104ac6:	89 e5                	mov    %esp,%ebp
  104ac8:	8b 55 08             	mov    0x8(%ebp),%edx
  104acb:	85 d2                	test   %edx,%edx
  104acd:	74 0a                	je     104ad9 <pthread_mutexattr_getprotocol+0x19>
  104acf:	8b 45 0c             	mov    0xc(%ebp),%eax
  104ad2:	8b 52 08             	mov    0x8(%edx),%edx
  104ad5:	89 10                	mov    %edx,(%eax)
  104ad7:	31 c0                	xor    %eax,%eax
  104ad9:	5d                   	pop    %ebp
  104ada:	c3                   	ret    
  104adb:	90                   	nop    
  104adc:	8d 74 26 00          	lea    0x0(%esi),%esi

00104ae0 <pthread_mutexattr_setprotocol>:
  104ae0:	55                   	push   %ebp
  104ae1:	ba 1d 00 00 00       	mov    $0x1d,%edx
  104ae6:	89 e5                	mov    %esp,%ebp
  104ae8:	53                   	push   %ebx
  104ae9:	8b 4d 0c             	mov    0xc(%ebp),%ecx
  104aec:	8b 5d 08             	mov    0x8(%ebp),%ebx
  104aef:	85 db                	test   %ebx,%ebx
  104af1:	74 12                	je     104b05 <pthread_mutexattr_setprotocol+0x25>
  104af3:	8d 41 ff             	lea    0xffffffff(%ecx),%eax
  104af6:	ba 3c 00 00 00       	mov    $0x3c,%edx
  104afb:	83 f8 02             	cmp    $0x2,%eax
  104afe:	77 05                	ja     104b05 <pthread_mutexattr_setprotocol+0x25>
  104b00:	89 4b 08             	mov    %ecx,0x8(%ebx)
  104b03:	31 d2                	xor    %edx,%edx
  104b05:	5b                   	pop    %ebx
  104b06:	89 d0                	mov    %edx,%eax
  104b08:	5d                   	pop    %ebp
  104b09:	c3                   	ret    
  104b0a:	8d b6 00 00 00 00    	lea    0x0(%esi),%esi

00104b10 <pthread_mutexattr_getpshared>:
  104b10:	55                   	push   %ebp
  104b11:	b8 1d 00 00 00       	mov    $0x1d,%eax
  104b16:	89 e5                	mov    %esp,%ebp
  104b18:	8b 55 08             	mov    0x8(%ebp),%edx
  104b1b:	85 d2                	test   %edx,%edx
  104b1d:	74 0a                	je     104b29 <pthread_mutexattr_getpshared+0x19>
  104b1f:	8b 45 0c             	mov    0xc(%ebp),%eax
  104b22:	8b 52 04             	mov    0x4(%edx),%edx
  104b25:	89 10                	mov    %edx,(%eax)
  104b27:	31 c0                	xor    %eax,%eax
  104b29:	5d                   	pop    %ebp
  104b2a:	c3                   	ret    
  104b2b:	90                   	nop    
  104b2c:	8d 74 26 00          	lea    0x0(%esi),%esi

00104b30 <pthread_mutexattr_setpshared>:
  104b30:	55                   	push   %ebp
  104b31:	ba 1d 00 00 00       	mov    $0x1d,%edx
  104b36:	89 e5                	mov    %esp,%ebp
  104b38:	53                   	push   %ebx
  104b39:	8b 4d 0c             	mov    0xc(%ebp),%ecx
  104b3c:	8b 5d 08             	mov    0x8(%ebp),%ebx
  104b3f:	85 db                	test   %ebx,%ebx
  104b41:	74 12                	je     104b55 <pthread_mutexattr_setpshared+0x25>
  104b43:	8d 41 ff             	lea    0xffffffff(%ecx),%eax
  104b46:	ba 3c 00 00 00       	mov    $0x3c,%edx
  104b4b:	83 f8 01             	cmp    $0x1,%eax
  104b4e:	77 05                	ja     104b55 <pthread_mutexattr_setpshared+0x25>
  104b50:	89 4b 04             	mov    %ecx,0x4(%ebx)
  104b53:	31 d2                	xor    %edx,%edx
  104b55:	5b                   	pop    %ebx
  104b56:	89 d0                	mov    %edx,%eax
  104b58:	5d                   	pop    %ebp
  104b59:	c3                   	ret    
  104b5a:	8d b6 00 00 00 00    	lea    0x0(%esi),%esi

00104b60 <pthread_mutexattr_gettype>:
  104b60:	55                   	push   %ebp
  104b61:	b8 1d 00 00 00       	mov    $0x1d,%eax
  104b66:	89 e5                	mov    %esp,%ebp
  104b68:	8b 55 08             	mov    0x8(%ebp),%edx
  104b6b:	85 d2                	test   %edx,%edx
  104b6d:	74 09                	je     104b78 <pthread_mutexattr_gettype+0x18>
  104b6f:	8b 45 0c             	mov    0xc(%ebp),%eax
  104b72:	8b 12                	mov    (%edx),%edx
  104b74:	89 10                	mov    %edx,(%eax)
  104b76:	31 c0                	xor    %eax,%eax
  104b78:	5d                   	pop    %ebp
  104b79:	c3                   	ret    
  104b7a:	8d b6 00 00 00 00    	lea    0x0(%esi),%esi

00104b80 <pthread_mutexattr_settype>:
  104b80:	55                   	push   %ebp
  104b81:	ba 1d 00 00 00       	mov    $0x1d,%edx
  104b86:	89 e5                	mov    %esp,%ebp
  104b88:	53                   	push   %ebx
  104b89:	8b 4d 0c             	mov    0xc(%ebp),%ecx
  104b8c:	8b 5d 08             	mov    0x8(%ebp),%ebx
  104b8f:	85 db                	test   %ebx,%ebx
  104b91:	74 14                	je     104ba7 <pthread_mutexattr_settype+0x27>
  104b93:	89 c8                	mov    %ecx,%eax
  104b95:	ba 3c 00 00 00       	mov    $0x3c,%edx
  104b9a:	83 e0 0f             	and    $0xf,%eax
  104b9d:	83 f8 0f             	cmp    $0xf,%eax
  104ba0:	75 05                	jne    104ba7 <pthread_mutexattr_settype+0x27>
  104ba2:	89 4b 04             	mov    %ecx,0x4(%ebx)
  104ba5:	31 d2                	xor    %edx,%edx
  104ba7:	5b                   	pop    %ebx
  104ba8:	89 d0                	mov    %edx,%eax
  104baa:	5d                   	pop    %ebp
  104bab:	c3                   	ret    
  104bac:	8d 74 26 00          	lea    0x0(%esi),%esi

00104bb0 <pthread_mutex_init>:
  104bb0:	55                   	push   %ebp
  104bb1:	b8 1d 00 00 00       	mov    $0x1d,%eax
  104bb6:	89 e5                	mov    %esp,%ebp
  104bb8:	83 ec 18             	sub    $0x18,%esp
  104bbb:	89 75 fc             	mov    %esi,0xfffffffc(%ebp)
  104bbe:	8b 75 08             	mov    0x8(%ebp),%esi
  104bc1:	89 5d f8             	mov    %ebx,0xfffffff8(%ebp)
  104bc4:	85 f6                	test   %esi,%esi
  104bc6:	74 1c                	je     104be4 <pthread_mutex_init+0x34>
  104bc8:	8b 45 0c             	mov    0xc(%ebp),%eax
  104bcb:	85 c0                	test   %eax,%eax
  104bcd:	74 25                	je     104bf4 <pthread_mutex_init+0x44>
  104bcf:	bb 01 00 00 00       	mov    $0x1,%ebx
  104bd4:	b8 27 00 00 00       	mov    $0x27,%eax
  104bd9:	cd 30                	int    $0x30
  104bdb:	85 c0                	test   %eax,%eax
  104bdd:	78 11                	js     104bf0 <pthread_mutex_init+0x40>
  104bdf:	89 46 10             	mov    %eax,0x10(%esi)
  104be2:	31 c0                	xor    %eax,%eax
  104be4:	8b 5d f8             	mov    0xfffffff8(%ebp),%ebx
  104be7:	8b 75 fc             	mov    0xfffffffc(%ebp),%esi
  104bea:	89 ec                	mov    %ebp,%esp
  104bec:	5d                   	pop    %ebp
  104bed:	c3                   	ret    
  104bee:	89 f6                	mov    %esi,%esi
  104bf0:	f7 d8                	neg    %eax
  104bf2:	eb f0                	jmp    104be4 <pthread_mutex_init+0x34>
  104bf4:	89 34 24             	mov    %esi,(%esp)
  104bf7:	e8 54 fe ff ff       	call   104a50 <pthread_mutexattr_init>
  104bfc:	eb d1                	jmp    104bcf <pthread_mutex_init+0x1f>
  104bfe:	89 f6                	mov    %esi,%esi

00104c00 <pthread_mutex_destroy>:
  104c00:	55                   	push   %ebp
  104c01:	ba 1d 00 00 00       	mov    $0x1d,%edx
  104c06:	89 e5                	mov    %esp,%ebp
  104c08:	53                   	push   %ebx
  104c09:	8b 45 08             	mov    0x8(%ebp),%eax
  104c0c:	85 c0                	test   %eax,%eax
  104c0e:	74 16                	je     104c26 <pthread_mutex_destroy+0x26>
  104c10:	8b 58 10             	mov    0x10(%eax),%ebx
  104c13:	b8 28 00 00 00       	mov    $0x28,%eax
  104c18:	cd 30                	int    $0x30
  104c1a:	89 c2                	mov    %eax,%edx
  104c1c:	c1 f8 1f             	sar    $0x1f,%eax
  104c1f:	f7 da                	neg    %edx
  104c21:	83 c8 00             	or     $0x0,%eax
  104c24:	21 c2                	and    %eax,%edx
  104c26:	5b                   	pop    %ebx
  104c27:	89 d0                	mov    %edx,%eax
  104c29:	5d                   	pop    %ebp
  104c2a:	c3                   	ret    
  104c2b:	90                   	nop    
  104c2c:	8d 74 26 00          	lea    0x0(%esi),%esi

00104c30 <pthread_mutex_lock>:
  104c30:	55                   	push   %ebp
  104c31:	31 c0                	xor    %eax,%eax
  104c33:	89 e5                	mov    %esp,%ebp
  104c35:	83 7d 08 00          	cmpl   $0x0,0x8(%ebp)
  104c39:	5d                   	pop    %ebp
  104c3a:	0f 95 c0             	setne  %al
  104c3d:	48                   	dec    %eax
  104c3e:	83 e0 1d             	and    $0x1d,%eax
  104c41:	c3                   	ret    
  104c42:	8d b4 26 00 00 00 00 	lea    0x0(%esi),%esi
  104c49:	8d bc 27 00 00 00 00 	lea    0x0(%edi),%edi

00104c50 <pthread_mutex_trylock>:
  104c50:	55                   	push   %ebp
  104c51:	31 c0                	xor    %eax,%eax
  104c53:	89 e5                	mov    %esp,%ebp
  104c55:	83 7d 08 00          	cmpl   $0x0,0x8(%ebp)
  104c59:	5d                   	pop    %ebp
  104c5a:	0f 95 c0             	setne  %al
  104c5d:	48                   	dec    %eax
  104c5e:	83 e0 1d             	and    $0x1d,%eax
  104c61:	c3                   	ret    
  104c62:	8d b4 26 00 00 00 00 	lea    0x0(%esi),%esi
  104c69:	8d bc 27 00 00 00 00 	lea    0x0(%edi),%edi

00104c70 <pthread_mutex_unlock>:
  104c70:	55                   	push   %ebp
  104c71:	31 c0                	xor    %eax,%eax
  104c73:	89 e5                	mov    %esp,%ebp
  104c75:	83 7d 08 00          	cmpl   $0x0,0x8(%ebp)
  104c79:	5d                   	pop    %ebp
  104c7a:	0f 95 c0             	setne  %al
  104c7d:	48                   	dec    %eax
  104c7e:	83 e0 1d             	and    $0x1d,%eax
  104c81:	c3                   	ret    
  104c82:	8d b4 26 00 00 00 00 	lea    0x0(%esi),%esi
  104c89:	8d bc 27 00 00 00 00 	lea    0x0(%edi),%edi

00104c90 <pthread_mutex_timedlock>:
  104c90:	55                   	push   %ebp
  104c91:	b8 37 00 00 00       	mov    $0x37,%eax
  104c96:	89 e5                	mov    %esp,%ebp
  104c98:	5d                   	pop    %ebp
  104c99:	c3                   	ret    
  104c9a:	00 00                	add    %al,(%eax)
  104c9c:	00 00                	add    %al,(%eax)
	...

00104ca0 <pthread_self>:
  104ca0:	55                   	push   %ebp
  104ca1:	b8 0d 00 00 00       	mov    $0xd,%eax
  104ca6:	89 e5                	mov    %esp,%ebp
  104ca8:	cd 30                	int    $0x30
  104caa:	5d                   	pop    %ebp
  104cab:	c3                   	ret    
  104cac:	8d 74 26 00          	lea    0x0(%esi),%esi

00104cb0 <pthread_exit>:
  104cb0:	55                   	push   %ebp
  104cb1:	89 e5                	mov    %esp,%ebp
  104cb3:	8b 45 08             	mov    0x8(%ebp),%eax
  104cb6:	53                   	push   %ebx
  104cb7:	8b 18                	mov    (%eax),%ebx
  104cb9:	b8 0c 00 00 00       	mov    $0xc,%eax
  104cbe:	cd 30                	int    $0x30
  104cc0:	5b                   	pop    %ebx
  104cc1:	5d                   	pop    %ebp
  104cc2:	c3                   	ret    
  104cc3:	8d b6 00 00 00 00    	lea    0x0(%esi),%esi
  104cc9:	8d bc 27 00 00 00 00 	lea    0x0(%edi),%edi

00104cd0 <common_entry>:
  104cd0:	55                   	push   %ebp
  104cd1:	b8 0e 00 00 00       	mov    $0xe,%eax
  104cd6:	89 e5                	mov    %esp,%ebp
  104cd8:	83 ec 08             	sub    $0x8,%esp
  104cdb:	cd 30                	int    $0x30
  104cdd:	8b 50 24             	mov    0x24(%eax),%edx
  104ce0:	89 14 24             	mov    %edx,(%esp)
  104ce3:	ff 50 20             	call   *0x20(%eax)
  104ce6:	8d 45 fc             	lea    0xfffffffc(%ebp),%eax
  104ce9:	89 04 24             	mov    %eax,(%esp)
  104cec:	e8 bf ff ff ff       	call   104cb0 <pthread_exit>
  104cf1:	89 ec                	mov    %ebp,%esp
  104cf3:	5d                   	pop    %ebp
  104cf4:	c3                   	ret    
  104cf5:	8d 74 26 00          	lea    0x0(%esi),%esi
  104cf9:	8d bc 27 00 00 00 00 	lea    0x0(%edi),%edi

00104d00 <pthread_create>:
  104d00:	55                   	push   %ebp
  104d01:	89 e5                	mov    %esp,%ebp
  104d03:	57                   	push   %edi
  104d04:	56                   	push   %esi
  104d05:	53                   	push   %ebx
  104d06:	83 ec 3c             	sub    $0x3c,%esp
  104d09:	8d 5d c8             	lea    0xffffffc8(%ebp),%ebx
  104d0c:	8b 7d 0c             	mov    0xc(%ebp),%edi
  104d0f:	85 ff                	test   %edi,%edi
  104d11:	0f 84 11 01 00 00    	je     104e28 <pthread_create+0x128>
  104d17:	8b 07                	mov    (%edi),%eax
  104d19:	a8 01                	test   $0x1,%al
  104d1b:	0f 84 d3 00 00 00    	je     104df4 <pthread_create+0xf4>
  104d21:	89 45 c8             	mov    %eax,0xffffffc8(%ebp)
  104d24:	8b 47 04             	mov    0x4(%edi),%eax
  104d27:	89 45 cc             	mov    %eax,0xffffffcc(%ebp)
  104d2a:	8b 47 08             	mov    0x8(%edi),%eax
  104d2d:	89 45 d0             	mov    %eax,0xffffffd0(%ebp)
  104d30:	8b 47 0c             	mov    0xc(%edi),%eax
  104d33:	89 45 d4             	mov    %eax,0xffffffd4(%ebp)
  104d36:	8b 47 10             	mov    0x10(%edi),%eax
  104d39:	89 45 d8             	mov    %eax,0xffffffd8(%ebp)
  104d3c:	8b 4d d0             	mov    0xffffffd0(%ebp),%ecx
  104d3f:	85 c9                	test   %ecx,%ecx
  104d41:	0f 84 89 00 00 00    	je     104dd0 <pthread_create+0xd0>
  104d47:	8b 53 08             	mov    0x8(%ebx),%edx
  104d4a:	b9 d0 4c 10 00       	mov    $0x104cd0,%ecx
  104d4f:	8b 03                	mov    (%ebx),%eax
  104d51:	c7 42 14 00 00 00 00 	movl   $0x0,0x14(%edx)
  104d58:	89 02                	mov    %eax,(%edx)
  104d5a:	8b 43 04             	mov    0x4(%ebx),%eax
  104d5d:	c7 42 18 00 00 00 00 	movl   $0x0,0x18(%edx)
  104d64:	c7 42 1c 00 00 00 00 	movl   $0x0,0x1c(%edx)
  104d6b:	89 42 04             	mov    %eax,0x4(%edx)
  104d6e:	8b 43 08             	mov    0x8(%ebx),%eax
  104d71:	89 42 08             	mov    %eax,0x8(%edx)
  104d74:	8b 43 0c             	mov    0xc(%ebx),%eax
  104d77:	89 42 0c             	mov    %eax,0xc(%edx)
  104d7a:	8b 43 10             	mov    0x10(%ebx),%eax
  104d7d:	89 42 10             	mov    %eax,0x10(%edx)
  104d80:	8b 45 10             	mov    0x10(%ebp),%eax
  104d83:	89 42 20             	mov    %eax,0x20(%edx)
  104d86:	8b 45 14             	mov    0x14(%ebp),%eax
  104d89:	89 42 24             	mov    %eax,0x24(%edx)
  104d8c:	b8 0b 00 00 00       	mov    $0xb,%eax
  104d91:	cd 30                	int    $0x30
  104d93:	89 42 28             	mov    %eax,0x28(%edx)
  104d96:	89 c6                	mov    %eax,%esi
  104d98:	85 f6                	test   %esi,%esi
  104d9a:	78 16                	js     104db2 <pthread_create+0xb2>
  104d9c:	8b 45 08             	mov    0x8(%ebp),%eax
  104d9f:	85 c0                	test   %eax,%eax
  104da1:	74 05                	je     104da8 <pthread_create+0xa8>
  104da3:	8b 45 08             	mov    0x8(%ebp),%eax
  104da6:	89 30                	mov    %esi,(%eax)
  104da8:	31 c0                	xor    %eax,%eax
  104daa:	83 c4 3c             	add    $0x3c,%esp
  104dad:	5b                   	pop    %ebx
  104dae:	5e                   	pop    %esi
  104daf:	5f                   	pop    %edi
  104db0:	5d                   	pop    %ebp
  104db1:	c3                   	ret    
  104db2:	8b 57 08             	mov    0x8(%edi),%edx
  104db5:	85 d2                	test   %edx,%edx
  104db7:	74 06                	je     104dbf <pthread_create+0xbf>
  104db9:	89 f0                	mov    %esi,%eax
  104dbb:	f7 d8                	neg    %eax
  104dbd:	eb eb                	jmp    104daa <pthread_create+0xaa>
  104dbf:	8b 45 d0             	mov    0xffffffd0(%ebp),%eax
  104dc2:	89 04 24             	mov    %eax,(%esp)
  104dc5:	e8 86 cf ff ff       	call   101d50 <free>
  104dca:	eb ed                	jmp    104db9 <pthread_create+0xb9>
  104dcc:	8d 74 26 00          	lea    0x0(%esi),%esi
  104dd0:	c7 04 24 00 20 00 00 	movl   $0x2000,(%esp)
  104dd7:	be cf ff ff ff       	mov    $0xffffffcf,%esi
  104ddc:	e8 8f c9 ff ff       	call   101770 <malloc>
  104de1:	89 45 d0             	mov    %eax,0xffffffd0(%ebp)
  104de4:	85 c0                	test   %eax,%eax
  104de6:	74 b0                	je     104d98 <pthread_create+0x98>
  104de8:	c7 45 d4 00 20 00 00 	movl   $0x2000,0xffffffd4(%ebp)
  104def:	e9 53 ff ff ff       	jmp    104d47 <pthread_create+0x47>
  104df4:	b8 0e 00 00 00       	mov    $0xe,%eax
  104df9:	cd 30                	int    $0x30
  104dfb:	8b 10                	mov    (%eax),%edx
  104dfd:	89 55 c8             	mov    %edx,0xffffffc8(%ebp)
  104e00:	8b 50 04             	mov    0x4(%eax),%edx
  104e03:	89 55 cc             	mov    %edx,0xffffffcc(%ebp)
  104e06:	8b 50 08             	mov    0x8(%eax),%edx
  104e09:	89 55 d0             	mov    %edx,0xffffffd0(%ebp)
  104e0c:	8b 50 0c             	mov    0xc(%eax),%edx
  104e0f:	89 55 d4             	mov    %edx,0xffffffd4(%ebp)
  104e12:	8b 40 10             	mov    0x10(%eax),%eax
  104e15:	c7 45 d0 00 00 00 00 	movl   $0x0,0xffffffd0(%ebp)
  104e1c:	c7 45 d4 00 00 00 00 	movl   $0x0,0xffffffd4(%ebp)
  104e23:	e9 11 ff ff ff       	jmp    104d39 <pthread_create+0x39>
  104e28:	89 1c 24             	mov    %ebx,(%esp)
  104e2b:	e8 d0 f9 ff ff       	call   104800 <pthread_attr_init>
  104e30:	e9 07 ff ff ff       	jmp    104d3c <pthread_create+0x3c>
  104e35:	8d 74 26 00          	lea    0x0(%esi),%esi
  104e39:	8d bc 27 00 00 00 00 	lea    0x0(%edi),%edi

00104e40 <pthread_join>:
  104e40:	55                   	push   %ebp
  104e41:	31 c9                	xor    %ecx,%ecx
  104e43:	89 e5                	mov    %esp,%ebp
  104e45:	53                   	push   %ebx
  104e46:	8b 55 0c             	mov    0xc(%ebp),%edx
  104e49:	b8 0f 00 00 00       	mov    $0xf,%eax
  104e4e:	8b 5d 08             	mov    0x8(%ebp),%ebx
  104e51:	cd 30                	int    $0x30
  104e53:	85 c0                	test   %eax,%eax
  104e55:	78 0d                	js     104e64 <pthread_join+0x24>
  104e57:	85 d2                	test   %edx,%edx
  104e59:	74 04                	je     104e5f <pthread_join+0x1f>
  104e5b:	8b 02                	mov    (%edx),%eax
  104e5d:	89 08                	mov    %ecx,(%eax)
  104e5f:	31 c0                	xor    %eax,%eax
  104e61:	5b                   	pop    %ebx
  104e62:	5d                   	pop    %ebp
  104e63:	c3                   	ret    
  104e64:	f7 d8                	neg    %eax
  104e66:	eb f9                	jmp    104e61 <pthread_join+0x21>
  104e68:	90                   	nop    
  104e69:	8d b4 26 00 00 00 00 	lea    0x0(%esi),%esi

00104e70 <pthread_equal>:
  104e70:	55                   	push   %ebp
  104e71:	89 e5                	mov    %esp,%ebp
  104e73:	8b 45 0c             	mov    0xc(%ebp),%eax
  104e76:	39 45 08             	cmp    %eax,0x8(%ebp)
  104e79:	5d                   	pop    %ebp
  104e7a:	0f 95 c0             	setne  %al
  104e7d:	0f b6 c0             	movzbl %al,%eax
  104e80:	c3                   	ret    
  104e81:	eb 0d                	jmp    104e90 <pthread_atfork>
  104e83:	90                   	nop    
  104e84:	90                   	nop    
  104e85:	90                   	nop    
  104e86:	90                   	nop    
  104e87:	90                   	nop    
  104e88:	90                   	nop    
  104e89:	90                   	nop    
  104e8a:	90                   	nop    
  104e8b:	90                   	nop    
  104e8c:	90                   	nop    
  104e8d:	90                   	nop    
  104e8e:	90                   	nop    
  104e8f:	90                   	nop    

00104e90 <pthread_atfork>:
  104e90:	55                   	push   %ebp
  104e91:	b8 0e 00 00 00       	mov    $0xe,%eax
  104e96:	89 e5                	mov    %esp,%ebp
  104e98:	cd 30                	int    $0x30
  104e9a:	8b 55 08             	mov    0x8(%ebp),%edx
  104e9d:	89 50 14             	mov    %edx,0x14(%eax)
  104ea0:	8b 55 0c             	mov    0xc(%ebp),%edx
  104ea3:	89 50 18             	mov    %edx,0x18(%eax)
  104ea6:	8b 55 10             	mov    0x10(%ebp),%edx
  104ea9:	89 50 1c             	mov    %edx,0x1c(%eax)
  104eac:	31 c0                	xor    %eax,%eax
  104eae:	5d                   	pop    %ebp
  104eaf:	c3                   	ret    

00104eb0 <bsd_signal>:
  104eb0:	55                   	push   %ebp
  104eb1:	89 e5                	mov    %esp,%ebp
  104eb3:	83 ec 38             	sub    $0x38,%esp
  104eb6:	89 75 fc             	mov    %esi,0xfffffffc(%ebp)
  104eb9:	8b 45 0c             	mov    0xc(%ebp),%eax
  104ebc:	8b 75 08             	mov    0x8(%ebp),%esi
  104ebf:	89 5d f8             	mov    %ebx,0xfffffff8(%ebp)
  104ec2:	8d 5d e8             	lea    0xffffffe8(%ebp),%ebx
  104ec5:	89 1c 24             	mov    %ebx,(%esp)
  104ec8:	89 45 f0             	mov    %eax,0xfffffff0(%ebp)
  104ecb:	c7 45 ec 02 00 00 00 	movl   $0x2,0xffffffec(%ebp)
  104ed2:	e8 b9 04 00 00       	call   105390 <sigemptyset>
  104ed7:	89 74 24 04          	mov    %esi,0x4(%esp)
  104edb:	89 1c 24             	mov    %ebx,(%esp)
  104ede:	e8 dd 04 00 00       	call   1053c0 <sigaddset>
  104ee3:	89 5c 24 04          	mov    %ebx,0x4(%esp)
  104ee7:	8d 45 d8             	lea    0xffffffd8(%ebp),%eax
  104eea:	89 34 24             	mov    %esi,(%esp)
  104eed:	89 44 24 08          	mov    %eax,0x8(%esp)
  104ef1:	e8 7a 00 00 00       	call   104f70 <sigaction>
  104ef6:	40                   	inc    %eax
  104ef7:	8b 55 e0             	mov    0xffffffe0(%ebp),%edx
  104efa:	8b 5d f8             	mov    0xfffffff8(%ebp),%ebx
  104efd:	0f 95 c0             	setne  %al
  104f00:	8b 75 fc             	mov    0xfffffffc(%ebp),%esi
  104f03:	89 ec                	mov    %ebp,%esp
  104f05:	5d                   	pop    %ebp
  104f06:	0f b6 c0             	movzbl %al,%eax
  104f09:	48                   	dec    %eax
  104f0a:	09 d0                	or     %edx,%eax
  104f0c:	c3                   	ret    
  104f0d:	8d 76 00             	lea    0x0(%esi),%esi

00104f10 <signal>:
  104f10:	55                   	push   %ebp
  104f11:	89 e5                	mov    %esp,%ebp
  104f13:	83 ec 38             	sub    $0x38,%esp
  104f16:	89 75 fc             	mov    %esi,0xfffffffc(%ebp)
  104f19:	8b 45 0c             	mov    0xc(%ebp),%eax
  104f1c:	8b 75 08             	mov    0x8(%ebp),%esi
  104f1f:	89 5d f8             	mov    %ebx,0xfffffff8(%ebp)
  104f22:	8d 5d e8             	lea    0xffffffe8(%ebp),%ebx
  104f25:	89 1c 24             	mov    %ebx,(%esp)
  104f28:	89 45 f0             	mov    %eax,0xfffffff0(%ebp)
  104f2b:	c7 45 ec 08 00 00 00 	movl   $0x8,0xffffffec(%ebp)
  104f32:	e8 59 04 00 00       	call   105390 <sigemptyset>
  104f37:	89 74 24 04          	mov    %esi,0x4(%esp)
  104f3b:	89 1c 24             	mov    %ebx,(%esp)
  104f3e:	e8 7d 04 00 00       	call   1053c0 <sigaddset>
  104f43:	89 5c 24 04          	mov    %ebx,0x4(%esp)
  104f47:	8d 45 d8             	lea    0xffffffd8(%ebp),%eax
  104f4a:	89 34 24             	mov    %esi,(%esp)
  104f4d:	89 44 24 08          	mov    %eax,0x8(%esp)
  104f51:	e8 1a 00 00 00       	call   104f70 <sigaction>
  104f56:	40                   	inc    %eax
  104f57:	8b 4d e0             	mov    0xffffffe0(%ebp),%ecx
  104f5a:	8b 5d f8             	mov    0xfffffff8(%ebp),%ebx
  104f5d:	0f 95 c0             	setne  %al
  104f60:	8b 75 fc             	mov    0xfffffffc(%ebp),%esi
  104f63:	89 ec                	mov    %ebp,%esp
  104f65:	5d                   	pop    %ebp
  104f66:	0f b6 c0             	movzbl %al,%eax
  104f69:	48                   	dec    %eax
  104f6a:	09 c8                	or     %ecx,%eax
  104f6c:	c3                   	ret    
  104f6d:	8d 76 00             	lea    0x0(%esi),%esi

00104f70 <sigaction>:
  104f70:	55                   	push   %ebp
  104f71:	89 e5                	mov    %esp,%ebp
  104f73:	8b 4d 0c             	mov    0xc(%ebp),%ecx
  104f76:	53                   	push   %ebx
  104f77:	8b 55 10             	mov    0x10(%ebp),%edx
  104f7a:	8b 5d 08             	mov    0x8(%ebp),%ebx
  104f7d:	83 fb 20             	cmp    $0x20,%ebx
  104f80:	77 20                	ja     104fa2 <sigaction+0x32>
  104f82:	b8 14 00 00 00       	mov    $0x14,%eax
  104f87:	cd 30                	int    $0x30
  104f89:	31 d2                	xor    %edx,%edx
  104f8b:	85 c0                	test   %eax,%eax
  104f8d:	78 05                	js     104f94 <sigaction+0x24>
  104f8f:	5b                   	pop    %ebx
  104f90:	89 d0                	mov    %edx,%eax
  104f92:	5d                   	pop    %ebp
  104f93:	c3                   	ret    
  104f94:	f7 d8                	neg    %eax
  104f96:	a3 9c 96 10 00       	mov    %eax,0x10969c
  104f9b:	ba ff ff ff ff       	mov    $0xffffffff,%edx
  104fa0:	eb ed                	jmp    104f8f <sigaction+0x1f>
  104fa2:	bb 1d 00 00 00       	mov    $0x1d,%ebx
  104fa7:	89 1d 9c 96 10 00    	mov    %ebx,0x10969c
  104fad:	eb ec                	jmp    104f9b <sigaction+0x2b>
  104faf:	90                   	nop    

00104fb0 <kill>:
  104fb0:	55                   	push   %ebp
  104fb1:	89 e5                	mov    %esp,%ebp
  104fb3:	83 ec 08             	sub    $0x8,%esp
  104fb6:	89 1c 24             	mov    %ebx,(%esp)
  104fb9:	8b 4d 0c             	mov    0xc(%ebp),%ecx
  104fbc:	8b 5d 08             	mov    0x8(%ebp),%ebx
  104fbf:	89 74 24 04          	mov    %esi,0x4(%esp)
  104fc3:	83 f9 20             	cmp    $0x20,%ecx
  104fc6:	77 2f                	ja     104ff7 <kill+0x47>
  104fc8:	ba 02 00 00 00       	mov    $0x2,%edx
  104fcd:	31 f6                	xor    %esi,%esi
  104fcf:	b8 15 00 00 00       	mov    $0x15,%eax
  104fd4:	cd 30                	int    $0x30
  104fd6:	31 d2                	xor    %edx,%edx
  104fd8:	85 c0                	test   %eax,%eax
  104fda:	78 0d                	js     104fe9 <kill+0x39>
  104fdc:	8b 1c 24             	mov    (%esp),%ebx
  104fdf:	89 d0                	mov    %edx,%eax
  104fe1:	8b 74 24 04          	mov    0x4(%esp),%esi
  104fe5:	89 ec                	mov    %ebp,%esp
  104fe7:	5d                   	pop    %ebp
  104fe8:	c3                   	ret    
  104fe9:	f7 d8                	neg    %eax
  104feb:	a3 9c 96 10 00       	mov    %eax,0x10969c
  104ff0:	ba ff ff ff ff       	mov    $0xffffffff,%edx
  104ff5:	eb e5                	jmp    104fdc <kill+0x2c>
  104ff7:	be 1d 00 00 00       	mov    $0x1d,%esi
  104ffc:	89 35 9c 96 10 00    	mov    %esi,0x10969c
  105002:	eb ec                	jmp    104ff0 <kill+0x40>
  105004:	8d b6 00 00 00 00    	lea    0x0(%esi),%esi
  10500a:	8d bf 00 00 00 00    	lea    0x0(%edi),%edi

00105010 <killpg>:
  105010:	55                   	push   %ebp
  105011:	89 e5                	mov    %esp,%ebp
  105013:	8b 45 08             	mov    0x8(%ebp),%eax
  105016:	8b 55 0c             	mov    0xc(%ebp),%edx
  105019:	83 f8 01             	cmp    $0x1,%eax
  10501c:	7e 12                	jle    105030 <killpg+0x20>
  10501e:	f7 d8                	neg    %eax
  105020:	89 45 08             	mov    %eax,0x8(%ebp)
  105023:	5d                   	pop    %ebp
  105024:	e9 87 ff ff ff       	jmp    104fb0 <kill>
  105029:	8d b4 26 00 00 00 00 	lea    0x0(%esi),%esi
  105030:	89 55 0c             	mov    %edx,0xc(%ebp)
  105033:	c7 45 08 00 00 00 00 	movl   $0x0,0x8(%ebp)
  10503a:	eb e7                	jmp    105023 <killpg+0x13>
  10503c:	8d 74 26 00          	lea    0x0(%esi),%esi

00105040 <pthread_kill>:
  105040:	55                   	push   %ebp
  105041:	89 e5                	mov    %esp,%ebp
  105043:	83 ec 08             	sub    $0x8,%esp
  105046:	89 1c 24             	mov    %ebx,(%esp)
  105049:	8b 4d 0c             	mov    0xc(%ebp),%ecx
  10504c:	8b 5d 08             	mov    0x8(%ebp),%ebx
  10504f:	89 74 24 04          	mov    %esi,0x4(%esp)
  105053:	83 f9 20             	cmp    $0x20,%ecx
  105056:	77 2f                	ja     105087 <pthread_kill+0x47>
  105058:	ba 01 00 00 00       	mov    $0x1,%edx
  10505d:	31 f6                	xor    %esi,%esi
  10505f:	b8 15 00 00 00       	mov    $0x15,%eax
  105064:	cd 30                	int    $0x30
  105066:	31 d2                	xor    %edx,%edx
  105068:	85 c0                	test   %eax,%eax
  10506a:	78 0d                	js     105079 <pthread_kill+0x39>
  10506c:	8b 1c 24             	mov    (%esp),%ebx
  10506f:	89 d0                	mov    %edx,%eax
  105071:	8b 74 24 04          	mov    0x4(%esp),%esi
  105075:	89 ec                	mov    %ebp,%esp
  105077:	5d                   	pop    %ebp
  105078:	c3                   	ret    
  105079:	f7 d8                	neg    %eax
  10507b:	a3 9c 96 10 00       	mov    %eax,0x10969c
  105080:	ba ff ff ff ff       	mov    $0xffffffff,%edx
  105085:	eb e5                	jmp    10506c <pthread_kill+0x2c>
  105087:	b8 1d 00 00 00       	mov    $0x1d,%eax
  10508c:	eb ed                	jmp    10507b <pthread_kill+0x3b>
  10508e:	89 f6                	mov    %esi,%esi

00105090 <raise>:
  105090:	55                   	push   %ebp
  105091:	89 e5                	mov    %esp,%ebp
  105093:	83 ec 08             	sub    $0x8,%esp
  105096:	e8 05 fc ff ff       	call   104ca0 <pthread_self>
  10509b:	89 04 24             	mov    %eax,(%esp)
  10509e:	8b 55 08             	mov    0x8(%ebp),%edx
  1050a1:	89 54 24 04          	mov    %edx,0x4(%esp)
  1050a5:	e8 96 ff ff ff       	call   105040 <pthread_kill>
  1050aa:	89 ec                	mov    %ebp,%esp
  1050ac:	5d                   	pop    %ebp
  1050ad:	c3                   	ret    
  1050ae:	89 f6                	mov    %esi,%esi

001050b0 <sigprocmask>:
  1050b0:	55                   	push   %ebp
  1050b1:	b8 13 00 00 00       	mov    $0x13,%eax
  1050b6:	89 e5                	mov    %esp,%ebp
  1050b8:	53                   	push   %ebx
  1050b9:	8b 4d 0c             	mov    0xc(%ebp),%ecx
  1050bc:	8b 5d 08             	mov    0x8(%ebp),%ebx
  1050bf:	8b 55 10             	mov    0x10(%ebp),%edx
  1050c2:	cd 30                	int    $0x30
  1050c4:	31 d2                	xor    %edx,%edx
  1050c6:	85 c0                	test   %eax,%eax
  1050c8:	78 05                	js     1050cf <sigprocmask+0x1f>
  1050ca:	5b                   	pop    %ebx
  1050cb:	89 d0                	mov    %edx,%eax
  1050cd:	5d                   	pop    %ebp
  1050ce:	c3                   	ret    
  1050cf:	f7 d8                	neg    %eax
  1050d1:	ba ff ff ff ff       	mov    $0xffffffff,%edx
  1050d6:	a3 9c 96 10 00       	mov    %eax,0x10969c
  1050db:	eb ed                	jmp    1050ca <sigprocmask+0x1a>
  1050dd:	8d 76 00             	lea    0x0(%esi),%esi

001050e0 <pthread_sigmask>:
  1050e0:	55                   	push   %ebp
  1050e1:	89 e5                	mov    %esp,%ebp
  1050e3:	5d                   	pop    %ebp
  1050e4:	e9 c7 ff ff ff       	jmp    1050b0 <sigprocmask>
  1050e9:	8d b4 26 00 00 00 00 	lea    0x0(%esi),%esi

001050f0 <sigaltstack>:
  1050f0:	55                   	push   %ebp
  1050f1:	b8 17 00 00 00       	mov    $0x17,%eax
  1050f6:	89 e5                	mov    %esp,%ebp
  1050f8:	53                   	push   %ebx
  1050f9:	8b 4d 0c             	mov    0xc(%ebp),%ecx
  1050fc:	8b 5d 08             	mov    0x8(%ebp),%ebx
  1050ff:	cd 30                	int    $0x30
  105101:	31 d2                	xor    %edx,%edx
  105103:	85 c0                	test   %eax,%eax
  105105:	78 05                	js     10510c <sigaltstack+0x1c>
  105107:	5b                   	pop    %ebx
  105108:	89 d0                	mov    %edx,%eax
  10510a:	5d                   	pop    %ebp
  10510b:	c3                   	ret    
  10510c:	f7 d8                	neg    %eax
  10510e:	ba ff ff ff ff       	mov    $0xffffffff,%edx
  105113:	a3 9c 96 10 00       	mov    %eax,0x10969c
  105118:	eb ed                	jmp    105107 <sigaltstack+0x17>
  10511a:	8d b6 00 00 00 00    	lea    0x0(%esi),%esi

00105120 <siginterrupt>:
  105120:	55                   	push   %ebp
  105121:	31 c0                	xor    %eax,%eax
  105123:	89 e5                	mov    %esp,%ebp
  105125:	83 ec 28             	sub    $0x28,%esp
  105128:	89 75 fc             	mov    %esi,0xfffffffc(%ebp)
  10512b:	8b 75 08             	mov    0x8(%ebp),%esi
  10512e:	89 5d f8             	mov    %ebx,0xfffffff8(%ebp)
  105131:	8d 5d e8             	lea    0xffffffe8(%ebp),%ebx
  105134:	89 5c 24 08          	mov    %ebx,0x8(%esp)
  105138:	89 44 24 04          	mov    %eax,0x4(%esp)
  10513c:	89 34 24             	mov    %esi,(%esp)
  10513f:	e8 2c fe ff ff       	call   104f70 <sigaction>
  105144:	8b 45 0c             	mov    0xc(%ebp),%eax
  105147:	85 c0                	test   %eax,%eax
  105149:	74 25                	je     105170 <siginterrupt+0x50>
  10514b:	83 65 ec fd          	andl   $0xfffffffd,0xffffffec(%ebp)
  10514f:	89 5c 24 04          	mov    %ebx,0x4(%esp)
  105153:	31 c0                	xor    %eax,%eax
  105155:	89 34 24             	mov    %esi,(%esp)
  105158:	89 44 24 08          	mov    %eax,0x8(%esp)
  10515c:	e8 0f fe ff ff       	call   104f70 <sigaction>
  105161:	8b 5d f8             	mov    0xfffffff8(%ebp),%ebx
  105164:	8b 75 fc             	mov    0xfffffffc(%ebp),%esi
  105167:	89 ec                	mov    %ebp,%esp
  105169:	5d                   	pop    %ebp
  10516a:	c3                   	ret    
  10516b:	90                   	nop    
  10516c:	8d 74 26 00          	lea    0x0(%esi),%esi
  105170:	83 4d ec 02          	orl    $0x2,0xffffffec(%ebp)
  105174:	eb d9                	jmp    10514f <siginterrupt+0x2f>
  105176:	8d 76 00             	lea    0x0(%esi),%esi
  105179:	8d bc 27 00 00 00 00 	lea    0x0(%edi),%edi

00105180 <sigpending>:
  105180:	55                   	push   %ebp
  105181:	89 e5                	mov    %esp,%ebp
  105183:	83 ec 18             	sub    $0x18,%esp
  105186:	8b 45 08             	mov    0x8(%ebp),%eax
  105189:	85 c0                	test   %eax,%eax
  10518b:	74 1a                	je     1051a7 <sigpending+0x27>
  10518d:	89 44 24 08          	mov    %eax,0x8(%esp)
  105191:	31 c0                	xor    %eax,%eax
  105193:	89 44 24 04          	mov    %eax,0x4(%esp)
  105197:	c7 04 24 01 00 00 00 	movl   $0x1,(%esp)
  10519e:	e8 0d ff ff ff       	call   1050b0 <sigprocmask>
  1051a3:	89 ec                	mov    %ebp,%esp
  1051a5:	5d                   	pop    %ebp
  1051a6:	c3                   	ret    
  1051a7:	b8 1d 00 00 00       	mov    $0x1d,%eax
  1051ac:	a3 9c 96 10 00       	mov    %eax,0x10969c
  1051b1:	b8 ff ff ff ff       	mov    $0xffffffff,%eax
  1051b6:	eb eb                	jmp    1051a3 <sigpending+0x23>
  1051b8:	90                   	nop    
  1051b9:	8d b4 26 00 00 00 00 	lea    0x0(%esi),%esi

001051c0 <sigsuspend>:
  1051c0:	55                   	push   %ebp
  1051c1:	ba 16 00 00 00       	mov    $0x16,%edx
  1051c6:	89 e5                	mov    %esp,%ebp
  1051c8:	53                   	push   %ebx
  1051c9:	8b 45 08             	mov    0x8(%ebp),%eax
  1051cc:	8b 18                	mov    (%eax),%ebx
  1051ce:	89 d0                	mov    %edx,%eax
  1051d0:	cd 30                	int    $0x30
  1051d2:	31 d2                	xor    %edx,%edx
  1051d4:	85 c0                	test   %eax,%eax
  1051d6:	78 05                	js     1051dd <sigsuspend+0x1d>
  1051d8:	5b                   	pop    %ebx
  1051d9:	89 d0                	mov    %edx,%eax
  1051db:	5d                   	pop    %ebp
  1051dc:	c3                   	ret    
  1051dd:	f7 d8                	neg    %eax
  1051df:	ba ff ff ff ff       	mov    $0xffffffff,%edx
  1051e4:	a3 9c 96 10 00       	mov    %eax,0x10969c
  1051e9:	eb ed                	jmp    1051d8 <sigsuspend+0x18>
  1051eb:	90                   	nop    
  1051ec:	8d 74 26 00          	lea    0x0(%esi),%esi

001051f0 <sigset>:
  1051f0:	55                   	push   %ebp
  1051f1:	89 e5                	mov    %esp,%ebp
  1051f3:	5d                   	pop    %ebp
  1051f4:	e9 17 fd ff ff       	jmp    104f10 <signal>
  1051f9:	8d b4 26 00 00 00 00 	lea    0x0(%esi),%esi

00105200 <sighold>:
  105200:	55                   	push   %ebp
  105201:	89 e5                	mov    %esp,%ebp
  105203:	83 ec 18             	sub    $0x18,%esp
  105206:	89 5d fc             	mov    %ebx,0xfffffffc(%ebp)
  105209:	8d 5d f8             	lea    0xfffffff8(%ebp),%ebx
  10520c:	89 1c 24             	mov    %ebx,(%esp)
  10520f:	e8 7c 01 00 00       	call   105390 <sigemptyset>
  105214:	89 1c 24             	mov    %ebx,(%esp)
  105217:	8b 45 08             	mov    0x8(%ebp),%eax
  10521a:	89 44 24 04          	mov    %eax,0x4(%esp)
  10521e:	e8 9d 01 00 00       	call   1053c0 <sigaddset>
  105223:	40                   	inc    %eax
  105224:	ba ff ff ff ff       	mov    $0xffffffff,%edx
  105229:	74 18                	je     105243 <sighold+0x43>
  10522b:	89 5c 24 04          	mov    %ebx,0x4(%esp)
  10522f:	31 d2                	xor    %edx,%edx
  105231:	89 54 24 08          	mov    %edx,0x8(%esp)
  105235:	c7 04 24 01 00 00 00 	movl   $0x1,(%esp)
  10523c:	e8 6f fe ff ff       	call   1050b0 <sigprocmask>
  105241:	89 c2                	mov    %eax,%edx
  105243:	8b 5d fc             	mov    0xfffffffc(%ebp),%ebx
  105246:	89 d0                	mov    %edx,%eax
  105248:	89 ec                	mov    %ebp,%esp
  10524a:	5d                   	pop    %ebp
  10524b:	c3                   	ret    
  10524c:	8d 74 26 00          	lea    0x0(%esi),%esi

00105250 <sigrelse>:
  105250:	55                   	push   %ebp
  105251:	89 e5                	mov    %esp,%ebp
  105253:	83 ec 18             	sub    $0x18,%esp
  105256:	89 5d fc             	mov    %ebx,0xfffffffc(%ebp)
  105259:	8d 5d f8             	lea    0xfffffff8(%ebp),%ebx
  10525c:	89 1c 24             	mov    %ebx,(%esp)
  10525f:	e8 2c 01 00 00       	call   105390 <sigemptyset>
  105264:	89 1c 24             	mov    %ebx,(%esp)
  105267:	8b 45 08             	mov    0x8(%ebp),%eax
  10526a:	89 44 24 04          	mov    %eax,0x4(%esp)
  10526e:	e8 4d 01 00 00       	call   1053c0 <sigaddset>
  105273:	40                   	inc    %eax
  105274:	ba ff ff ff ff       	mov    $0xffffffff,%edx
  105279:	74 18                	je     105293 <sigrelse+0x43>
  10527b:	89 5c 24 04          	mov    %ebx,0x4(%esp)
  10527f:	31 c9                	xor    %ecx,%ecx
  105281:	89 4c 24 08          	mov    %ecx,0x8(%esp)
  105285:	c7 04 24 02 00 00 00 	movl   $0x2,(%esp)
  10528c:	e8 1f fe ff ff       	call   1050b0 <sigprocmask>
  105291:	89 c2                	mov    %eax,%edx
  105293:	8b 5d fc             	mov    0xfffffffc(%ebp),%ebx
  105296:	89 d0                	mov    %edx,%eax
  105298:	89 ec                	mov    %ebp,%esp
  10529a:	5d                   	pop    %ebp
  10529b:	c3                   	ret    
  10529c:	8d 74 26 00          	lea    0x0(%esi),%esi

001052a0 <sigignore>:
  1052a0:	55                   	push   %ebp
  1052a1:	31 c0                	xor    %eax,%eax
  1052a3:	89 e5                	mov    %esp,%ebp
  1052a5:	83 ec 28             	sub    $0x28,%esp
  1052a8:	89 44 24 08          	mov    %eax,0x8(%esp)
  1052ac:	8d 45 e8             	lea    0xffffffe8(%ebp),%eax
  1052af:	89 44 24 04          	mov    %eax,0x4(%esp)
  1052b3:	8b 45 08             	mov    0x8(%ebp),%eax
  1052b6:	c7 45 f0 01 00 00 00 	movl   $0x1,0xfffffff0(%ebp)
  1052bd:	89 04 24             	mov    %eax,(%esp)
  1052c0:	e8 ab fc ff ff       	call   104f70 <sigaction>
  1052c5:	89 ec                	mov    %ebp,%esp
  1052c7:	5d                   	pop    %ebp
  1052c8:	c3                   	ret    
  1052c9:	8d b4 26 00 00 00 00 	lea    0x0(%esi),%esi

001052d0 <sigpause>:
  1052d0:	55                   	push   %ebp
  1052d1:	89 e5                	mov    %esp,%ebp
  1052d3:	83 ec 18             	sub    $0x18,%esp
  1052d6:	89 5d fc             	mov    %ebx,0xfffffffc(%ebp)
  1052d9:	8d 5d f8             	lea    0xfffffff8(%ebp),%ebx
  1052dc:	89 1c 24             	mov    %ebx,(%esp)
  1052df:	e8 9c fe ff ff       	call   105180 <sigpending>
  1052e4:	40                   	inc    %eax
  1052e5:	ba ff ff ff ff       	mov    $0xffffffff,%edx
  1052ea:	74 48                	je     105334 <sigpause+0x64>
  1052ec:	89 1c 24             	mov    %ebx,(%esp)
  1052ef:	8b 45 f8             	mov    0xfffffff8(%ebp),%eax
  1052f2:	89 45 f4             	mov    %eax,0xfffffff4(%ebp)
  1052f5:	8b 45 08             	mov    0x8(%ebp),%eax
  1052f8:	89 44 24 04          	mov    %eax,0x4(%esp)
  1052fc:	e8 bf 00 00 00       	call   1053c0 <sigaddset>
  105301:	40                   	inc    %eax
  105302:	ba ff ff ff ff       	mov    $0xffffffff,%edx
  105307:	74 2b                	je     105334 <sigpause+0x64>
  105309:	89 1c 24             	mov    %ebx,(%esp)
  10530c:	e8 af fe ff ff       	call   1051c0 <sigsuspend>
  105311:	40                   	inc    %eax
  105312:	ba ff ff ff ff       	mov    $0xffffffff,%edx
  105317:	74 1b                	je     105334 <sigpause+0x64>
  105319:	c7 04 24 03 00 00 00 	movl   $0x3,(%esp)
  105320:	31 c0                	xor    %eax,%eax
  105322:	89 44 24 08          	mov    %eax,0x8(%esp)
  105326:	8d 45 f4             	lea    0xfffffff4(%ebp),%eax
  105329:	89 44 24 04          	mov    %eax,0x4(%esp)
  10532d:	e8 7e fd ff ff       	call   1050b0 <sigprocmask>
  105332:	89 c2                	mov    %eax,%edx
  105334:	8b 5d fc             	mov    0xfffffffc(%ebp),%ebx
  105337:	89 d0                	mov    %edx,%eax
  105339:	89 ec                	mov    %ebp,%esp
  10533b:	5d                   	pop    %ebp
  10533c:	c3                   	ret    
  10533d:	8d 76 00             	lea    0x0(%esi),%esi

00105340 <sigwait>:
  105340:	55                   	push   %ebp
  105341:	89 e5                	mov    %esp,%ebp
  105343:	8b 55 08             	mov    0x8(%ebp),%edx
  105346:	53                   	push   %ebx
  105347:	85 d2                	test   %edx,%edx
  105349:	74 2c                	je     105377 <sigwait+0x37>
  10534b:	31 c9                	xor    %ecx,%ecx
  10534d:	8b 1a                	mov    (%edx),%ebx
  10534f:	b8 18 00 00 00       	mov    $0x18,%eax
  105354:	89 ca                	mov    %ecx,%edx
  105356:	cd 30                	int    $0x30
  105358:	85 c0                	test   %eax,%eax
  10535a:	89 c1                	mov    %eax,%ecx
  10535c:	78 0a                	js     105368 <sigwait+0x28>
  10535e:	8b 45 0c             	mov    0xc(%ebp),%eax
  105361:	89 08                	mov    %ecx,(%eax)
  105363:	89 c8                	mov    %ecx,%eax
  105365:	5b                   	pop    %ebx
  105366:	5d                   	pop    %ebp
  105367:	c3                   	ret    
  105368:	f7 d9                	neg    %ecx
  10536a:	89 0d 9c 96 10 00    	mov    %ecx,0x10969c
  105370:	b8 ff ff ff ff       	mov    $0xffffffff,%eax
  105375:	eb ee                	jmp    105365 <sigwait+0x25>
  105377:	b8 1d 00 00 00       	mov    $0x1d,%eax
  10537c:	a3 9c 96 10 00       	mov    %eax,0x10969c
  105381:	eb ed                	jmp    105370 <sigwait+0x30>
	...

00105390 <sigemptyset>:
  105390:	55                   	push   %ebp
  105391:	89 e5                	mov    %esp,%ebp
  105393:	8b 45 08             	mov    0x8(%ebp),%eax
  105396:	85 c0                	test   %eax,%eax
  105398:	74 0a                	je     1053a4 <sigemptyset+0x14>
  10539a:	c7 00 00 00 00 00    	movl   $0x0,(%eax)
  1053a0:	31 c0                	xor    %eax,%eax
  1053a2:	5d                   	pop    %ebp
  1053a3:	c3                   	ret    
  1053a4:	b8 1d 00 00 00       	mov    $0x1d,%eax
  1053a9:	a3 9c 96 10 00       	mov    %eax,0x10969c
  1053ae:	b8 ff ff ff ff       	mov    $0xffffffff,%eax
  1053b3:	eb ed                	jmp    1053a2 <sigemptyset+0x12>
  1053b5:	8d 74 26 00          	lea    0x0(%esi),%esi
  1053b9:	8d bc 27 00 00 00 00 	lea    0x0(%edi),%edi

001053c0 <sigaddset>:
  1053c0:	55                   	push   %ebp
  1053c1:	89 e5                	mov    %esp,%ebp
  1053c3:	8b 45 0c             	mov    0xc(%ebp),%eax
  1053c6:	8b 55 08             	mov    0x8(%ebp),%edx
  1053c9:	83 f8 20             	cmp    $0x20,%eax
  1053cc:	77 12                	ja     1053e0 <sigaddset+0x20>
  1053ce:	85 d2                	test   %edx,%edx
  1053d0:	74 0e                	je     1053e0 <sigaddset+0x20>
  1053d2:	0f ab 02             	bts    %eax,(%edx)
  1053d5:	31 c0                	xor    %eax,%eax
  1053d7:	5d                   	pop    %ebp
  1053d8:	c3                   	ret    
  1053d9:	8d b4 26 00 00 00 00 	lea    0x0(%esi),%esi
  1053e0:	ba 1d 00 00 00       	mov    $0x1d,%edx
  1053e5:	b8 ff ff ff ff       	mov    $0xffffffff,%eax
  1053ea:	89 15 9c 96 10 00    	mov    %edx,0x10969c
  1053f0:	eb e5                	jmp    1053d7 <sigaddset+0x17>
  1053f2:	8d b4 26 00 00 00 00 	lea    0x0(%esi),%esi
  1053f9:	8d bc 27 00 00 00 00 	lea    0x0(%edi),%edi

00105400 <sigdelset>:
  105400:	55                   	push   %ebp
  105401:	89 e5                	mov    %esp,%ebp
  105403:	8b 45 0c             	mov    0xc(%ebp),%eax
  105406:	8b 55 08             	mov    0x8(%ebp),%edx
  105409:	83 f8 20             	cmp    $0x20,%eax
  10540c:	77 12                	ja     105420 <sigdelset+0x20>
  10540e:	85 d2                	test   %edx,%edx
  105410:	74 0e                	je     105420 <sigdelset+0x20>
  105412:	0f b3 02             	btr    %eax,(%edx)
  105415:	31 c0                	xor    %eax,%eax
  105417:	5d                   	pop    %ebp
  105418:	c3                   	ret    
  105419:	8d b4 26 00 00 00 00 	lea    0x0(%esi),%esi
  105420:	b9 1d 00 00 00       	mov    $0x1d,%ecx
  105425:	b8 ff ff ff ff       	mov    $0xffffffff,%eax
  10542a:	89 0d 9c 96 10 00    	mov    %ecx,0x10969c
  105430:	eb e5                	jmp    105417 <sigdelset+0x17>
  105432:	8d b4 26 00 00 00 00 	lea    0x0(%esi),%esi
  105439:	8d bc 27 00 00 00 00 	lea    0x0(%edi),%edi

00105440 <sigfillset>:
  105440:	55                   	push   %ebp
  105441:	89 e5                	mov    %esp,%ebp
  105443:	8b 45 08             	mov    0x8(%ebp),%eax
  105446:	85 c0                	test   %eax,%eax
  105448:	74 0a                	je     105454 <sigfillset+0x14>
  10544a:	c7 00 ff ff ff ff    	movl   $0xffffffff,(%eax)
  105450:	31 c0                	xor    %eax,%eax
  105452:	5d                   	pop    %ebp
  105453:	c3                   	ret    
  105454:	b8 1d 00 00 00       	mov    $0x1d,%eax
  105459:	a3 9c 96 10 00       	mov    %eax,0x10969c
  10545e:	b8 ff ff ff ff       	mov    $0xffffffff,%eax
  105463:	eb ed                	jmp    105452 <sigfillset+0x12>
  105465:	8d 74 26 00          	lea    0x0(%esi),%esi
  105469:	8d bc 27 00 00 00 00 	lea    0x0(%edi),%edi

00105470 <sigismember>:
  105470:	55                   	push   %ebp
  105471:	89 e5                	mov    %esp,%ebp
  105473:	83 ec 04             	sub    $0x4,%esp
  105476:	8b 55 0c             	mov    0xc(%ebp),%edx
  105479:	8b 45 08             	mov    0x8(%ebp),%eax
  10547c:	83 fa 20             	cmp    $0x20,%edx
  10547f:	77 1f                	ja     1054a0 <sigismember+0x30>
  105481:	85 c0                	test   %eax,%eax
  105483:	74 1b                	je     1054a0 <sigismember+0x30>
  105485:	8b 00                	mov    (%eax),%eax
  105487:	89 45 fc             	mov    %eax,0xfffffffc(%ebp)
  10548a:	8b 45 fc             	mov    0xfffffffc(%ebp),%eax
  10548d:	0f a3 d0             	bt     %edx,%eax
  105490:	19 c0                	sbb    %eax,%eax
  105492:	85 c0                	test   %eax,%eax
  105494:	0f 95 c0             	setne  %al
  105497:	0f b6 c0             	movzbl %al,%eax
  10549a:	89 ec                	mov    %ebp,%esp
  10549c:	5d                   	pop    %ebp
  10549d:	c3                   	ret    
  10549e:	89 f6                	mov    %esi,%esi
  1054a0:	b8 1d 00 00 00       	mov    $0x1d,%eax
  1054a5:	a3 9c 96 10 00       	mov    %eax,0x10969c
  1054aa:	b8 ff ff ff ff       	mov    $0xffffffff,%eax
  1054af:	eb e9                	jmp    10549a <sigismember+0x2a>
	...

001054c0 <no_func>:
  1054c0:	55                   	push   %ebp
  1054c1:	31 c0                	xor    %eax,%eax
  1054c3:	89 e5                	mov    %esp,%ebp
  1054c5:	5d                   	pop    %ebp
  1054c6:	c3                   	ret    
  1054c7:	89 f6                	mov    %esi,%esi
  1054c9:	8d bc 27 00 00 00 00 	lea    0x0(%edi),%edi

001054d0 <pool_init>:
  1054d0:	55                   	push   %ebp
  1054d1:	89 e5                	mov    %esp,%ebp
  1054d3:	57                   	push   %edi
  1054d4:	56                   	push   %esi
  1054d5:	53                   	push   %ebx
  1054d6:	83 ec 4c             	sub    $0x4c,%esp
  1054d9:	8b 55 0c             	mov    0xc(%ebp),%edx
  1054dc:	8d 04 d2             	lea    (%edx,%edx,8),%eax
  1054df:	8d 1c 42             	lea    (%edx,%eax,2),%ebx
  1054e2:	c1 e3 04             	shl    $0x4,%ebx
  1054e5:	89 1c 24             	mov    %ebx,(%esp)
  1054e8:	e8 83 c2 ff ff       	call   101770 <malloc>
  1054ed:	8b 55 08             	mov    0x8(%ebp),%edx
  1054f0:	85 c0                	test   %eax,%eax
  1054f2:	89 02                	mov    %eax,(%edx)
  1054f4:	ba ff ff ff ff       	mov    $0xffffffff,%edx
  1054f9:	0f 84 a3 00 00 00    	je     1055a2 <pool_init+0xd2>
  1054ff:	89 c7                	mov    %eax,%edi
  105501:	89 da                	mov    %ebx,%edx
  105503:	31 c0                	xor    %eax,%eax
  105505:	fc                   	cld    
  105506:	83 fb 0b             	cmp    $0xb,%ebx
  105509:	76 15                	jbe    105520 <pool_init+0x50>
  10550b:	89 f9                	mov    %edi,%ecx
  10550d:	f7 d9                	neg    %ecx
  10550f:	83 e1 03             	and    $0x3,%ecx
  105512:	29 ca                	sub    %ecx,%edx
  105514:	f3 aa                	repz stos %al,%es:(%edi)
  105516:	89 d1                	mov    %edx,%ecx
  105518:	c1 e9 02             	shr    $0x2,%ecx
  10551b:	f3 ab                	repz stos %eax,%es:(%edi)
  10551d:	83 e2 03             	and    $0x3,%edx
  105520:	89 d1                	mov    %edx,%ecx
  105522:	f3 aa                	repz stos %al,%es:(%edi)
  105524:	8d 75 c8             	lea    0xffffffc8(%ebp),%esi
  105527:	89 34 24             	mov    %esi,(%esp)
  10552a:	e8 d1 f2 ff ff       	call   104800 <pthread_attr_init>
  10552f:	c7 45 c4 42 00 00 00 	movl   $0x42,0xffffffc4(%ebp)
  105536:	8d 45 c4             	lea    0xffffffc4(%ebp),%eax
  105539:	89 44 24 04          	mov    %eax,0x4(%esp)
  10553d:	89 34 24             	mov    %esi,(%esp)
  105540:	e8 5b f3 ff ff       	call   1048a0 <pthread_attr_setschedparam>
  105545:	8b 45 08             	mov    0x8(%ebp),%eax
  105548:	31 d2                	xor    %edx,%edx
  10554a:	89 54 24 04          	mov    %edx,0x4(%esp)
  10554e:	83 c0 0c             	add    $0xc,%eax
  105551:	89 04 24             	mov    %eax,(%esp)
  105554:	e8 57 f6 ff ff       	call   104bb0 <pthread_mutex_init>
  105559:	8b 45 0c             	mov    0xc(%ebp),%eax
  10555c:	85 c0                	test   %eax,%eax
  10555e:	7e 40                	jle    1055a0 <pool_init+0xd0>
  105560:	8b 5d 0c             	mov    0xc(%ebp),%ebx
  105563:	31 ff                	xor    %edi,%edi
  105565:	8d 74 26 00          	lea    0x0(%esi),%esi
  105569:	8d bc 27 00 00 00 00 	lea    0x0(%edi),%edi
  105570:	8b 55 08             	mov    0x8(%ebp),%edx
  105573:	8b 02                	mov    (%edx),%eax
  105575:	8b 55 10             	mov    0x10(%ebp),%edx
  105578:	01 f8                	add    %edi,%eax
  10557a:	81 c7 30 01 00 00    	add    $0x130,%edi
  105580:	c7 00 00 00 00 00    	movl   $0x0,(%eax)
  105586:	89 44 24 0c          	mov    %eax,0xc(%esp)
  10558a:	83 c0 04             	add    $0x4,%eax
  10558d:	89 54 24 08          	mov    %edx,0x8(%esp)
  105591:	89 74 24 04          	mov    %esi,0x4(%esp)
  105595:	89 04 24             	mov    %eax,(%esp)
  105598:	e8 63 f7 ff ff       	call   104d00 <pthread_create>
  10559d:	4b                   	dec    %ebx
  10559e:	75 d0                	jne    105570 <pool_init+0xa0>
  1055a0:	31 d2                	xor    %edx,%edx
  1055a2:	83 c4 4c             	add    $0x4c,%esp
  1055a5:	89 d0                	mov    %edx,%eax
  1055a7:	5b                   	pop    %ebx
  1055a8:	5e                   	pop    %esi
  1055a9:	5f                   	pop    %edi
  1055aa:	5d                   	pop    %ebp
  1055ab:	c3                   	ret    
  1055ac:	8d 74 26 00          	lea    0x0(%esi),%esi

001055b0 <msg_loop>:
  1055b0:	55                   	push   %ebp
  1055b1:	89 e5                	mov    %esp,%ebp
  1055b3:	57                   	push   %edi
  1055b4:	56                   	push   %esi
  1055b5:	53                   	push   %ebx
  1055b6:	83 ec 0c             	sub    $0xc,%esp
  1055b9:	8b 75 08             	mov    0x8(%ebp),%esi
  1055bc:	8b 7d 0c             	mov    0xc(%ebp),%edi
  1055bf:	e8 6c 0c 00 00       	call   106230 <sched_yield>
  1055c4:	8d b6 00 00 00 00    	lea    0x0(%esi),%esi
  1055ca:	8d bf 00 00 00 00    	lea    0x0(%edi),%edi
  1055d0:	8b 46 08             	mov    0x8(%esi),%eax
  1055d3:	31 d2                	xor    %edx,%edx
  1055d5:	89 45 f0             	mov    %eax,0xfffffff0(%ebp)
  1055d8:	8b 45 f0             	mov    0xfffffff0(%ebp),%eax
  1055db:	85 c0                	test   %eax,%eax
  1055dd:	74 08                	je     1055e7 <msg_loop+0x37>
  1055df:	8b 45 f0             	mov    0xfffffff0(%ebp),%eax
  1055e2:	f7 d0                	not    %eax
  1055e4:	0f bc d0             	bsf    %eax,%edx
  1055e7:	83 fa 1f             	cmp    $0x1f,%edx
  1055ea:	76 14                	jbe    105600 <msg_loop+0x50>
  1055ec:	8b 46 04             	mov    0x4(%esi),%eax
  1055ef:	85 c0                	test   %eax,%eax
  1055f1:	74 dd                	je     1055d0 <msg_loop+0x20>
  1055f3:	c7 04 24 00 00 00 00 	movl   $0x0,(%esp)
  1055fa:	ff d0                	call   *%eax
  1055fc:	eb d2                	jmp    1055d0 <msg_loop+0x20>
  1055fe:	89 f6                	mov    %esi,%esi
  105600:	0f ab 56 08          	bts    %edx,0x8(%esi)
  105604:	8b 0e                	mov    (%esi),%ecx
  105606:	8d 1c d2             	lea    (%edx,%edx,8),%ebx
  105609:	8d 1c 5a             	lea    (%edx,%ebx,2),%ebx
  10560c:	c1 e3 04             	shl    $0x4,%ebx
  10560f:	01 cb                	add    %ecx,%ebx
  105611:	8d 43 30             	lea    0x30(%ebx),%eax
  105614:	89 43 24             	mov    %eax,0x24(%ebx)
  105617:	89 43 14             	mov    %eax,0x14(%ebx)
  10561a:	8d 43 10             	lea    0x10(%ebx),%eax
  10561d:	89 44 24 04          	mov    %eax,0x4(%esp)
  105621:	c7 04 24 00 00 00 00 	movl   $0x0,(%esp)
  105628:	e8 83 ba ff ff       	call   1010b0 <receive_message>
  10562d:	83 0b 02             	orl    $0x2,(%ebx)
  105630:	8b 43 28             	mov    0x28(%ebx),%eax
  105633:	89 43 0c             	mov    %eax,0xc(%ebx)
  105636:	89 7c 24 04          	mov    %edi,0x4(%esp)
  10563a:	8b 43 04             	mov    0x4(%ebx),%eax
  10563d:	89 04 24             	mov    %eax,(%esp)
  105640:	e8 fb f9 ff ff       	call   105040 <pthread_kill>
  105645:	eb 89                	jmp    1055d0 <msg_loop+0x20>
	...

00105650 <access>:
  105650:	55                   	push   %ebp
  105651:	31 c0                	xor    %eax,%eax
  105653:	89 e5                	mov    %esp,%ebp
  105655:	83 ec 38             	sub    $0x38,%esp
  105658:	b9 ff ff ff ff       	mov    $0xffffffff,%ecx
  10565d:	8b 55 08             	mov    0x8(%ebp),%edx
  105660:	89 7d fc             	mov    %edi,0xfffffffc(%ebp)
  105663:	89 d7                	mov    %edx,%edi
  105665:	f2 ae                	repnz scas %es:(%edi),%al
  105667:	f7 d1                	not    %ecx
  105669:	49                   	dec    %ecx
  10566a:	81 f9 00 01 00 00    	cmp    $0x100,%ecx
  105670:	7e 4e                	jle    1056c0 <access+0x70>
  105672:	66 c7 45 f6 04 00    	movw   $0x4,0xfffffff6(%ebp)
  105678:	89 55 ec             	mov    %edx,0xffffffec(%ebp)
  10567b:	8b 45 0c             	mov    0xc(%ebp),%eax
  10567e:	89 4d d8             	mov    %ecx,0xffffffd8(%ebp)
  105681:	c7 45 f0 08 00 00 00 	movl   $0x8,0xfffffff0(%ebp)
  105688:	89 45 dc             	mov    %eax,0xffffffdc(%ebp)
  10568b:	8d 45 d8             	lea    0xffffffd8(%ebp),%eax
  10568e:	89 44 24 04          	mov    %eax,0x4(%esp)
  105692:	c7 04 24 02 00 00 00 	movl   $0x2,(%esp)
  105699:	e8 d2 b9 ff ff       	call   101070 <send_message>
  10569e:	8b 55 f0             	mov    0xfffffff0(%ebp),%edx
  1056a1:	31 c0                	xor    %eax,%eax
  1056a3:	85 d2                	test   %edx,%edx
  1056a5:	78 07                	js     1056ae <access+0x5e>
  1056a7:	8b 7d fc             	mov    0xfffffffc(%ebp),%edi
  1056aa:	89 ec                	mov    %ebp,%esp
  1056ac:	5d                   	pop    %ebp
  1056ad:	c3                   	ret    
  1056ae:	f7 da                	neg    %edx
  1056b0:	b8 ff ff ff ff       	mov    $0xffffffff,%eax
  1056b5:	89 15 9c 96 10 00    	mov    %edx,0x10969c
  1056bb:	eb ea                	jmp    1056a7 <access+0x57>
  1056bd:	8d 76 00             	lea    0x0(%esi),%esi
  1056c0:	66 c7 45 f6 02 00    	movw   $0x2,0xfffffff6(%ebp)
  1056c6:	eb b0                	jmp    105678 <access+0x28>
  1056c8:	90                   	nop    
  1056c9:	8d b4 26 00 00 00 00 	lea    0x0(%esi),%esi

001056d0 <alarm>:
  1056d0:	55                   	push   %ebp
  1056d1:	b8 3c 00 00 00       	mov    $0x3c,%eax
  1056d6:	89 e5                	mov    %esp,%ebp
  1056d8:	53                   	push   %ebx
  1056d9:	8b 5d 08             	mov    0x8(%ebp),%ebx
  1056dc:	cd 30                	int    $0x30
  1056de:	5b                   	pop    %ebx
  1056df:	5d                   	pop    %ebp
  1056e0:	c3                   	ret    
  1056e1:	eb 0d                	jmp    1056f0 <chdir>
  1056e3:	90                   	nop    
  1056e4:	90                   	nop    
  1056e5:	90                   	nop    
  1056e6:	90                   	nop    
  1056e7:	90                   	nop    
  1056e8:	90                   	nop    
  1056e9:	90                   	nop    
  1056ea:	90                   	nop    
  1056eb:	90                   	nop    
  1056ec:	90                   	nop    
  1056ed:	90                   	nop    
  1056ee:	90                   	nop    
  1056ef:	90                   	nop    

001056f0 <chdir>:
  1056f0:	55                   	push   %ebp
  1056f1:	31 c0                	xor    %eax,%eax
  1056f3:	89 e5                	mov    %esp,%ebp
  1056f5:	83 ec 38             	sub    $0x38,%esp
  1056f8:	b9 ff ff ff ff       	mov    $0xffffffff,%ecx
  1056fd:	8b 55 08             	mov    0x8(%ebp),%edx
  105700:	89 7d fc             	mov    %edi,0xfffffffc(%ebp)
  105703:	89 d7                	mov    %edx,%edi
  105705:	f2 ae                	repnz scas %es:(%edi),%al
  105707:	f7 d1                	not    %ecx
  105709:	49                   	dec    %ecx
  10570a:	81 f9 00 01 00 00    	cmp    $0x100,%ecx
  105710:	7e 45                	jle    105757 <chdir+0x67>
  105712:	66 c7 45 f6 04 00    	movw   $0x4,0xfffffff6(%ebp)
  105718:	89 55 ec             	mov    %edx,0xffffffec(%ebp)
  10571b:	8d 45 d8             	lea    0xffffffd8(%ebp),%eax
  10571e:	89 4d d8             	mov    %ecx,0xffffffd8(%ebp)
  105721:	c7 45 f0 09 00 00 00 	movl   $0x9,0xfffffff0(%ebp)
  105728:	89 44 24 04          	mov    %eax,0x4(%esp)
  10572c:	c7 04 24 02 00 00 00 	movl   $0x2,(%esp)
  105733:	e8 38 b9 ff ff       	call   101070 <send_message>
  105738:	8b 55 f0             	mov    0xfffffff0(%ebp),%edx
  10573b:	31 c0                	xor    %eax,%eax
  10573d:	85 d2                	test   %edx,%edx
  10573f:	78 07                	js     105748 <chdir+0x58>
  105741:	8b 7d fc             	mov    0xfffffffc(%ebp),%edi
  105744:	89 ec                	mov    %ebp,%esp
  105746:	5d                   	pop    %ebp
  105747:	c3                   	ret    
  105748:	f7 da                	neg    %edx
  10574a:	b8 ff ff ff ff       	mov    $0xffffffff,%eax
  10574f:	89 15 9c 96 10 00    	mov    %edx,0x10969c
  105755:	eb ea                	jmp    105741 <chdir+0x51>
  105757:	66 c7 45 f6 02 00    	movw   $0x2,0xfffffff6(%ebp)
  10575d:	eb b9                	jmp    105718 <chdir+0x28>
  10575f:	90                   	nop    

00105760 <chown>:
  105760:	55                   	push   %ebp
  105761:	31 c0                	xor    %eax,%eax
  105763:	89 e5                	mov    %esp,%ebp
  105765:	83 ec 38             	sub    $0x38,%esp
  105768:	b9 ff ff ff ff       	mov    $0xffffffff,%ecx
  10576d:	8b 55 08             	mov    0x8(%ebp),%edx
  105770:	89 7d fc             	mov    %edi,0xfffffffc(%ebp)
  105773:	89 d7                	mov    %edx,%edi
  105775:	f2 ae                	repnz scas %es:(%edi),%al
  105777:	f7 d1                	not    %ecx
  105779:	49                   	dec    %ecx
  10577a:	81 f9 00 01 00 00    	cmp    $0x100,%ecx
  105780:	7e 51                	jle    1057d3 <chown+0x73>
  105782:	66 c7 45 f6 04 00    	movw   $0x4,0xfffffff6(%ebp)
  105788:	89 55 ec             	mov    %edx,0xffffffec(%ebp)
  10578b:	8b 45 0c             	mov    0xc(%ebp),%eax
  10578e:	89 4d d8             	mov    %ecx,0xffffffd8(%ebp)
  105791:	c7 45 f0 05 00 00 00 	movl   $0x5,0xfffffff0(%ebp)
  105798:	89 45 dc             	mov    %eax,0xffffffdc(%ebp)
  10579b:	8b 45 10             	mov    0x10(%ebp),%eax
  10579e:	c7 04 24 02 00 00 00 	movl   $0x2,(%esp)
  1057a5:	89 45 e0             	mov    %eax,0xffffffe0(%ebp)
  1057a8:	8d 45 d8             	lea    0xffffffd8(%ebp),%eax
  1057ab:	89 44 24 04          	mov    %eax,0x4(%esp)
  1057af:	e8 bc b8 ff ff       	call   101070 <send_message>
  1057b4:	8b 55 f0             	mov    0xfffffff0(%ebp),%edx
  1057b7:	31 c0                	xor    %eax,%eax
  1057b9:	85 d2                	test   %edx,%edx
  1057bb:	78 07                	js     1057c4 <chown+0x64>
  1057bd:	8b 7d fc             	mov    0xfffffffc(%ebp),%edi
  1057c0:	89 ec                	mov    %ebp,%esp
  1057c2:	5d                   	pop    %ebp
  1057c3:	c3                   	ret    
  1057c4:	f7 da                	neg    %edx
  1057c6:	b8 ff ff ff ff       	mov    $0xffffffff,%eax
  1057cb:	89 15 9c 96 10 00    	mov    %edx,0x10969c
  1057d1:	eb ea                	jmp    1057bd <chown+0x5d>
  1057d3:	66 c7 45 f6 02 00    	movw   $0x2,0xfffffff6(%ebp)
  1057d9:	eb ad                	jmp    105788 <chown+0x28>
  1057db:	90                   	nop    
  1057dc:	8d 74 26 00          	lea    0x0(%esi),%esi

001057e0 <close>:
  1057e0:	55                   	push   %ebp
  1057e1:	89 e5                	mov    %esp,%ebp
  1057e3:	83 ec 38             	sub    $0x38,%esp
  1057e6:	c7 04 24 02 00 00 00 	movl   $0x2,(%esp)
  1057ed:	8b 45 08             	mov    0x8(%ebp),%eax
  1057f0:	66 c7 45 f6 01 00    	movw   $0x1,0xfffffff6(%ebp)
  1057f6:	c7 45 f0 02 00 00 00 	movl   $0x2,0xfffffff0(%ebp)
  1057fd:	89 45 dc             	mov    %eax,0xffffffdc(%ebp)
  105800:	8d 45 d8             	lea    0xffffffd8(%ebp),%eax
  105803:	89 44 24 04          	mov    %eax,0x4(%esp)
  105807:	e8 64 b8 ff ff       	call   101070 <send_message>
  10580c:	8b 55 f0             	mov    0xfffffff0(%ebp),%edx
  10580f:	85 d2                	test   %edx,%edx
  105811:	89 d0                	mov    %edx,%eax
  105813:	78 04                	js     105819 <close+0x39>
  105815:	89 ec                	mov    %ebp,%esp
  105817:	5d                   	pop    %ebp
  105818:	c3                   	ret    
  105819:	f7 da                	neg    %edx
  10581b:	b8 ff ff ff ff       	mov    $0xffffffff,%eax
  105820:	89 15 9c 96 10 00    	mov    %edx,0x10969c
  105826:	eb ed                	jmp    105815 <close+0x35>
  105828:	90                   	nop    
  105829:	8d b4 26 00 00 00 00 	lea    0x0(%esi),%esi

00105830 <write>:
  105830:	55                   	push   %ebp
  105831:	89 e5                	mov    %esp,%ebp
  105833:	83 ec 38             	sub    $0x38,%esp
  105836:	8b 4d 10             	mov    0x10(%ebp),%ecx
  105839:	8b 55 08             	mov    0x8(%ebp),%edx
  10583c:	81 f9 ff 00 00 00    	cmp    $0xff,%ecx
  105842:	77 50                	ja     105894 <write+0x64>
  105844:	66 c7 45 f6 02 00    	movw   $0x2,0xfffffff6(%ebp)
  10584a:	89 4d d8             	mov    %ecx,0xffffffd8(%ebp)
  10584d:	8b 45 0c             	mov    0xc(%ebp),%eax
  105850:	83 fa 02             	cmp    $0x2,%edx
  105853:	c7 45 f0 04 00 00 00 	movl   $0x4,0xfffffff0(%ebp)
  10585a:	89 55 dc             	mov    %edx,0xffffffdc(%ebp)
  10585d:	89 45 ec             	mov    %eax,0xffffffec(%ebp)
  105860:	77 26                	ja     105888 <write+0x58>
  105862:	0f b7 45 f6          	movzwl 0xfffffff6(%ebp),%eax
  105866:	ba 01 00 00 00       	mov    $0x1,%edx
  10586b:	83 c8 20             	or     $0x20,%eax
  10586e:	66 89 45 f6          	mov    %ax,0xfffffff6(%ebp)
  105872:	89 14 24             	mov    %edx,(%esp)
  105875:	8d 45 d8             	lea    0xffffffd8(%ebp),%eax
  105878:	89 44 24 04          	mov    %eax,0x4(%esp)
  10587c:	e8 ef b7 ff ff       	call   101070 <send_message>
  105881:	8b 45 f0             	mov    0xfffffff0(%ebp),%eax
  105884:	89 ec                	mov    %ebp,%esp
  105886:	5d                   	pop    %ebp
  105887:	c3                   	ret    
  105888:	c1 ea 10             	shr    $0x10,%edx
  10588b:	75 e5                	jne    105872 <write+0x42>
  10588d:	ba 02 00 00 00       	mov    $0x2,%edx
  105892:	eb de                	jmp    105872 <write+0x42>
  105894:	66 c7 45 f6 04 00    	movw   $0x4,0xfffffff6(%ebp)
  10589a:	eb ae                	jmp    10584a <write+0x1a>
  10589c:	8d 74 26 00          	lea    0x0(%esi),%esi

001058a0 <read>:
  1058a0:	55                   	push   %ebp
  1058a1:	89 e5                	mov    %esp,%ebp
  1058a3:	83 ec 38             	sub    $0x38,%esp
  1058a6:	8b 55 10             	mov    0x10(%ebp),%edx
  1058a9:	8b 4d 08             	mov    0x8(%ebp),%ecx
  1058ac:	81 fa ff 00 00 00    	cmp    $0xff,%edx
  1058b2:	77 52                	ja     105906 <read+0x66>
  1058b4:	66 c7 45 f6 40 00    	movw   $0x40,0xfffffff6(%ebp)
  1058ba:	89 55 e0             	mov    %edx,0xffffffe0(%ebp)
  1058bd:	8b 45 0c             	mov    0xc(%ebp),%eax
  1058c0:	83 f9 02             	cmp    $0x2,%ecx
  1058c3:	c7 45 f0 03 00 00 00 	movl   $0x3,0xfffffff0(%ebp)
  1058ca:	ba 01 00 00 00       	mov    $0x1,%edx
  1058cf:	89 4d ec             	mov    %ecx,0xffffffec(%ebp)
  1058d2:	89 45 dc             	mov    %eax,0xffffffdc(%ebp)
  1058d5:	76 19                	jbe    1058f0 <read+0x50>
  1058d7:	89 ca                	mov    %ecx,%edx
  1058d9:	c1 ea 10             	shr    $0x10,%edx
  1058dc:	75 12                	jne    1058f0 <read+0x50>
  1058de:	ba 02 00 00 00       	mov    $0x2,%edx
  1058e3:	8d b6 00 00 00 00    	lea    0x0(%esi),%esi
  1058e9:	8d bc 27 00 00 00 00 	lea    0x0(%edi),%edi
  1058f0:	89 14 24             	mov    %edx,(%esp)
  1058f3:	8d 45 d8             	lea    0xffffffd8(%ebp),%eax
  1058f6:	89 44 24 04          	mov    %eax,0x4(%esp)
  1058fa:	e8 71 b7 ff ff       	call   101070 <send_message>
  1058ff:	8b 45 f0             	mov    0xfffffff0(%ebp),%eax
  105902:	89 ec                	mov    %ebp,%esp
  105904:	5d                   	pop    %ebp
  105905:	c3                   	ret    
  105906:	66 c7 45 f6 08 00    	movw   $0x8,0xfffffff6(%ebp)
  10590c:	eb ac                	jmp    1058ba <read+0x1a>
  10590e:	89 f6                	mov    %esi,%esi

00105910 <getgid>:
  105910:	55                   	push   %ebp
  105911:	b8 09 00 00 00       	mov    $0x9,%eax
  105916:	89 e5                	mov    %esp,%ebp
  105918:	83 ec 18             	sub    $0x18,%esp
  10591b:	89 5d fc             	mov    %ebx,0xfffffffc(%ebp)
  10591e:	31 db                	xor    %ebx,%ebx
  105920:	cd 30                	int    $0x30
  105922:	8b 5d fc             	mov    0xfffffffc(%ebp),%ebx
  105925:	89 c8                	mov    %ecx,%eax
  105927:	89 ec                	mov    %ebp,%esp
  105929:	5d                   	pop    %ebp
  10592a:	c3                   	ret    
  10592b:	90                   	nop    
  10592c:	8d 74 26 00          	lea    0x0(%esi),%esi

00105930 <getegid>:
  105930:	55                   	push   %ebp
  105931:	b8 09 00 00 00       	mov    $0x9,%eax
  105936:	89 e5                	mov    %esp,%ebp
  105938:	83 ec 18             	sub    $0x18,%esp
  10593b:	89 5d fc             	mov    %ebx,0xfffffffc(%ebp)
  10593e:	31 db                	xor    %ebx,%ebx
  105940:	cd 30                	int    $0x30
  105942:	8b 5d fc             	mov    0xfffffffc(%ebp),%ebx
  105945:	89 d0                	mov    %edx,%eax
  105947:	89 ec                	mov    %ebp,%esp
  105949:	5d                   	pop    %ebp
  10594a:	c3                   	ret    
  10594b:	90                   	nop    
  10594c:	8d 74 26 00          	lea    0x0(%esi),%esi

00105950 <geteuid>:
  105950:	55                   	push   %ebp
  105951:	b8 09 00 00 00       	mov    $0x9,%eax
  105956:	89 e5                	mov    %esp,%ebp
  105958:	83 ec 18             	sub    $0x18,%esp
  10595b:	89 5d fc             	mov    %ebx,0xfffffffc(%ebp)
  10595e:	31 db                	xor    %ebx,%ebx
  105960:	cd 30                	int    $0x30
  105962:	89 d8                	mov    %ebx,%eax
  105964:	8b 5d fc             	mov    0xfffffffc(%ebp),%ebx
  105967:	89 ec                	mov    %ebp,%esp
  105969:	5d                   	pop    %ebp
  10596a:	c3                   	ret    
  10596b:	90                   	nop    
  10596c:	8d 74 26 00          	lea    0x0(%esi),%esi

00105970 <getuid>:
  105970:	55                   	push   %ebp
  105971:	b8 09 00 00 00       	mov    $0x9,%eax
  105976:	89 e5                	mov    %esp,%ebp
  105978:	83 ec 18             	sub    $0x18,%esp
  10597b:	89 5d fc             	mov    %ebx,0xfffffffc(%ebp)
  10597e:	31 db                	xor    %ebx,%ebx
  105980:	cd 30                	int    $0x30
  105982:	8b 5d fc             	mov    0xfffffffc(%ebp),%ebx
  105985:	89 ec                	mov    %ebp,%esp
  105987:	5d                   	pop    %ebp
  105988:	c3                   	ret    
  105989:	8d b4 26 00 00 00 00 	lea    0x0(%esi),%esi

00105990 <setegid>:
  105990:	55                   	push   %ebp
  105991:	b8 0a 00 00 00       	mov    $0xa,%eax
  105996:	89 e5                	mov    %esp,%ebp
  105998:	83 ec 28             	sub    $0x28,%esp
  10599b:	89 7d fc             	mov    %edi,0xfffffffc(%ebp)
  10599e:	8b 7d 08             	mov    0x8(%ebp),%edi
  1059a1:	89 75 f8             	mov    %esi,0xfffffff8(%ebp)
  1059a4:	be ff ff ff ff       	mov    $0xffffffff,%esi
  1059a9:	89 f1                	mov    %esi,%ecx
  1059ab:	89 5d f4             	mov    %ebx,0xfffffff4(%ebp)
  1059ae:	89 f2                	mov    %esi,%edx
  1059b0:	31 db                	xor    %ebx,%ebx
  1059b2:	c7 45 d8 ff ff ff ff 	movl   $0xffffffff,0xffffffd8(%ebp)
  1059b9:	c7 45 dc ff ff ff ff 	movl   $0xffffffff,0xffffffdc(%ebp)
  1059c0:	c7 45 e0 ff ff ff ff 	movl   $0xffffffff,0xffffffe0(%ebp)
  1059c7:	89 7d e4             	mov    %edi,0xffffffe4(%ebp)
  1059ca:	cd 30                	int    $0x30
  1059cc:	8b 5d f4             	mov    0xfffffff4(%ebp),%ebx
  1059cf:	8b 75 f8             	mov    0xfffffff8(%ebp),%esi
  1059d2:	8b 7d fc             	mov    0xfffffffc(%ebp),%edi
  1059d5:	89 ec                	mov    %ebp,%esp
  1059d7:	5d                   	pop    %ebp
  1059d8:	c3                   	ret    
  1059d9:	8d b4 26 00 00 00 00 	lea    0x0(%esi),%esi

001059e0 <setgid>:
  1059e0:	55                   	push   %ebp
  1059e1:	b8 0a 00 00 00       	mov    $0xa,%eax
  1059e6:	89 e5                	mov    %esp,%ebp
  1059e8:	83 ec 28             	sub    $0x28,%esp
  1059eb:	89 75 f8             	mov    %esi,0xfffffff8(%ebp)
  1059ee:	8b 75 08             	mov    0x8(%ebp),%esi
  1059f1:	89 7d fc             	mov    %edi,0xfffffffc(%ebp)
  1059f4:	bf ff ff ff ff       	mov    $0xffffffff,%edi
  1059f9:	89 f9                	mov    %edi,%ecx
  1059fb:	89 5d f4             	mov    %ebx,0xfffffff4(%ebp)
  1059fe:	89 fa                	mov    %edi,%edx
  105a00:	31 db                	xor    %ebx,%ebx
  105a02:	c7 45 d8 ff ff ff ff 	movl   $0xffffffff,0xffffffd8(%ebp)
  105a09:	c7 45 dc ff ff ff ff 	movl   $0xffffffff,0xffffffdc(%ebp)
  105a10:	89 75 e0             	mov    %esi,0xffffffe0(%ebp)
  105a13:	c7 45 e4 ff ff ff ff 	movl   $0xffffffff,0xffffffe4(%ebp)
  105a1a:	cd 30                	int    $0x30
  105a1c:	8b 5d f4             	mov    0xfffffff4(%ebp),%ebx
  105a1f:	8b 75 f8             	mov    0xfffffff8(%ebp),%esi
  105a22:	8b 7d fc             	mov    0xfffffffc(%ebp),%edi
  105a25:	89 ec                	mov    %ebp,%esp
  105a27:	5d                   	pop    %ebp
  105a28:	c3                   	ret    
  105a29:	8d b4 26 00 00 00 00 	lea    0x0(%esi),%esi

00105a30 <setuid>:
  105a30:	55                   	push   %ebp
  105a31:	b8 0a 00 00 00       	mov    $0xa,%eax
  105a36:	89 e5                	mov    %esp,%ebp
  105a38:	83 ec 28             	sub    $0x28,%esp
  105a3b:	8b 4d 08             	mov    0x8(%ebp),%ecx
  105a3e:	89 7d fc             	mov    %edi,0xfffffffc(%ebp)
  105a41:	bf ff ff ff ff       	mov    $0xffffffff,%edi
  105a46:	89 fa                	mov    %edi,%edx
  105a48:	89 5d f4             	mov    %ebx,0xfffffff4(%ebp)
  105a4b:	31 db                	xor    %ebx,%ebx
  105a4d:	89 75 f8             	mov    %esi,0xfffffff8(%ebp)
  105a50:	89 fe                	mov    %edi,%esi
  105a52:	89 4d d8             	mov    %ecx,0xffffffd8(%ebp)
  105a55:	c7 45 dc ff ff ff ff 	movl   $0xffffffff,0xffffffdc(%ebp)
  105a5c:	c7 45 e0 ff ff ff ff 	movl   $0xffffffff,0xffffffe0(%ebp)
  105a63:	c7 45 e4 ff ff ff ff 	movl   $0xffffffff,0xffffffe4(%ebp)
  105a6a:	cd 30                	int    $0x30
  105a6c:	8b 5d f4             	mov    0xfffffff4(%ebp),%ebx
  105a6f:	8b 75 f8             	mov    0xfffffff8(%ebp),%esi
  105a72:	8b 7d fc             	mov    0xfffffffc(%ebp),%edi
  105a75:	89 ec                	mov    %ebp,%esp
  105a77:	5d                   	pop    %ebp
  105a78:	c3                   	ret    
  105a79:	8d b4 26 00 00 00 00 	lea    0x0(%esi),%esi

00105a80 <seteuid>:
  105a80:	55                   	push   %ebp
  105a81:	b8 0a 00 00 00       	mov    $0xa,%eax
  105a86:	89 e5                	mov    %esp,%ebp
  105a88:	83 ec 28             	sub    $0x28,%esp
  105a8b:	8b 55 08             	mov    0x8(%ebp),%edx
  105a8e:	89 7d fc             	mov    %edi,0xfffffffc(%ebp)
  105a91:	bf ff ff ff ff       	mov    $0xffffffff,%edi
  105a96:	89 f9                	mov    %edi,%ecx
  105a98:	89 5d f4             	mov    %ebx,0xfffffff4(%ebp)
  105a9b:	31 db                	xor    %ebx,%ebx
  105a9d:	89 75 f8             	mov    %esi,0xfffffff8(%ebp)
  105aa0:	89 fe                	mov    %edi,%esi
  105aa2:	c7 45 d8 ff ff ff ff 	movl   $0xffffffff,0xffffffd8(%ebp)
  105aa9:	89 55 dc             	mov    %edx,0xffffffdc(%ebp)
  105aac:	c7 45 e0 ff ff ff ff 	movl   $0xffffffff,0xffffffe0(%ebp)
  105ab3:	c7 45 e4 ff ff ff ff 	movl   $0xffffffff,0xffffffe4(%ebp)
  105aba:	cd 30                	int    $0x30
  105abc:	8b 5d f4             	mov    0xfffffff4(%ebp),%ebx
  105abf:	8b 75 f8             	mov    0xfffffff8(%ebp),%esi
  105ac2:	8b 7d fc             	mov    0xfffffffc(%ebp),%edi
  105ac5:	89 ec                	mov    %ebp,%esp
  105ac7:	5d                   	pop    %ebp
  105ac8:	c3                   	ret    
  105ac9:	8d b4 26 00 00 00 00 	lea    0x0(%esi),%esi

00105ad0 <getpgid>:
  105ad0:	55                   	push   %ebp
  105ad1:	b8 09 00 00 00       	mov    $0x9,%eax
  105ad6:	89 e5                	mov    %esp,%ebp
  105ad8:	83 ec 18             	sub    $0x18,%esp
  105adb:	89 5d fc             	mov    %ebx,0xfffffffc(%ebp)
  105ade:	8b 5d 08             	mov    0x8(%ebp),%ebx
  105ae1:	cd 30                	int    $0x30
  105ae3:	8b 5d fc             	mov    0xfffffffc(%ebp),%ebx
  105ae6:	89 c8                	mov    %ecx,%eax
  105ae8:	89 ec                	mov    %ebp,%esp
  105aea:	5d                   	pop    %ebp
  105aeb:	c3                   	ret    
  105aec:	8d 74 26 00          	lea    0x0(%esi),%esi

00105af0 <getpgrp>:
  105af0:	55                   	push   %ebp
  105af1:	89 e5                	mov    %esp,%ebp
  105af3:	5d                   	pop    %ebp
  105af4:	e9 17 fe ff ff       	jmp    105910 <getgid>
  105af9:	8d b4 26 00 00 00 00 	lea    0x0(%esi),%esi

00105b00 <setpgid>:
  105b00:	55                   	push   %ebp
  105b01:	b8 0a 00 00 00       	mov    $0xa,%eax
  105b06:	89 e5                	mov    %esp,%ebp
  105b08:	83 ec 28             	sub    $0x28,%esp
  105b0b:	89 75 f8             	mov    %esi,0xfffffff8(%ebp)
  105b0e:	8b 75 0c             	mov    0xc(%ebp),%esi
  105b11:	89 7d fc             	mov    %edi,0xfffffffc(%ebp)
  105b14:	bf ff ff ff ff       	mov    $0xffffffff,%edi
  105b19:	89 f9                	mov    %edi,%ecx
  105b1b:	89 5d f4             	mov    %ebx,0xfffffff4(%ebp)
  105b1e:	89 fa                	mov    %edi,%edx
  105b20:	8b 5d 08             	mov    0x8(%ebp),%ebx
  105b23:	c7 45 d8 ff ff ff ff 	movl   $0xffffffff,0xffffffd8(%ebp)
  105b2a:	c7 45 dc ff ff ff ff 	movl   $0xffffffff,0xffffffdc(%ebp)
  105b31:	89 75 e0             	mov    %esi,0xffffffe0(%ebp)
  105b34:	c7 45 e4 ff ff ff ff 	movl   $0xffffffff,0xffffffe4(%ebp)
  105b3b:	cd 30                	int    $0x30
  105b3d:	8b 5d f4             	mov    0xfffffff4(%ebp),%ebx
  105b40:	8b 75 f8             	mov    0xfffffff8(%ebp),%esi
  105b43:	8b 7d fc             	mov    0xfffffffc(%ebp),%edi
  105b46:	89 ec                	mov    %ebp,%esp
  105b48:	5d                   	pop    %ebp
  105b49:	c3                   	ret    
  105b4a:	8d b6 00 00 00 00    	lea    0x0(%esi),%esi

00105b50 <setsid>:
  105b50:	55                   	push   %ebp
  105b51:	b8 01 00 00 00       	mov    $0x1,%eax
  105b56:	89 e5                	mov    %esp,%ebp
  105b58:	83 ec 08             	sub    $0x8,%esp
  105b5b:	89 44 24 04          	mov    %eax,0x4(%esp)
  105b5f:	c7 04 24 00 00 00 00 	movl   $0x0,(%esp)
  105b66:	e8 95 ff ff ff       	call   105b00 <setpgid>
  105b6b:	89 ec                	mov    %ebp,%esp
  105b6d:	5d                   	pop    %ebp
  105b6e:	c3                   	ret    
  105b6f:	90                   	nop    

00105b70 <setpgrp>:
  105b70:	55                   	push   %ebp
  105b71:	ba 01 00 00 00       	mov    $0x1,%edx
  105b76:	89 e5                	mov    %esp,%ebp
  105b78:	83 ec 08             	sub    $0x8,%esp
  105b7b:	89 54 24 04          	mov    %edx,0x4(%esp)
  105b7f:	c7 04 24 00 00 00 00 	movl   $0x0,(%esp)
  105b86:	e8 75 ff ff ff       	call   105b00 <setpgid>
  105b8b:	89 ec                	mov    %ebp,%esp
  105b8d:	5d                   	pop    %ebp
  105b8e:	c3                   	ret    
  105b8f:	90                   	nop    

00105b90 <getpid>:
  105b90:	55                   	push   %ebp
  105b91:	b8 06 00 00 00       	mov    $0x6,%eax
  105b96:	89 e5                	mov    %esp,%ebp
  105b98:	57                   	push   %edi
  105b99:	31 ff                	xor    %edi,%edi
  105b9b:	cd 30                	int    $0x30
  105b9d:	5f                   	pop    %edi
  105b9e:	5d                   	pop    %ebp
  105b9f:	c3                   	ret    

00105ba0 <getppid>:
  105ba0:	55                   	push   %ebp
  105ba1:	b8 07 00 00 00       	mov    $0x7,%eax
  105ba6:	89 e5                	mov    %esp,%ebp
  105ba8:	cd 30                	int    $0x30
  105baa:	5d                   	pop    %ebp
  105bab:	c3                   	ret    
  105bac:	8d 74 26 00          	lea    0x0(%esi),%esi

00105bb0 <dup>:
  105bb0:	55                   	push   %ebp
  105bb1:	b8 3d 00 00 00       	mov    $0x3d,%eax
  105bb6:	89 e5                	mov    %esp,%ebp
  105bb8:	83 ec 08             	sub    $0x8,%esp
  105bbb:	89 34 24             	mov    %esi,(%esp)
  105bbe:	31 f6                	xor    %esi,%esi
  105bc0:	89 7c 24 04          	mov    %edi,0x4(%esp)
  105bc4:	8b 7d 08             	mov    0x8(%ebp),%edi
  105bc7:	cd 30                	int    $0x30
  105bc9:	85 c0                	test   %eax,%eax
  105bcb:	89 c2                	mov    %eax,%edx
  105bcd:	78 11                	js     105be0 <dup+0x30>
  105bcf:	8b 34 24             	mov    (%esp),%esi
  105bd2:	89 d0                	mov    %edx,%eax
  105bd4:	8b 7c 24 04          	mov    0x4(%esp),%edi
  105bd8:	89 ec                	mov    %ebp,%esp
  105bda:	5d                   	pop    %ebp
  105bdb:	c3                   	ret    
  105bdc:	8d 74 26 00          	lea    0x0(%esi),%esi
  105be0:	f7 d8                	neg    %eax
  105be2:	ba ff ff ff ff       	mov    $0xffffffff,%edx
  105be7:	a3 9c 96 10 00       	mov    %eax,0x10969c
  105bec:	eb e1                	jmp    105bcf <dup+0x1f>
  105bee:	89 f6                	mov    %esi,%esi

00105bf0 <dup2>:
  105bf0:	55                   	push   %ebp
  105bf1:	b8 3d 00 00 00       	mov    $0x3d,%eax
  105bf6:	89 e5                	mov    %esp,%ebp
  105bf8:	83 ec 08             	sub    $0x8,%esp
  105bfb:	89 34 24             	mov    %esi,(%esp)
  105bfe:	8b 75 0c             	mov    0xc(%ebp),%esi
  105c01:	89 7c 24 04          	mov    %edi,0x4(%esp)
  105c05:	8b 7d 08             	mov    0x8(%ebp),%edi
  105c08:	cd 30                	int    $0x30
  105c0a:	85 c0                	test   %eax,%eax
  105c0c:	89 c2                	mov    %eax,%edx
  105c0e:	78 10                	js     105c20 <dup2+0x30>
  105c10:	8b 34 24             	mov    (%esp),%esi
  105c13:	89 d0                	mov    %edx,%eax
  105c15:	8b 7c 24 04          	mov    0x4(%esp),%edi
  105c19:	89 ec                	mov    %ebp,%esp
  105c1b:	5d                   	pop    %ebp
  105c1c:	c3                   	ret    
  105c1d:	8d 76 00             	lea    0x0(%esi),%esi
  105c20:	f7 d8                	neg    %eax
  105c22:	ba ff ff ff ff       	mov    $0xffffffff,%edx
  105c27:	a3 9c 96 10 00       	mov    %eax,0x10969c
  105c2c:	eb e2                	jmp    105c10 <dup2+0x20>
	...

00105c30 <fopen>:
  105c30:	55                   	push   %ebp
  105c31:	31 c9                	xor    %ecx,%ecx
  105c33:	89 e5                	mov    %esp,%ebp
  105c35:	57                   	push   %edi
  105c36:	56                   	push   %esi
  105c37:	53                   	push   %ebx
  105c38:	83 ec 0c             	sub    $0xc,%esp
  105c3b:	8b 5d 08             	mov    0x8(%ebp),%ebx
  105c3e:	8b 55 0c             	mov    0xc(%ebp),%edx
  105c41:	80 3b 00             	cmpb   $0x0,(%ebx)
  105c44:	0f 84 ea 00 00 00    	je     105d34 <fopen+0x104>
  105c4a:	b8 72 00 00 00       	mov    $0x72,%eax
  105c4f:	89 d6                	mov    %edx,%esi
  105c51:	88 c4                	mov    %al,%ah
  105c53:	ac                   	lods   %ds:(%esi),%al
  105c54:	38 e0                	cmp    %ah,%al
  105c56:	74 09                	je     105c61 <fopen+0x31>
  105c58:	84 c0                	test   %al,%al
  105c5a:	75 f7                	jne    105c53 <fopen+0x23>
  105c5c:	be 01 00 00 00       	mov    $0x1,%esi
  105c61:	89 f0                	mov    %esi,%eax
  105c63:	48                   	dec    %eax
  105c64:	85 c0                	test   %eax,%eax
  105c66:	74 05                	je     105c6d <fopen+0x3d>
  105c68:	b9 00 04 00 00       	mov    $0x400,%ecx
  105c6d:	b8 77 00 00 00       	mov    $0x77,%eax
  105c72:	89 d6                	mov    %edx,%esi
  105c74:	88 c4                	mov    %al,%ah
  105c76:	ac                   	lods   %ds:(%esi),%al
  105c77:	38 e0                	cmp    %ah,%al
  105c79:	74 09                	je     105c84 <fopen+0x54>
  105c7b:	84 c0                	test   %al,%al
  105c7d:	75 f7                	jne    105c76 <fopen+0x46>
  105c7f:	be 01 00 00 00       	mov    $0x1,%esi
  105c84:	89 f0                	mov    %esi,%eax
  105c86:	48                   	dec    %eax
  105c87:	85 c0                	test   %eax,%eax
  105c89:	74 06                	je     105c91 <fopen+0x61>
  105c8b:	81 c9 00 08 00 00    	or     $0x800,%ecx
  105c91:	b8 2b 00 00 00       	mov    $0x2b,%eax
  105c96:	89 d6                	mov    %edx,%esi
  105c98:	88 c4                	mov    %al,%ah
  105c9a:	ac                   	lods   %ds:(%esi),%al
  105c9b:	38 e0                	cmp    %ah,%al
  105c9d:	74 09                	je     105ca8 <fopen+0x78>
  105c9f:	84 c0                	test   %al,%al
  105ca1:	75 f7                	jne    105c9a <fopen+0x6a>
  105ca3:	be 01 00 00 00       	mov    $0x1,%esi
  105ca8:	89 f0                	mov    %esi,%eax
  105caa:	48                   	dec    %eax
  105cab:	85 c0                	test   %eax,%eax
  105cad:	74 03                	je     105cb2 <fopen+0x82>
  105caf:	83 c9 10             	or     $0x10,%ecx
  105cb2:	89 4c 24 04          	mov    %ecx,0x4(%esp)
  105cb6:	89 1c 24             	mov    %ebx,(%esp)
  105cb9:	e8 f2 01 00 00       	call   105eb0 <open>
  105cbe:	89 c6                	mov    %eax,%esi
  105cc0:	31 c0                	xor    %eax,%eax
  105cc2:	85 f6                	test   %esi,%esi
  105cc4:	78 46                	js     105d0c <fopen+0xdc>
  105cc6:	c7 04 24 14 04 00 00 	movl   $0x414,(%esp)
  105ccd:	e8 9e ba ff ff       	call   101770 <malloc>
  105cd2:	85 c0                	test   %eax,%eax
  105cd4:	89 c3                	mov    %eax,%ebx
  105cd6:	74 3c                	je     105d14 <fopen+0xe4>
  105cd8:	ba 14 04 00 00       	mov    $0x414,%edx
  105cdd:	fc                   	cld    
  105cde:	89 d9                	mov    %ebx,%ecx
  105ce0:	31 c0                	xor    %eax,%eax
  105ce2:	f7 d9                	neg    %ecx
  105ce4:	83 e1 03             	and    $0x3,%ecx
  105ce7:	89 df                	mov    %ebx,%edi
  105ce9:	29 ca                	sub    %ecx,%edx
  105ceb:	f3 aa                	repz stos %al,%es:(%edi)
  105ced:	89 d1                	mov    %edx,%ecx
  105cef:	c1 e9 02             	shr    $0x2,%ecx
  105cf2:	f3 ab                	repz stos %eax,%es:(%edi)
  105cf4:	83 e2 03             	and    $0x3,%edx
  105cf7:	89 d1                	mov    %edx,%ecx
  105cf9:	f3 aa                	repz stos %al,%es:(%edi)
  105cfb:	c7 43 08 00 04 00 00 	movl   $0x400,0x8(%ebx)
  105d02:	8d 43 14             	lea    0x14(%ebx),%eax
  105d05:	89 43 04             	mov    %eax,0x4(%ebx)
  105d08:	89 d8                	mov    %ebx,%eax
  105d0a:	89 33                	mov    %esi,(%ebx)
  105d0c:	83 c4 0c             	add    $0xc,%esp
  105d0f:	5b                   	pop    %ebx
  105d10:	5e                   	pop    %esi
  105d11:	5f                   	pop    %edi
  105d12:	5d                   	pop    %ebp
  105d13:	c3                   	ret    
  105d14:	89 34 24             	mov    %esi,(%esp)
  105d17:	8b 1d 9c 96 10 00    	mov    0x10969c,%ebx
  105d1d:	e8 be fa ff ff       	call   1057e0 <close>
  105d22:	89 1d 9c 96 10 00    	mov    %ebx,0x10969c
  105d28:	90                   	nop    
  105d29:	8d b4 26 00 00 00 00 	lea    0x0(%esi),%esi
  105d30:	31 c0                	xor    %eax,%eax
  105d32:	eb d8                	jmp    105d0c <fopen+0xdc>
  105d34:	b8 2d 00 00 00       	mov    $0x2d,%eax
  105d39:	a3 9c 96 10 00       	mov    %eax,0x10969c
  105d3e:	eb f0                	jmp    105d30 <fopen+0x100>

00105d40 <fread>:
  105d40:	55                   	push   %ebp
  105d41:	89 e5                	mov    %esp,%ebp
  105d43:	83 ec 18             	sub    $0x18,%esp
  105d46:	89 5d fc             	mov    %ebx,0xfffffffc(%ebp)
  105d49:	8b 55 14             	mov    0x14(%ebp),%edx
  105d4c:	8b 1d 9c 96 10 00    	mov    0x10969c,%ebx
  105d52:	8b 42 0c             	mov    0xc(%edx),%eax
  105d55:	39 42 10             	cmp    %eax,0x10(%edx)
  105d58:	73 09                	jae    105d63 <fread+0x23>
  105d5a:	31 c0                	xor    %eax,%eax
  105d5c:	8b 5d fc             	mov    0xfffffffc(%ebp),%ebx
  105d5f:	89 ec                	mov    %ebp,%esp
  105d61:	5d                   	pop    %ebp
  105d62:	c3                   	ret    
  105d63:	8b 42 08             	mov    0x8(%edx),%eax
  105d66:	89 44 24 08          	mov    %eax,0x8(%esp)
  105d6a:	8b 42 04             	mov    0x4(%edx),%eax
  105d6d:	89 44 24 04          	mov    %eax,0x4(%esp)
  105d71:	8b 02                	mov    (%edx),%eax
  105d73:	89 04 24             	mov    %eax,(%esp)
  105d76:	e8 25 fb ff ff       	call   1058a0 <read>
  105d7b:	85 c0                	test   %eax,%eax
  105d7d:	75 db                	jne    105d5a <fread+0x1a>
  105d7f:	89 1d 9c 96 10 00    	mov    %ebx,0x10969c
  105d85:	b8 ff ff ff ff       	mov    $0xffffffff,%eax
  105d8a:	eb d0                	jmp    105d5c <fread+0x1c>
  105d8c:	8d 74 26 00          	lea    0x0(%esi),%esi

00105d90 <fclose>:
  105d90:	55                   	push   %ebp
  105d91:	89 e5                	mov    %esp,%ebp
  105d93:	83 ec 08             	sub    $0x8,%esp
  105d96:	89 5d fc             	mov    %ebx,0xfffffffc(%ebp)
  105d99:	8b 45 08             	mov    0x8(%ebp),%eax
  105d9c:	85 c0                	test   %eax,%eax
  105d9e:	74 18                	je     105db8 <fclose+0x28>
  105da0:	8b 18                	mov    (%eax),%ebx
  105da2:	89 04 24             	mov    %eax,(%esp)
  105da5:	e8 a6 bf ff ff       	call   101d50 <free>
  105daa:	89 5d 08             	mov    %ebx,0x8(%ebp)
  105dad:	8b 5d fc             	mov    0xfffffffc(%ebp),%ebx
  105db0:	89 ec                	mov    %ebp,%esp
  105db2:	5d                   	pop    %ebp
  105db3:	e9 28 fa ff ff       	jmp    1057e0 <close>
  105db8:	ba 1d 00 00 00       	mov    $0x1d,%edx
  105dbd:	b8 ff ff ff ff       	mov    $0xffffffff,%eax
  105dc2:	89 15 9c 96 10 00    	mov    %edx,0x10969c
  105dc8:	8b 5d fc             	mov    0xfffffffc(%ebp),%ebx
  105dcb:	89 ec                	mov    %ebp,%esp
  105dcd:	5d                   	pop    %ebp
  105dce:	c3                   	ret    
  105dcf:	90                   	nop    

00105dd0 <fseek>:
  105dd0:	55                   	push   %ebp
  105dd1:	89 e5                	mov    %esp,%ebp
  105dd3:	83 ec 18             	sub    $0x18,%esp
  105dd6:	89 75 fc             	mov    %esi,0xfffffffc(%ebp)
  105dd9:	8b 45 10             	mov    0x10(%ebp),%eax
  105ddc:	8b 75 0c             	mov    0xc(%ebp),%esi
  105ddf:	89 5d f8             	mov    %ebx,0xfffffff8(%ebp)
  105de2:	8b 5d 08             	mov    0x8(%ebp),%ebx
  105de5:	89 74 24 04          	mov    %esi,0x4(%esp)
  105de9:	89 44 24 08          	mov    %eax,0x8(%esp)
  105ded:	8b 03                	mov    (%ebx),%eax
  105def:	89 04 24             	mov    %eax,(%esp)
  105df2:	e8 69 01 00 00       	call   105f60 <lseek>
  105df7:	c7 43 0c 00 00 00 00 	movl   $0x0,0xc(%ebx)
  105dfe:	89 f0                	mov    %esi,%eax
  105e00:	89 73 10             	mov    %esi,0x10(%ebx)
  105e03:	8b 5d f8             	mov    0xfffffff8(%ebp),%ebx
  105e06:	8b 75 fc             	mov    0xfffffffc(%ebp),%esi
  105e09:	89 ec                	mov    %ebp,%esp
  105e0b:	5d                   	pop    %ebp
  105e0c:	c3                   	ret    
  105e0d:	8d 76 00             	lea    0x0(%esi),%esi

00105e10 <ftell>:
  105e10:	55                   	push   %ebp
  105e11:	89 e5                	mov    %esp,%ebp
  105e13:	8b 45 08             	mov    0x8(%ebp),%eax
  105e16:	5d                   	pop    %ebp
  105e17:	8b 40 10             	mov    0x10(%eax),%eax
  105e1a:	c3                   	ret    
  105e1b:	90                   	nop    
  105e1c:	8d 74 26 00          	lea    0x0(%esi),%esi

00105e20 <fgetc>:
  105e20:	55                   	push   %ebp
  105e21:	89 e5                	mov    %esp,%ebp
  105e23:	83 ec 18             	sub    $0x18,%esp
  105e26:	89 5d f8             	mov    %ebx,0xfffffff8(%ebp)
  105e29:	8b 5d 08             	mov    0x8(%ebp),%ebx
  105e2c:	89 75 fc             	mov    %esi,0xfffffffc(%ebp)
  105e2f:	8b 35 9c 96 10 00    	mov    0x10969c,%esi
  105e35:	85 db                	test   %ebx,%ebx
  105e37:	74 65                	je     105e9e <fgetc+0x7e>
  105e39:	8b 4b 10             	mov    0x10(%ebx),%ecx
  105e3c:	3b 4b 0c             	cmp    0xc(%ebx),%ecx
  105e3f:	73 1f                	jae    105e60 <fgetc+0x40>
  105e41:	8b 43 04             	mov    0x4(%ebx),%eax
  105e44:	0f be 14 01          	movsbl (%ecx,%eax,1),%edx
  105e48:	8d 41 01             	lea    0x1(%ecx),%eax
  105e4b:	89 43 10             	mov    %eax,0x10(%ebx)
  105e4e:	89 d0                	mov    %edx,%eax
  105e50:	8b 5d f8             	mov    0xfffffff8(%ebp),%ebx
  105e53:	8b 75 fc             	mov    0xfffffffc(%ebp),%esi
  105e56:	89 ec                	mov    %ebp,%esp
  105e58:	5d                   	pop    %ebp
  105e59:	c3                   	ret    
  105e5a:	8d b6 00 00 00 00    	lea    0x0(%esi),%esi
  105e60:	8b 43 08             	mov    0x8(%ebx),%eax
  105e63:	89 44 24 08          	mov    %eax,0x8(%esp)
  105e67:	8b 43 04             	mov    0x4(%ebx),%eax
  105e6a:	89 44 24 04          	mov    %eax,0x4(%esp)
  105e6e:	8b 03                	mov    (%ebx),%eax
  105e70:	89 04 24             	mov    %eax,(%esp)
  105e73:	e8 28 fa ff ff       	call   1058a0 <read>
  105e78:	85 c0                	test   %eax,%eax
  105e7a:	75 14                	jne    105e90 <fgetc+0x70>
  105e7c:	89 35 9c 96 10 00    	mov    %esi,0x10969c
  105e82:	b8 ff ff ff ff       	mov    $0xffffffff,%eax
  105e87:	eb c7                	jmp    105e50 <fgetc+0x30>
  105e89:	8d b4 26 00 00 00 00 	lea    0x0(%esi),%esi
  105e90:	89 43 0c             	mov    %eax,0xc(%ebx)
  105e93:	31 c9                	xor    %ecx,%ecx
  105e95:	c7 43 10 00 00 00 00 	movl   $0x0,0x10(%ebx)
  105e9c:	eb a3                	jmp    105e41 <fgetc+0x21>
  105e9e:	b9 08 00 00 00       	mov    $0x8,%ecx
  105ea3:	89 0d 9c 96 10 00    	mov    %ecx,0x10969c
  105ea9:	eb d7                	jmp    105e82 <fgetc+0x62>
  105eab:	00 00                	add    %al,(%eax)
  105ead:	00 00                	add    %al,(%eax)
	...

00105eb0 <open>:
  105eb0:	55                   	push   %ebp
  105eb1:	31 c0                	xor    %eax,%eax
  105eb3:	89 e5                	mov    %esp,%ebp
  105eb5:	57                   	push   %edi
  105eb6:	b9 ff ff ff ff       	mov    $0xffffffff,%ecx
  105ebb:	53                   	push   %ebx
  105ebc:	83 ec 30             	sub    $0x30,%esp
  105ebf:	8b 55 08             	mov    0x8(%ebp),%edx
  105ec2:	89 d7                	mov    %edx,%edi
  105ec4:	f2 ae                	repnz scas %es:(%edi),%al
  105ec6:	f7 d1                	not    %ecx
  105ec8:	49                   	dec    %ecx
  105ec9:	81 f9 00 01 00 00    	cmp    $0x100,%ecx
  105ecf:	7e 7f                	jle    105f50 <open+0xa0>
  105ed1:	66 c7 45 f6 04 00    	movw   $0x4,0xfffffff6(%ebp)
  105ed7:	89 55 ec             	mov    %edx,0xffffffec(%ebp)
  105eda:	8d 41 01             	lea    0x1(%ecx),%eax
  105edd:	8d 5d d8             	lea    0xffffffd8(%ebp),%ebx
  105ee0:	89 45 d8             	mov    %eax,0xffffffd8(%ebp)
  105ee3:	8b 45 0c             	mov    0xc(%ebp),%eax
  105ee6:	c7 45 f0 01 00 00 00 	movl   $0x1,0xfffffff0(%ebp)
  105eed:	89 5c 24 04          	mov    %ebx,0x4(%esp)
  105ef1:	89 45 dc             	mov    %eax,0xffffffdc(%ebp)
  105ef4:	c7 04 24 02 00 00 00 	movl   $0x2,(%esp)
  105efb:	e8 70 b1 ff ff       	call   101070 <send_message>
  105f00:	8b 45 dc             	mov    0xffffffdc(%ebp),%eax
  105f03:	8b 7d f0             	mov    0xfffffff0(%ebp),%edi
  105f06:	25 00 f0 00 00       	and    $0xf000,%eax
  105f0b:	3d 00 80 00 00       	cmp    $0x8000,%eax
  105f10:	74 2f                	je     105f41 <open+0x91>
  105f12:	3d 00 40 00 00       	cmp    $0x4000,%eax
  105f17:	74 28                	je     105f41 <open+0x91>
  105f19:	66 c7 45 f6 21 00    	movw   $0x21,0xfffffff6(%ebp)
  105f1f:	83 ff 02             	cmp    $0x2,%edi
  105f22:	b8 01 00 00 00       	mov    $0x1,%eax
  105f27:	c7 45 f0 01 00 00 00 	movl   $0x1,0xfffffff0(%ebp)
  105f2e:	76 05                	jbe    105f35 <open+0x85>
  105f30:	89 f8                	mov    %edi,%eax
  105f32:	c1 e8 10             	shr    $0x10,%eax
  105f35:	89 5c 24 04          	mov    %ebx,0x4(%esp)
  105f39:	89 04 24             	mov    %eax,(%esp)
  105f3c:	e8 2f b1 ff ff       	call   101070 <send_message>
  105f41:	83 c4 30             	add    $0x30,%esp
  105f44:	89 f8                	mov    %edi,%eax
  105f46:	5b                   	pop    %ebx
  105f47:	5f                   	pop    %edi
  105f48:	5d                   	pop    %ebp
  105f49:	c3                   	ret    
  105f4a:	8d b6 00 00 00 00    	lea    0x0(%esi),%esi
  105f50:	66 c7 45 f6 02 00    	movw   $0x2,0xfffffff6(%ebp)
  105f56:	e9 7c ff ff ff       	jmp    105ed7 <open+0x27>
  105f5b:	00 00                	add    %al,(%eax)
  105f5d:	00 00                	add    %al,(%eax)
	...

00105f60 <lseek>:
  105f60:	55                   	push   %ebp
  105f61:	89 e5                	mov    %esp,%ebp
  105f63:	83 ec 48             	sub    $0x48,%esp
  105f66:	89 75 f8             	mov    %esi,0xfffffff8(%ebp)
  105f69:	8b 75 08             	mov    0x8(%ebp),%esi
  105f6c:	89 5d f4             	mov    %ebx,0xfffffff4(%ebp)
  105f6f:	89 7d fc             	mov    %edi,0xfffffffc(%ebp)
  105f72:	8b 7d 10             	mov    0x10(%ebp),%edi
  105f75:	e8 26 ed ff ff       	call   104ca0 <pthread_self>
  105f7a:	89 74 24 04          	mov    %esi,0x4(%esp)
  105f7e:	89 c3                	mov    %eax,%ebx
  105f80:	8d 45 c8             	lea    0xffffffc8(%ebp),%eax
  105f83:	89 44 24 08          	mov    %eax,0x8(%esp)
  105f87:	89 1c 24             	mov    %ebx,(%esp)
  105f8a:	e8 61 03 00 00       	call   1062f0 <get_openfile>
  105f8f:	85 c0                	test   %eax,%eax
  105f91:	78 6d                	js     106000 <lseek+0xa0>
  105f93:	83 ff 03             	cmp    $0x3,%edi
  105f96:	74 60                	je     105ff8 <lseek+0x98>
  105f98:	83 ff 01             	cmp    $0x1,%edi
  105f9b:	74 53                	je     105ff0 <lseek+0x90>
  105f9d:	83 ff 02             	cmp    $0x2,%edi
  105fa0:	75 37                	jne    105fd9 <lseek+0x79>
  105fa2:	c7 45 cc ff ff ff ff 	movl   $0xffffffff,0xffffffcc(%ebp)
  105fa9:	b8 2b 00 00 00       	mov    $0x2b,%eax
  105fae:	89 f1                	mov    %esi,%ecx
  105fb0:	8d 55 c8             	lea    0xffffffc8(%ebp),%edx
  105fb3:	cd 30                	int    $0x30
  105fb5:	85 c0                	test   %eax,%eax
  105fb7:	78 17                	js     105fd0 <lseek+0x70>
  105fb9:	8b 45 cc             	mov    0xffffffcc(%ebp),%eax
  105fbc:	8b 5d f4             	mov    0xfffffff4(%ebp),%ebx
  105fbf:	8b 75 f8             	mov    0xfffffff8(%ebp),%esi
  105fc2:	8b 7d fc             	mov    0xfffffffc(%ebp),%edi
  105fc5:	89 ec                	mov    %ebp,%esp
  105fc7:	5d                   	pop    %ebp
  105fc8:	c3                   	ret    
  105fc9:	8d b4 26 00 00 00 00 	lea    0x0(%esi),%esi
  105fd0:	f7 d8                	neg    %eax
  105fd2:	a3 9c 96 10 00       	mov    %eax,0x10969c
  105fd7:	eb e0                	jmp    105fb9 <lseek+0x59>
  105fd9:	b8 1d 00 00 00       	mov    $0x1d,%eax
  105fde:	a3 9c 96 10 00       	mov    %eax,0x10969c
  105fe3:	b8 ff ff ff ff       	mov    $0xffffffff,%eax
  105fe8:	eb d2                	jmp    105fbc <lseek+0x5c>
  105fea:	8d b6 00 00 00 00    	lea    0x0(%esi),%esi
  105ff0:	8b 4d 0c             	mov    0xc(%ebp),%ecx
  105ff3:	01 4d cc             	add    %ecx,0xffffffcc(%ebp)
  105ff6:	eb b1                	jmp    105fa9 <lseek+0x49>
  105ff8:	8b 55 0c             	mov    0xc(%ebp),%edx
  105ffb:	89 55 cc             	mov    %edx,0xffffffcc(%ebp)
  105ffe:	eb a9                	jmp    105fa9 <lseek+0x49>
  106000:	f7 d8                	neg    %eax
  106002:	eb da                	jmp    105fde <lseek+0x7e>

00106004 <syscall_send_message>:
  106004:	55                   	push   %ebp
  106005:	56                   	push   %esi
  106006:	57                   	push   %edi
  106007:	53                   	push   %ebx
  106008:	50                   	push   %eax
  106009:	51                   	push   %ecx
  10600a:	8b 5c 24 1c          	mov    0x1c(%esp),%ebx
  10600e:	53                   	push   %ebx
  10600f:	8b 5c 24 24          	mov    0x24(%esp),%ebx
  106013:	8b 7b 00             	mov    0x0(%ebx),%edi
  106016:	8b 73 04             	mov    0x4(%ebx),%esi
  106019:	8b 6b 08             	mov    0x8(%ebx),%ebp
  10601c:	8b 53 14             	mov    0x14(%ebx),%edx
  10601f:	8b 4b 18             	mov    0x18(%ebx),%ecx
  106022:	31 c0                	xor    %eax,%eax
  106024:	66 8b 43 1e          	mov    0x1e(%ebx),%ax
  106028:	5b                   	pop    %ebx
  106029:	c1 e0 10             	shl    $0x10,%eax
  10602c:	83 c8 1f             	or     $0x1f,%eax
  10602f:	cd 30                	int    $0x30
  106031:	50                   	push   %eax
  106032:	8b 44 24 24          	mov    0x24(%esp),%eax
  106036:	89 78 00             	mov    %edi,0x0(%eax)
  106039:	89 70 04             	mov    %esi,0x4(%eax)
  10603c:	89 68 08             	mov    %ebp,0x8(%eax)
  10603f:	89 58 10             	mov    %ebx,0x10(%eax)
  106042:	89 50 14             	mov    %edx,0x14(%eax)
  106045:	89 48 18             	mov    %ecx,0x18(%eax)
  106048:	89 c1                	mov    %eax,%ecx
  10604a:	58                   	pop    %eax
  10604b:	66 89 41 1e          	mov    %ax,0x1e(%ecx)
  10604f:	59                   	pop    %ecx
  106050:	83 c4 04             	add    $0x4,%esp
  106053:	5b                   	pop    %ebx
  106054:	5f                   	pop    %edi
  106055:	5e                   	pop    %esi
  106056:	5d                   	pop    %ebp
  106057:	c3                   	ret    

00106058 <syscall_receive_message>:
  106058:	55                   	push   %ebp
  106059:	56                   	push   %esi
  10605a:	57                   	push   %edi
  10605b:	53                   	push   %ebx
  10605c:	50                   	push   %eax
  10605d:	51                   	push   %ecx
  10605e:	8b 5c 24 1c          	mov    0x1c(%esp),%ebx
  106062:	53                   	push   %ebx
  106063:	8b 5c 24 24          	mov    0x24(%esp),%ebx
  106067:	8b 7b 00             	mov    0x0(%ebx),%edi
  10606a:	8b 73 04             	mov    0x4(%ebx),%esi
  10606d:	8b 6b 08             	mov    0x8(%ebx),%ebp
  106070:	8b 53 14             	mov    0x14(%ebx),%edx
  106073:	8b 4b 18             	mov    0x18(%ebx),%ecx
  106076:	31 c0                	xor    %eax,%eax
  106078:	66 8b 43 1e          	mov    0x1e(%ebx),%ax
  10607c:	5b                   	pop    %ebx
  10607d:	c1 e0 10             	shl    $0x10,%eax
  106080:	83 c8 20             	or     $0x20,%eax
  106083:	cd 30                	int    $0x30
  106085:	50                   	push   %eax
  106086:	8b 44 24 24          	mov    0x24(%esp),%eax
  10608a:	89 78 00             	mov    %edi,0x0(%eax)
  10608d:	89 70 04             	mov    %esi,0x4(%eax)
  106090:	89 68 08             	mov    %ebp,0x8(%eax)
  106093:	89 58 10             	mov    %ebx,0x10(%eax)
  106096:	89 50 14             	mov    %edx,0x14(%eax)
  106099:	89 48 18             	mov    %ecx,0x18(%eax)
  10609c:	89 c1                	mov    %eax,%ecx
  10609e:	58                   	pop    %eax
  10609f:	66 89 41 1e          	mov    %ax,0x1e(%ecx)
  1060a3:	59                   	pop    %ecx
  1060a4:	83 c4 04             	add    $0x4,%esp
  1060a7:	5b                   	pop    %ebx
  1060a8:	5f                   	pop    %edi
  1060a9:	5e                   	pop    %esi
  1060aa:	5d                   	pop    %ebp
  1060ab:	c3                   	ret    

001060ac <syscall_reply_message>:
  1060ac:	55                   	push   %ebp
  1060ad:	56                   	push   %esi
  1060ae:	57                   	push   %edi
  1060af:	53                   	push   %ebx
  1060b0:	50                   	push   %eax
  1060b1:	51                   	push   %ecx
  1060b2:	8b 5c 24 1c          	mov    0x1c(%esp),%ebx
  1060b6:	53                   	push   %ebx
  1060b7:	8b 5c 24 24          	mov    0x24(%esp),%ebx
  1060bb:	8b 7b 00             	mov    0x0(%ebx),%edi
  1060be:	8b 73 04             	mov    0x4(%ebx),%esi
  1060c1:	8b 6b 08             	mov    0x8(%ebx),%ebp
  1060c4:	8b 53 14             	mov    0x14(%ebx),%edx
  1060c7:	8b 4b 18             	mov    0x18(%ebx),%ecx
  1060ca:	31 c0                	xor    %eax,%eax
  1060cc:	66 8b 43 1e          	mov    0x1e(%ebx),%ax
  1060d0:	5b                   	pop    %ebx
  1060d1:	c1 e0 10             	shl    $0x10,%eax
  1060d4:	83 c8 21             	or     $0x21,%eax
  1060d7:	cd 30                	int    $0x30
  1060d9:	50                   	push   %eax
  1060da:	8b 44 24 24          	mov    0x24(%esp),%eax
  1060de:	89 78 00             	mov    %edi,0x0(%eax)
  1060e1:	89 70 04             	mov    %esi,0x4(%eax)
  1060e4:	89 68 08             	mov    %ebp,0x8(%eax)
  1060e7:	89 58 10             	mov    %ebx,0x10(%eax)
  1060ea:	89 50 14             	mov    %edx,0x14(%eax)
  1060ed:	89 48 18             	mov    %ecx,0x18(%eax)
  1060f0:	89 c1                	mov    %eax,%ecx
  1060f2:	58                   	pop    %eax
  1060f3:	66 89 41 1e          	mov    %ax,0x1e(%ecx)
  1060f7:	59                   	pop    %ecx
  1060f8:	83 c4 04             	add    $0x4,%esp
  1060fb:	5b                   	pop    %ebx
  1060fc:	5f                   	pop    %edi
  1060fd:	5e                   	pop    %esi
  1060fe:	5d                   	pop    %ebp
  1060ff:	c3                   	ret    
  106100:	c3                   	ret    
	...

00106110 <sched_get_priority_max>:
  106110:	55                   	push   %ebp
  106111:	89 e5                	mov    %esp,%ebp
  106113:	8b 55 08             	mov    0x8(%ebp),%edx
  106116:	83 fa 01             	cmp    $0x1,%edx
  106119:	7c 14                	jl     10612f <sched_get_priority_max+0x1f>
  10611b:	83 fa 02             	cmp    $0x2,%edx
  10611e:	b8 7f 00 00 00       	mov    $0x7f,%eax
  106123:	7e 19                	jle    10613e <sched_get_priority_max+0x2e>
  106125:	83 fa 04             	cmp    $0x4,%edx
  106128:	b8 2d 00 00 00       	mov    $0x2d,%eax
  10612d:	74 0f                	je     10613e <sched_get_priority_max+0x2e>
  10612f:	b8 1d 00 00 00       	mov    $0x1d,%eax
  106134:	a3 9c 96 10 00       	mov    %eax,0x10969c
  106139:	b8 ff ff ff ff       	mov    $0xffffffff,%eax
  10613e:	5d                   	pop    %ebp
  10613f:	c3                   	ret    

00106140 <sched_get_priority_min>:
  106140:	55                   	push   %ebp
  106141:	89 e5                	mov    %esp,%ebp
  106143:	8b 55 08             	mov    0x8(%ebp),%edx
  106146:	83 fa 01             	cmp    $0x1,%edx
  106149:	7c 14                	jl     10615f <sched_get_priority_min+0x1f>
  10614b:	83 fa 02             	cmp    $0x2,%edx
  10614e:	b8 58 00 00 00       	mov    $0x58,%eax
  106153:	7e 1a                	jle    10616f <sched_get_priority_min+0x2f>
  106155:	83 fa 04             	cmp    $0x4,%edx
  106158:	b8 04 00 00 00       	mov    $0x4,%eax
  10615d:	74 10                	je     10616f <sched_get_priority_min+0x2f>
  10615f:	ba 1d 00 00 00       	mov    $0x1d,%edx
  106164:	b8 ff ff ff ff       	mov    $0xffffffff,%eax
  106169:	89 15 9c 96 10 00    	mov    %edx,0x10969c
  10616f:	5d                   	pop    %ebp
  106170:	c3                   	ret    
  106171:	eb 0d                	jmp    106180 <sched_getparam>
  106173:	90                   	nop    
  106174:	90                   	nop    
  106175:	90                   	nop    
  106176:	90                   	nop    
  106177:	90                   	nop    
  106178:	90                   	nop    
  106179:	90                   	nop    
  10617a:	90                   	nop    
  10617b:	90                   	nop    
  10617c:	90                   	nop    
  10617d:	90                   	nop    
  10617e:	90                   	nop    
  10617f:	90                   	nop    

00106180 <sched_getparam>:
  106180:	55                   	push   %ebp
  106181:	ba 02 00 00 00       	mov    $0x2,%edx
  106186:	89 e5                	mov    %esp,%ebp
  106188:	53                   	push   %ebx
  106189:	8b 4d 0c             	mov    0xc(%ebp),%ecx
  10618c:	b8 10 00 00 00       	mov    $0x10,%eax
  106191:	8b 5d 08             	mov    0x8(%ebp),%ebx
  106194:	cd 30                	int    $0x30
  106196:	85 c0                	test   %eax,%eax
  106198:	89 c2                	mov    %eax,%edx
  10619a:	78 05                	js     1061a1 <sched_getparam+0x21>
  10619c:	5b                   	pop    %ebx
  10619d:	89 d0                	mov    %edx,%eax
  10619f:	5d                   	pop    %ebp
  1061a0:	c3                   	ret    
  1061a1:	f7 d8                	neg    %eax
  1061a3:	ba ff ff ff ff       	mov    $0xffffffff,%edx
  1061a8:	a3 9c 96 10 00       	mov    %eax,0x10969c
  1061ad:	eb ed                	jmp    10619c <sched_getparam+0x1c>
  1061af:	90                   	nop    

001061b0 <sched_getscheduler>:
  1061b0:	55                   	push   %ebp
  1061b1:	31 c9                	xor    %ecx,%ecx
  1061b3:	89 e5                	mov    %esp,%ebp
  1061b5:	53                   	push   %ebx
  1061b6:	ba 02 00 00 00       	mov    $0x2,%edx
  1061bb:	8b 5d 08             	mov    0x8(%ebp),%ebx
  1061be:	b8 10 00 00 00       	mov    $0x10,%eax
  1061c3:	cd 30                	int    $0x30
  1061c5:	85 c0                	test   %eax,%eax
  1061c7:	89 c2                	mov    %eax,%edx
  1061c9:	78 05                	js     1061d0 <sched_getscheduler+0x20>
  1061cb:	5b                   	pop    %ebx
  1061cc:	89 d0                	mov    %edx,%eax
  1061ce:	5d                   	pop    %ebp
  1061cf:	c3                   	ret    
  1061d0:	f7 d8                	neg    %eax
  1061d2:	ba ff ff ff ff       	mov    $0xffffffff,%edx
  1061d7:	a3 9c 96 10 00       	mov    %eax,0x10969c
  1061dc:	eb ed                	jmp    1061cb <sched_getscheduler+0x1b>
  1061de:	89 f6                	mov    %esi,%esi

001061e0 <sched_setparam>:
  1061e0:	55                   	push   %ebp
  1061e1:	31 c9                	xor    %ecx,%ecx
  1061e3:	89 e5                	mov    %esp,%ebp
  1061e5:	83 ec 08             	sub    $0x8,%esp
  1061e8:	b8 11 00 00 00       	mov    $0x11,%eax
  1061ed:	8b 55 0c             	mov    0xc(%ebp),%edx
  1061f0:	89 1c 24             	mov    %ebx,(%esp)
  1061f3:	8b 5d 08             	mov    0x8(%ebp),%ebx
  1061f6:	89 7c 24 04          	mov    %edi,0x4(%esp)
  1061fa:	bf 02 00 00 00       	mov    $0x2,%edi
  1061ff:	cd 30                	int    $0x30
  106201:	85 c0                	test   %eax,%eax
  106203:	89 c2                	mov    %eax,%edx
  106205:	78 0d                	js     106214 <sched_setparam+0x34>
  106207:	8b 1c 24             	mov    (%esp),%ebx
  10620a:	89 d0                	mov    %edx,%eax
  10620c:	8b 7c 24 04          	mov    0x4(%esp),%edi
  106210:	89 ec                	mov    %ebp,%esp
  106212:	5d                   	pop    %ebp
  106213:	c3                   	ret    
  106214:	f7 d8                	neg    %eax
  106216:	ba ff ff ff ff       	mov    $0xffffffff,%edx
  10621b:	a3 9c 96 10 00       	mov    %eax,0x10969c
  106220:	eb e5                	jmp    106207 <sched_setparam+0x27>
  106222:	8d b4 26 00 00 00 00 	lea    0x0(%esi),%esi
  106229:	8d bc 27 00 00 00 00 	lea    0x0(%edi),%edi

00106230 <sched_yield>:
  106230:	55                   	push   %ebp
  106231:	b8 12 00 00 00       	mov    $0x12,%eax
  106236:	89 e5                	mov    %esp,%ebp
  106238:	cd 30                	int    $0x30
  10623a:	5d                   	pop    %ebp
  10623b:	c3                   	ret    
  10623c:	8d 74 26 00          	lea    0x0(%esi),%esi

00106240 <sched_setscheduler>:
  106240:	55                   	push   %ebp
  106241:	b8 11 00 00 00       	mov    $0x11,%eax
  106246:	89 e5                	mov    %esp,%ebp
  106248:	83 ec 08             	sub    $0x8,%esp
  10624b:	8b 4d 0c             	mov    0xc(%ebp),%ecx
  10624e:	89 1c 24             	mov    %ebx,(%esp)
  106251:	8b 55 10             	mov    0x10(%ebp),%edx
  106254:	89 7c 24 04          	mov    %edi,0x4(%esp)
  106258:	8b 5d 08             	mov    0x8(%ebp),%ebx
  10625b:	bf 02 00 00 00       	mov    $0x2,%edi
  106260:	cd 30                	int    $0x30
  106262:	85 c0                	test   %eax,%eax
  106264:	89 c2                	mov    %eax,%edx
  106266:	78 0d                	js     106275 <sched_setscheduler+0x35>
  106268:	8b 1c 24             	mov    (%esp),%ebx
  10626b:	89 d0                	mov    %edx,%eax
  10626d:	8b 7c 24 04          	mov    0x4(%esp),%edi
  106271:	89 ec                	mov    %ebp,%esp
  106273:	5d                   	pop    %ebp
  106274:	c3                   	ret    
  106275:	f7 d8                	neg    %eax
  106277:	ba ff ff ff ff       	mov    $0xffffffff,%edx
  10627c:	a3 9c 96 10 00       	mov    %eax,0x10969c
  106281:	eb e5                	jmp    106268 <sched_setscheduler+0x28>
	...

00106290 <fd_alloc>:
  106290:	55                   	push   %ebp
  106291:	31 d2                	xor    %edx,%edx
  106293:	89 e5                	mov    %esp,%ebp
  106295:	53                   	push   %ebx
  106296:	b9 ff ff ff ff       	mov    $0xffffffff,%ecx
  10629b:	8b 5d 08             	mov    0x8(%ebp),%ebx
  10629e:	b8 2b 00 00 00       	mov    $0x2b,%eax
  1062a3:	cd 30                	int    $0x30
  1062a5:	85 c0                	test   %eax,%eax
  1062a7:	89 c2                	mov    %eax,%edx
  1062a9:	78 05                	js     1062b0 <fd_alloc+0x20>
  1062ab:	5b                   	pop    %ebx
  1062ac:	89 d0                	mov    %edx,%eax
  1062ae:	5d                   	pop    %ebp
  1062af:	c3                   	ret    
  1062b0:	f7 d8                	neg    %eax
  1062b2:	ba ff ff ff ff       	mov    $0xffffffff,%edx
  1062b7:	a3 9c 96 10 00       	mov    %eax,0x10969c
  1062bc:	eb ed                	jmp    1062ab <fd_alloc+0x1b>
  1062be:	89 f6                	mov    %esi,%esi

001062c0 <fd_free>:
  1062c0:	55                   	push   %ebp
  1062c1:	31 d2                	xor    %edx,%edx
  1062c3:	89 e5                	mov    %esp,%ebp
  1062c5:	53                   	push   %ebx
  1062c6:	8b 4d 0c             	mov    0xc(%ebp),%ecx
  1062c9:	b8 2c 00 00 00       	mov    $0x2c,%eax
  1062ce:	8b 5d 08             	mov    0x8(%ebp),%ebx
  1062d1:	cd 30                	int    $0x30
  1062d3:	85 c0                	test   %eax,%eax
  1062d5:	89 c2                	mov    %eax,%edx
  1062d7:	78 07                	js     1062e0 <fd_free+0x20>
  1062d9:	5b                   	pop    %ebx
  1062da:	89 d0                	mov    %edx,%eax
  1062dc:	5d                   	pop    %ebp
  1062dd:	c3                   	ret    
  1062de:	89 f6                	mov    %esi,%esi
  1062e0:	f7 d8                	neg    %eax
  1062e2:	ba ff ff ff ff       	mov    $0xffffffff,%edx
  1062e7:	a3 9c 96 10 00       	mov    %eax,0x10969c
  1062ec:	eb eb                	jmp    1062d9 <fd_free+0x19>
  1062ee:	89 f6                	mov    %esi,%esi

001062f0 <get_openfile>:
  1062f0:	55                   	push   %ebp
  1062f1:	b8 2c 00 00 00       	mov    $0x2c,%eax
  1062f6:	89 e5                	mov    %esp,%ebp
  1062f8:	53                   	push   %ebx
  1062f9:	8b 55 10             	mov    0x10(%ebp),%edx
  1062fc:	8b 5d 08             	mov    0x8(%ebp),%ebx
  1062ff:	8b 4d 0c             	mov    0xc(%ebp),%ecx
  106302:	cd 30                	int    $0x30
  106304:	85 c0                	test   %eax,%eax
  106306:	89 c2                	mov    %eax,%edx
  106308:	78 06                	js     106310 <get_openfile+0x20>
  10630a:	5b                   	pop    %ebx
  10630b:	89 d0                	mov    %edx,%eax
  10630d:	5d                   	pop    %ebp
  10630e:	c3                   	ret    
  10630f:	90                   	nop    
  106310:	f7 d8                	neg    %eax
  106312:	ba ff ff ff ff       	mov    $0xffffffff,%edx
  106317:	a3 9c 96 10 00       	mov    %eax,0x10969c
  10631c:	eb ec                	jmp    10630a <get_openfile+0x1a>
Disassembly of section .rodata:

00107000 <.rodata>:
  107000:	47                   	inc    %edi
  107001:	32 10                	xor    (%eax),%dl
  107003:	00 4f 32             	add    %cl,0x32(%edi)
  107006:	10 00                	adc    %al,(%eax)
  107008:	57                   	push   %edi
  107009:	32 10                	xor    (%eax),%dl
  10700b:	00 69 32             	add    %ch,0x32(%ecx)
  10700e:	10 00                	adc    %al,(%eax)
  107010:	3a 32                	cmp    (%edx),%dh
  107012:	10 00                	adc    %al,(%eax)
  107014:	a7                   	cmpsl  %es:(%edi),%ds:(%esi)
  107015:	44                   	inc    %esp
  107016:	10 00                	adc    %al,(%eax)
  107018:	d4 44                	aam    $0x44
  10701a:	10 00                	adc    %al,(%eax)
  10701c:	d4 44                	aam    $0x44
  10701e:	10 00                	adc    %al,(%eax)
  107020:	b3 44                	mov    $0x44,%bl
  107022:	10 00                	adc    %al,(%eax)
  107024:	d4 44                	aam    $0x44
  107026:	10 00                	adc    %al,(%eax)
  107028:	d4 44                	aam    $0x44
  10702a:	10 00                	adc    %al,(%eax)
  10702c:	d4 44                	aam    $0x44
  10702e:	10 00                	adc    %al,(%eax)
  107030:	d4 44                	aam    $0x44
  107032:	10 00                	adc    %al,(%eax)
  107034:	d4 44                	aam    $0x44
  107036:	10 00                	adc    %al,(%eax)
  107038:	d4 44                	aam    $0x44
  10703a:	10 00                	adc    %al,(%eax)
  10703c:	d4 44                	aam    $0x44
  10703e:	10 00                	adc    %al,(%eax)
  107040:	bf 44 10 00 d4       	mov    $0xd4001044,%edi
  107045:	44                   	inc    %esp
  107046:	10 00                	adc    %al,(%eax)
  107048:	16                   	push   %ss
  107049:	3a 10                	cmp    (%eax),%dl
  10704b:	00 d4                	add    %dl,%ah
  10704d:	44                   	inc    %esp
  10704e:	10 00                	adc    %al,(%eax)
  107050:	d4 44                	aam    $0x44
  107052:	10 00                	adc    %al,(%eax)
  107054:	db 44 10 00          	fildl  0x0(%eax,%edx,1)
  107058:	f0 3d 10 00 a0 43    	lock cmp $0x43a00010,%eax
  10705e:	10 00                	adc    %al,(%eax)
  107060:	a0 43 10 00 a0       	mov    0xa0001043,%al
  107065:	43                   	inc    %ebx
  107066:	10 00                	adc    %al,(%eax)
  107068:	a0 43 10 00 a0       	mov    0xa0001043,%al
  10706d:	43                   	inc    %ebx
  10706e:	10 00                	adc    %al,(%eax)
  107070:	a0 43 10 00 a0       	mov    0xa0001043,%al
  107075:	43                   	inc    %ebx
  107076:	10 00                	adc    %al,(%eax)
  107078:	a0 43 10 00 a0       	mov    0xa0001043,%al
  10707d:	43                   	inc    %ebx
  10707e:	10 00                	adc    %al,(%eax)
  107080:	a0 43 10 00 a0       	mov    0xa0001043,%al
  107085:	43                   	inc    %ebx
  107086:	10 00                	adc    %al,(%eax)
  107088:	a0 43 10 00 a0       	mov    0xa0001043,%al
  10708d:	43                   	inc    %ebx
  10708e:	10 00                	adc    %al,(%eax)
  107090:	a0 43 10 00 a0       	mov    0xa0001043,%al
  107095:	43                   	inc    %ebx
  107096:	10 00                	adc    %al,(%eax)
  107098:	a0 43 10 00 a0       	mov    0xa0001043,%al
  10709d:	43                   	inc    %ebx
  10709e:	10 00                	adc    %al,(%eax)
  1070a0:	a0 43 10 00 a0       	mov    0xa0001043,%al
  1070a5:	43                   	inc    %ebx
  1070a6:	10 00                	adc    %al,(%eax)
  1070a8:	a0 43 10 00 a0       	mov    0xa0001043,%al
  1070ad:	43                   	inc    %ebx
  1070ae:	10 00                	adc    %al,(%eax)
  1070b0:	a0 43 10 00 a0       	mov    0xa0001043,%al
  1070b5:	43                   	inc    %ebx
  1070b6:	10 00                	adc    %al,(%eax)
  1070b8:	a0 43 10 00 a0       	mov    0xa0001043,%al
  1070bd:	43                   	inc    %ebx
  1070be:	10 00                	adc    %al,(%eax)
  1070c0:	a0 43 10 00 a0       	mov    0xa0001043,%al
  1070c5:	43                   	inc    %ebx
  1070c6:	10 00                	adc    %al,(%eax)
  1070c8:	a0 43 10 00 a0       	mov    0xa0001043,%al
  1070cd:	43                   	inc    %ebx
  1070ce:	10 00                	adc    %al,(%eax)
  1070d0:	a0 43 10 00 a0       	mov    0xa0001043,%al
  1070d5:	43                   	inc    %ebx
  1070d6:	10 00                	adc    %al,(%eax)
  1070d8:	a0 43 10 00 a0       	mov    0xa0001043,%al
  1070dd:	43                   	inc    %ebx
  1070de:	10 00                	adc    %al,(%eax)
  1070e0:	a0 43 10 00 a0       	mov    0xa0001043,%al
  1070e5:	43                   	inc    %ebx
  1070e6:	10 00                	adc    %al,(%eax)
  1070e8:	a0 43 10 00 a0       	mov    0xa0001043,%al
  1070ed:	43                   	inc    %ebx
  1070ee:	10 00                	adc    %al,(%eax)
  1070f0:	a0 43 10 00 a0       	mov    0xa0001043,%al
  1070f5:	43                   	inc    %ebx
  1070f6:	10 00                	adc    %al,(%eax)
  1070f8:	a0 43 10 00 a0       	mov    0xa0001043,%al
  1070fd:	43                   	inc    %ebx
  1070fe:	10 00                	adc    %al,(%eax)
  107100:	a0 43 10 00 a0       	mov    0xa0001043,%al
  107105:	43                   	inc    %ebx
  107106:	10 00                	adc    %al,(%eax)
  107108:	a0 43 10 00 a0       	mov    0xa0001043,%al
  10710d:	43                   	inc    %ebx
  10710e:	10 00                	adc    %al,(%eax)
  107110:	a0 43 10 00 a0       	mov    0xa0001043,%al
  107115:	43                   	inc    %ebx
  107116:	10 00                	adc    %al,(%eax)
  107118:	a0 43 10 00 a0       	mov    0xa0001043,%al
  10711d:	43                   	inc    %ebx
  10711e:	10 00                	adc    %al,(%eax)
  107120:	a0 43 10 00 04       	mov    0x4001043,%al
  107125:	3e 10 00             	adc    %al,%ds:(%eax)
  107128:	a0 43 10 00 a0       	mov    0xa0001043,%al
  10712d:	43                   	inc    %ebx
  10712e:	10 00                	adc    %al,(%eax)
  107130:	a0 43 10 00 a0       	mov    0xa0001043,%al
  107135:	43                   	inc    %ebx
  107136:	10 00                	adc    %al,(%eax)
  107138:	a0 43 10 00 a0       	mov    0xa0001043,%al
  10713d:	43                   	inc    %ebx
  10713e:	10 00                	adc    %al,(%eax)
  107140:	a0 43 10 00 a0       	mov    0xa0001043,%al
  107145:	43                   	inc    %ebx
  107146:	10 00                	adc    %al,(%eax)
  107148:	a0 43 10 00 04       	mov    0x4001043,%al
  10714d:	3b 10                	cmp    (%eax),%edx
  10714f:	00 3e                	add    %bh,(%esi)
  107151:	3e 10 00             	adc    %al,%ds:(%eax)
  107154:	fc                   	cld    
  107155:	40                   	inc    %eax
  107156:	10 00                	adc    %al,(%eax)
  107158:	a0 43 10 00 59       	mov    0x59001043,%al
  10715d:	3e 10 00             	adc    %al,%ds:(%eax)
  107160:	a0 43 10 00 a0       	mov    0xa0001043,%al
  107165:	43                   	inc    %ebx
  107166:	10 00                	adc    %al,(%eax)
  107168:	fc                   	cld    
  107169:	40                   	inc    %eax
  10716a:	10 00                	adc    %al,(%eax)
  10716c:	a0 43 10 00 a0       	mov    0xa0001043,%al
  107171:	43                   	inc    %ebx
  107172:	10 00                	adc    %al,(%eax)
  107174:	a0 43 10 00 a0       	mov    0xa0001043,%al
  107179:	43                   	inc    %ebx
  10717a:	10 00                	adc    %al,(%eax)
  10717c:	36                   	ss
  10717d:	41                   	inc    %ecx
  10717e:	10 00                	adc    %al,(%eax)
  107180:	4d                   	dec    %ebp
  107181:	41                   	inc    %ecx
  107182:	10 00                	adc    %al,(%eax)
  107184:	81 41 10 00 a0 43 10 	addl   $0x1043a000,0x10(%ecx)
  10718b:	00 a0 43 10 00 d3    	add    %ah,0xd3001043(%eax)
  107191:	41                   	inc    %ecx
  107192:	10 00                	adc    %al,(%eax)
  107194:	a0 43 10 00 70       	mov    0x70001043,%al
  107199:	43                   	inc    %ebx
  10719a:	10 00                	adc    %al,(%eax)
  10719c:	a0 43 10 00 a0       	mov    0xa0001043,%al
  1071a1:	43                   	inc    %ebx
  1071a2:	10 00                	adc    %al,(%eax)
  1071a4:	a5                   	movsl  %ds:(%esi),%es:(%edi)
  1071a5:	41                   	inc    %ecx
  1071a6:	10 00                	adc    %al,(%eax)
Disassembly of section .rodata.str1.1:

001071a8 <.rodata.str1.1>:
  1071a8:	43                   	inc    %ebx
  1071a9:	6f                   	outsl  %ds:(%esi),(%dx)
  1071aa:	6e                   	outsb  %ds:(%esi),(%dx)
  1071ab:	73 6f                	jae    10721c <_text_end+0xefe>
  1071ad:	6c                   	insb   (%dx),%es:(%edi)
  1071ae:	65 20 4d 61          	and    %cl,%gs:0x61(%ebp)
  1071b2:	6e                   	outsb  %ds:(%esi),(%dx)
  1071b3:	61                   	popa   
  1071b4:	67                   	addr16
  1071b5:	65                   	gs
  1071b6:	72 3a                	jb     1071f2 <_text_end+0xed4>
  1071b8:	20 00                	and    %al,(%eax)
  1071ba:	45                   	inc    %ebp
  1071bb:	78 69                	js     107226 <_text_end+0xf08>
  1071bd:	74 69                	je     107228 <_text_end+0xf0a>
  1071bf:	6e                   	outsb  %ds:(%esi),(%dx)
  1071c0:	67 2e 2e 2e 0a 00    	addr16 or %cs:(%bx,%si),%al
  1071c6:	4f                   	dec    %edi
  1071c7:	48                   	dec    %eax
  1071c8:	20 73 65             	and    %dh,0x65(%ebx)
  1071cb:	72 69                	jb     107236 <_text_end+0xf18>
  1071cd:	6f                   	outsl  %ds:(%esi),(%dx)
  1071ce:	75 73                	jne    107243 <_text_end+0xf25>
  1071d0:	20 65 72             	and    %ah,0x72(%ebp)
  1071d3:	72 6f                	jb     107244 <_text_end+0xf26>
  1071d5:	72 2e                	jb     107205 <_text_end+0xee7>
  1071d7:	00 50 6f             	add    %dl,0x6f(%eax)
  1071da:	6f                   	outsl  %ds:(%esi),(%dx)
  1071db:	6c                   	insb   (%dx),%es:(%edi)
  1071dc:	20 46 61             	and    %al,0x61(%esi)
  1071df:	69 6c 65 64 00 4e 6f 	imul   $0x746f4e00,0x64(%ebp,2),%ebp
  1071e6:	74 
  1071e7:	20 45 6e             	and    %al,0x6e(%ebp)
  1071ea:	6f                   	outsl  %ds:(%esi),(%dx)
  1071eb:	75 67                	jne    107254 <_text_end+0xf36>
  1071ed:	68 20 4d 65 6d       	push   $0x6d654d20
  1071f2:	6f                   	outsl  %ds:(%esi),(%dx)
  1071f3:	72 79                	jb     10726e <_text_end+0xf50>
  1071f5:	2e 0a 00             	or     %cs:(%eax),%al
  1071f8:	41                   	inc    %ecx
  1071f9:	72 65                	jb     107260 <_text_end+0xf42>
  1071fb:	6e                   	outsb  %ds:(%esi),(%dx)
  1071fc:	61                   	popa   
  1071fd:	20 25 64 3a 0a 00    	and    %ah,0xa3a64
  107203:	73 79                	jae    10727e <_text_end+0xf60>
  107205:	73 74                	jae    10727b <_text_end+0xf5d>
  107207:	65                   	gs
  107208:	6d                   	insl   (%dx),%es:(%edi)
  107209:	20 62 79             	and    %ah,0x79(%edx)
  10720c:	74 65                	je     107273 <_text_end+0xf55>
  10720e:	73 20                	jae    107230 <_text_end+0xf12>
  107210:	20 20                	and    %ah,(%eax)
  107212:	20 20                	and    %ah,(%eax)
  107214:	3d 20 25 31 30       	cmp    $0x30312520,%eax
  107219:	75 0a                	jne    107225 <_text_end+0xf07>
  10721b:	00 69 6e             	add    %ch,0x6e(%ecx)
  10721e:	20 75 73             	and    %dh,0x73(%ebp)
  107221:	65 20 62 79          	and    %ah,%gs:0x79(%edx)
  107225:	74 65                	je     10728c <_text_end+0xf6e>
  107227:	73 20                	jae    107249 <_text_end+0xf2b>
  107229:	20 20                	and    %ah,(%eax)
  10722b:	20 20                	and    %ah,(%eax)
  10722d:	3d 20 25 31 30       	cmp    $0x30312520,%eax
  107232:	75 0a                	jne    10723e <_text_end+0xf20>
  107234:	00 54 6f 74          	add    %dl,0x74(%edi,%ebp,2)
  107238:	61                   	popa   
  107239:	6c                   	insb   (%dx),%es:(%edi)
  10723a:	20 28                	and    %ch,(%eax)
  10723c:	69 6e 63 6c 2e 20 6d 	imul   $0x6d202e6c,0x63(%esi),%ebp
  107243:	6d                   	insl   (%dx),%es:(%edi)
  107244:	61                   	popa   
  107245:	70 29                	jo     107270 <_text_end+0xf52>
  107247:	3a 0a                	cmp    (%edx),%cl
  107249:	00 6d 61             	add    %ch,0x61(%ebp)
  10724c:	78 20                	js     10726e <_text_end+0xf50>
  10724e:	6d                   	insl   (%dx),%es:(%edi)
  10724f:	6d                   	insl   (%dx),%es:(%edi)
  107250:	61                   	popa   
  107251:	70 20                	jo     107273 <_text_end+0xf55>
  107253:	72 65                	jb     1072ba <_text_end+0xf9c>
  107255:	67 69 6f 6e 73 20 3d 	addr16 imul $0x203d2073,110(%bx),%ebp
  10725c:	20 
  10725d:	25 31 30 75 0a       	and    $0xa753031,%eax
  107262:	00 6d 61             	add    %ch,0x61(%ebp)
  107265:	78 20                	js     107287 <_text_end+0xf69>
  107267:	6d                   	insl   (%dx),%es:(%edi)
  107268:	6d                   	insl   (%dx),%es:(%edi)
  107269:	61                   	popa   
  10726a:	70 20                	jo     10728c <_text_end+0xf6e>
  10726c:	62 79 74             	bound  %edi,0x74(%ecx)
  10726f:	65                   	gs
  107270:	73 20                	jae    107292 <_text_end+0xf74>
  107272:	20 20                	and    %ah,(%eax)
  107274:	3d 20 25 31 30       	cmp    $0x30312520,%eax
  107279:	6c                   	insb   (%dx),%es:(%edi)
  10727a:	75 0a                	jne    107286 <_text_end+0xf68>
  10727c:	00 30                	add    %dh,(%eax)
  10727e:	31 00                	xor    %eax,(%eax)
  107280:	30 78 00             	xor    %bh,0x0(%eax)
  107283:	30 31                	xor    %dh,(%ecx)
  107285:	32 33                	xor    (%ebx),%dh
  107287:	34 35                	xor    $0x35,%al
  107289:	36                   	ss
  10728a:	37                   	aaa    
  10728b:	38 39                	cmp    %bh,(%ecx)
  10728d:	41                   	inc    %ecx
  10728e:	42                   	inc    %edx
  10728f:	43                   	inc    %ebx
  107290:	44                   	inc    %esp
  107291:	45                   	inc    %ebp
  107292:	46                   	inc    %esi
  107293:	00 30                	add    %dh,(%eax)
  107295:	31 32                	xor    %esi,(%edx)
  107297:	33 34 35 36 37 38 39 	xor    0x39383736(,%esi,1),%esi
  10729e:	00 30                	add    %dh,(%eax)
  1072a0:	31 32                	xor    %esi,(%edx)
  1072a2:	33 34 35 36 37 38 00 	xor    0x383736(,%esi,1),%esi
  1072a9:	30 31                	xor    %dh,(%ecx)
  1072ab:	32 33                	xor    (%ebx),%dh
  1072ad:	34 35                	xor    $0x35,%al
  1072af:	36                   	ss
  1072b0:	37                   	aaa    
  1072b1:	38 39                	cmp    %bh,(%ecx)
  1072b3:	61                   	popa   
  1072b4:	62 63 64             	bound  %esp,0x64(%ebx)
  1072b7:	65                   	gs
  1072b8:	66                   	data16
  1072b9:	00 28                	add    %ch,(%eax)
  1072bb:	6e                   	outsb  %ds:(%esi),(%dx)
  1072bc:	75 6c                	jne    10732a <_text_end+0x100c>
  1072be:	6c                   	insb   (%dx),%es:(%edi)
  1072bf:	29 00                	sub    %eax,(%eax)
  1072c1:	28 6e 75             	sub    %ch,0x75(%esi)
  1072c4:	6c                   	insb   (%dx),%es:(%edi)
  1072c5:	6c                   	insb   (%dx),%es:(%edi)
  1072c6:	20 66 6d             	and    %ah,0x6d(%esi)
  1072c9:	74 20                	je     1072eb <_text_end+0xfcd>
  1072cb:	73 74                	jae    107341 <_text_end+0x1023>
  1072cd:	72 69                	jb     107338 <_text_end+0x101a>
  1072cf:	6e                   	outsb  %ds:(%esi),(%dx)
  1072d0:	67 29 00             	addr16 sub %eax,(%bx,%si)
Disassembly of section .rodata.str1.32:

001072e0 <.rodata.str1.32>:
  1072e0:	43                   	inc    %ebx
  1072e1:	4f                   	dec    %edi
  1072e2:	4e                   	dec    %esi
  1072e3:	4d                   	dec    %ebp
  1072e4:	4e                   	dec    %esi
  1072e5:	47                   	inc    %edi
  1072e6:	52                   	push   %edx
  1072e7:	3a 20                	cmp    (%eax),%ah
  1072e9:	49                   	dec    %ecx
  1072ea:	6e                   	outsb  %ds:(%esi),(%dx)
  1072eb:	69 74 69 61 6c 69 7a 	imul   $0x697a696c,0x61(%ecx,%ebp,2),%esi
  1072f2:	69 
  1072f3:	6e                   	outsb  %ds:(%esi),(%dx)
  1072f4:	67 20 43 6f          	addr16 and %al,111(%bp,%di)
  1072f8:	6e                   	outsb  %ds:(%esi),(%dx)
  1072f9:	73 6f                	jae    10736a <_text_end+0x104c>
  1072fb:	6c                   	insb   (%dx),%es:(%edi)
  1072fc:	65 20 4d 61          	and    %cl,%gs:0x61(%ebp)
  107300:	6e                   	outsb  %ds:(%esi),(%dx)
  107301:	61                   	popa   
  107302:	67                   	addr16
  107303:	65                   	gs
  107304:	72 3a                	jb     107340 <_text_end+0x1022>
  107306:	20 0a                	and    %cl,(%edx)
	...
Disassembly of section .rodata.cst4:

0010730c <.rodata.cst4>:
  10730c:	00 00                	add    %al,(%eax)
  10730e:	20                   	.byte 0x20
  10730f:	41                   	inc    %ecx
Disassembly of section .data:

00108000 <ntty>:
  108000:	05 00 00 00 00       	add    $0x0,%eax
	...

00108020 <con_func>:
  108020:	50                   	push   %eax
  108021:	04 10                	add    $0x10,%al
  108023:	00 60 01             	add    %ah,0x1(%eax)
  108026:	10 00                	adc    %al,(%eax)
  108028:	e0 01                	loopne 10802b <con_func+0xb>
  10802a:	10 00                	adc    %al,(%eax)
  10802c:	60                   	pusha  
  10802d:	02 10                	add    (%eax),%dl
  10802f:	00 50 04             	add    %dl,0x4(%eax)
  108032:	10 00                	adc    %al,(%eax)
  108034:	70 04                	jo     10803a <con_func+0x1a>
  108036:	10 00                	adc    %al,(%eax)
  108038:	c0 04 10 00          	rolb   $0x0,(%eax,%edx,1)
  10803c:	20 05 10 00 60 05    	and    %al,0x5600010
  108042:	10 00                	adc    %al,(%eax)
	...

00108060 <table_code1>:
  108060:	1b 31                	sbb    (%ecx),%esi
  108062:	32 33                	xor    (%ebx),%dh
  108064:	34 35                	xor    $0x35,%al
  108066:	36                   	ss
  108067:	37                   	aaa    
  108068:	38 39                	cmp    %bh,(%ecx)
  10806a:	30 2d 3d 00 00 71    	xor    %ch,0x7100003d
  108070:	77 65                	ja     1080d7 <table_code1+0x77>
  108072:	72 74                	jb     1080e8 <table_code1+0x88>
  108074:	79 75                	jns    1080eb <table_code1+0x8b>
  108076:	69 6f 70 5b 5d 0a 00 	imul   $0xa5d5b,0x70(%edi),%ebp
  10807d:	61                   	popa   
  10807e:	73 64                	jae    1080e4 <table_code1+0x84>
  108080:	66 67 68 6a 6b       	addr16 pushw $0x6b6a
  108085:	6c                   	insb   (%dx),%es:(%edi)
  108086:	3b 27                	cmp    (%edi),%esp
  108088:	60                   	pusha  
  108089:	00 00                	add    %al,(%eax)
  10808b:	7a 78                	jp     108105 <table_code1+0xa5>
  10808d:	63 76 62             	arpl   %si,0x62(%esi)
  108090:	6e                   	outsb  %ds:(%esi),(%dx)
  108091:	6d                   	insl   (%dx),%es:(%edi)
  108092:	2c 2e                	sub    $0x2e,%al
  108094:	2f                   	das    
  108095:	00 2a                	add    %ch,(%edx)
  108097:	00 20                	add    %ah,(%eax)
	...
  1080dd:	00 00                	add    %al,(%eax)
  1080df:	00 1b                	add    %bl,(%ebx)
  1080e1:	21 40 23             	and    %eax,0x23(%eax)
  1080e4:	24 25                	and    $0x25,%al
  1080e6:	5e                   	pop    %esi
  1080e7:	26 2a 28             	sub    %es:(%eax),%ch
  1080ea:	29 5f 2b             	sub    %ebx,0x2b(%edi)
  1080ed:	00 00                	add    %al,(%eax)
  1080ef:	51                   	push   %ecx
  1080f0:	57                   	push   %edi
  1080f1:	45                   	inc    %ebp
  1080f2:	52                   	push   %edx
  1080f3:	54                   	push   %esp
  1080f4:	59                   	pop    %ecx
  1080f5:	55                   	push   %ebp
  1080f6:	49                   	dec    %ecx
  1080f7:	4f                   	dec    %edi
  1080f8:	50                   	push   %eax
  1080f9:	7b 7d                	jnp    108178 <table_code1+0x118>
  1080fb:	00 00                	add    %al,(%eax)
  1080fd:	41                   	inc    %ecx
  1080fe:	53                   	push   %ebx
  1080ff:	44                   	inc    %esp
  108100:	46                   	inc    %esi
  108101:	47                   	inc    %edi
  108102:	48                   	dec    %eax
  108103:	4a                   	dec    %edx
  108104:	4b                   	dec    %ebx
  108105:	4c                   	dec    %esp
  108106:	3a 7c 22 00          	cmp    0x0(%edx),%bh
  10810a:	00 5a 58             	add    %bl,0x58(%edx)
  10810d:	43                   	inc    %ebx
  10810e:	56                   	push   %esi
  10810f:	42                   	inc    %edx
  108110:	4e                   	dec    %esi
  108111:	4d                   	dec    %ebp
  108112:	3c 3e                	cmp    $0x3e,%al
  108114:	3f                   	aas    
	...
  108125:	00 37                	add    %dh,(%edi)
  108127:	38 39                	cmp    %bh,(%ecx)
  108129:	2d 34 35 36 2b       	sub    $0x2b363534,%eax
  10812e:	31 32                	xor    %esi,(%edx)
  108130:	33 30                	xor    (%eax),%esi
  108132:	2e 00 00             	add    %al,%cs:(%eax)
	...

00108180 <_ctype>:
  108180:	01 01                	add    %eax,(%ecx)
  108182:	01 01                	add    %eax,(%ecx)
  108184:	01 01                	add    %eax,(%ecx)
  108186:	01 01                	add    %eax,(%ecx)
  108188:	01 11                	add    %edx,(%ecx)
  10818a:	11 11                	adc    %edx,(%ecx)
  10818c:	11 11                	adc    %edx,(%ecx)
  10818e:	01 01                	add    %eax,(%ecx)
  108190:	01 01                	add    %eax,(%ecx)
  108192:	01 01                	add    %eax,(%ecx)
  108194:	01 01                	add    %eax,(%ecx)
  108196:	01 01                	add    %eax,(%ecx)
  108198:	01 01                	add    %eax,(%ecx)
  10819a:	01 01                	add    %eax,(%ecx)
  10819c:	01 01                	add    %eax,(%ecx)
  10819e:	01 01                	add    %eax,(%ecx)
  1081a0:	30 08                	xor    %cl,(%eax)
  1081a2:	08 08                	or     %cl,(%eax)
  1081a4:	08 08                	or     %cl,(%eax)
  1081a6:	08 08                	or     %cl,(%eax)
  1081a8:	08 08                	or     %cl,(%eax)
  1081aa:	08 08                	or     %cl,(%eax)
  1081ac:	08 08                	or     %cl,(%eax)
  1081ae:	08 08                	or     %cl,(%eax)
  1081b0:	02 02                	add    (%edx),%al
  1081b2:	02 02                	add    (%edx),%al
  1081b4:	02 02                	add    (%edx),%al
  1081b6:	02 02                	add    (%edx),%al
  1081b8:	02 02                	add    (%edx),%al
  1081ba:	08 08                	or     %cl,(%eax)
  1081bc:	08 08                	or     %cl,(%eax)
  1081be:	08 08                	or     %cl,(%eax)
  1081c0:	08 c0                	or     %al,%al
  1081c2:	c0 c0 c0             	rol    $0xc0,%al
  1081c5:	c0 c0 40             	rol    $0x40,%al
  1081c8:	40                   	inc    %eax
  1081c9:	40                   	inc    %eax
  1081ca:	40                   	inc    %eax
  1081cb:	40                   	inc    %eax
  1081cc:	40                   	inc    %eax
  1081cd:	40                   	inc    %eax
  1081ce:	40                   	inc    %eax
  1081cf:	40                   	inc    %eax
  1081d0:	40                   	inc    %eax
  1081d1:	40                   	inc    %eax
  1081d2:	40                   	inc    %eax
  1081d3:	40                   	inc    %eax
  1081d4:	40                   	inc    %eax
  1081d5:	40                   	inc    %eax
  1081d6:	40                   	inc    %eax
  1081d7:	40                   	inc    %eax
  1081d8:	40                   	inc    %eax
  1081d9:	40                   	inc    %eax
  1081da:	40                   	inc    %eax
  1081db:	08 08                	or     %cl,(%eax)
  1081dd:	08 08                	or     %cl,(%eax)
  1081df:	08 08                	or     %cl,(%eax)
  1081e1:	84 84 84 84 84 84 04 	test   %al,0x4848484(%esp,%eax,4)
  1081e8:	04 04                	add    $0x4,%al
  1081ea:	04 04                	add    $0x4,%al
  1081ec:	04 04                	add    $0x4,%al
  1081ee:	04 04                	add    $0x4,%al
  1081f0:	04 04                	add    $0x4,%al
  1081f2:	04 04                	add    $0x4,%al
  1081f4:	04 04                	add    $0x4,%al
  1081f6:	04 04                	add    $0x4,%al
  1081f8:	04 04                	add    $0x4,%al
  1081fa:	04 08                	add    $0x8,%al
  1081fc:	08 08                	or     %cl,(%eax)
  1081fe:	08 01                	or     %al,(%ecx)
	...
  108220:	30 08                	xor    %cl,(%eax)
  108222:	08 08                	or     %cl,(%eax)
  108224:	08 08                	or     %cl,(%eax)
  108226:	08 08                	or     %cl,(%eax)
  108228:	08 08                	or     %cl,(%eax)
  10822a:	08 08                	or     %cl,(%eax)
  10822c:	08 08                	or     %cl,(%eax)
  10822e:	08 08                	or     %cl,(%eax)
  108230:	08 08                	or     %cl,(%eax)
  108232:	08 08                	or     %cl,(%eax)
  108234:	08 08                	or     %cl,(%eax)
  108236:	08 08                	or     %cl,(%eax)
  108238:	08 08                	or     %cl,(%eax)
  10823a:	08 08                	or     %cl,(%eax)
  10823c:	08 08                	or     %cl,(%eax)
  10823e:	08 08                	or     %cl,(%eax)
  108240:	40                   	inc    %eax
  108241:	40                   	inc    %eax
  108242:	40                   	inc    %eax
  108243:	40                   	inc    %eax
  108244:	40                   	inc    %eax
  108245:	40                   	inc    %eax
  108246:	40                   	inc    %eax
  108247:	40                   	inc    %eax
  108248:	40                   	inc    %eax
  108249:	40                   	inc    %eax
  10824a:	40                   	inc    %eax
  10824b:	40                   	inc    %eax
  10824c:	40                   	inc    %eax
  10824d:	40                   	inc    %eax
  10824e:	40                   	inc    %eax
  10824f:	40                   	inc    %eax
  108250:	40                   	inc    %eax
  108251:	40                   	inc    %eax
  108252:	40                   	inc    %eax
  108253:	40                   	inc    %eax
  108254:	40                   	inc    %eax
  108255:	40                   	inc    %eax
  108256:	40                   	inc    %eax
  108257:	08 40 40             	or     %al,0x40(%eax)
  10825a:	40                   	inc    %eax
  10825b:	40                   	inc    %eax
  10825c:	40                   	inc    %eax
  10825d:	40                   	inc    %eax
  10825e:	40                   	inc    %eax
  10825f:	04 04                	add    $0x4,%al
  108261:	04 04                	add    $0x4,%al
  108263:	04 04                	add    $0x4,%al
  108265:	04 04                	add    $0x4,%al
  108267:	04 04                	add    $0x4,%al
  108269:	04 04                	add    $0x4,%al
  10826b:	04 04                	add    $0x4,%al
  10826d:	04 04                	add    $0x4,%al
  10826f:	04 04                	add    $0x4,%al
  108271:	04 04                	add    $0x4,%al
  108273:	04 04                	add    $0x4,%al
  108275:	04 04                	add    $0x4,%al
  108277:	08 04 04             	or     %al,(%esp,%eax,1)
  10827a:	04 04                	add    $0x4,%al
  10827c:	04 04                	add    $0x4,%al
  10827e:	04 04                	add    $0x4,%al

00108280 <main_arena>:
	...
  108288:	80 82 10 00 80 82 10 	addb   $0x10,0x82800010(%edx)
  10828f:	00 88 82 10 00 88    	add    %cl,0x88001082(%eax)
  108295:	82                   	(bad)  
  108296:	10 00                	adc    %al,(%eax)
  108298:	90                   	nop    
  108299:	82                   	(bad)  
  10829a:	10 00                	adc    %al,(%eax)
  10829c:	90                   	nop    
  10829d:	82                   	(bad)  
  10829e:	10 00                	adc    %al,(%eax)
  1082a0:	98                   	cwtl   
  1082a1:	82                   	(bad)  
  1082a2:	10 00                	adc    %al,(%eax)
  1082a4:	98                   	cwtl   
  1082a5:	82                   	(bad)  
  1082a6:	10 00                	adc    %al,(%eax)
  1082a8:	a0 82 10 00 a0       	mov    0xa0001082,%al
  1082ad:	82                   	(bad)  
  1082ae:	10 00                	adc    %al,(%eax)
  1082b0:	a8 82                	test   $0x82,%al
  1082b2:	10 00                	adc    %al,(%eax)
  1082b4:	a8 82                	test   $0x82,%al
  1082b6:	10 00                	adc    %al,(%eax)
  1082b8:	b0 82                	mov    $0x82,%al
  1082ba:	10 00                	adc    %al,(%eax)
  1082bc:	b0 82                	mov    $0x82,%al
  1082be:	10 00                	adc    %al,(%eax)
  1082c0:	b8 82 10 00 b8       	mov    $0xb8001082,%eax
  1082c5:	82                   	(bad)  
  1082c6:	10 00                	adc    %al,(%eax)
  1082c8:	c0 82 10 00 c0 82 10 	rolb   $0x10,0x82c00010(%edx)
  1082cf:	00 c8                	add    %cl,%al
  1082d1:	82                   	(bad)  
  1082d2:	10 00                	adc    %al,(%eax)
  1082d4:	c8 82 10 00          	enter  $0x1082,$0x0
  1082d8:	d0 82 10 00 d0 82    	rolb   0x82d00010(%edx)
  1082de:	10 00                	adc    %al,(%eax)
  1082e0:	d8 82 10 00 d8 82    	fadds  0x82d80010(%edx)
  1082e6:	10 00                	adc    %al,(%eax)
  1082e8:	e0 82                	loopne 10826c <_ctype+0xec>
  1082ea:	10 00                	adc    %al,(%eax)
  1082ec:	e0 82                	loopne 108270 <_ctype+0xf0>
  1082ee:	10 00                	adc    %al,(%eax)
  1082f0:	e8 82 10 00 e8       	call   e8109377 <_end+0xe7fff377>
  1082f5:	82                   	(bad)  
  1082f6:	10 00                	adc    %al,(%eax)
  1082f8:	f0 82                	lock (bad) 
  1082fa:	10 00                	adc    %al,(%eax)
  1082fc:	f0 82                	lock (bad) 
  1082fe:	10 00                	adc    %al,(%eax)
  108300:	f8                   	clc    
  108301:	82                   	(bad)  
  108302:	10 00                	adc    %al,(%eax)
  108304:	f8                   	clc    
  108305:	82                   	(bad)  
  108306:	10 00                	adc    %al,(%eax)
  108308:	00 83 10 00 00 83    	add    %al,0x83000010(%ebx)
  10830e:	10 00                	adc    %al,(%eax)
  108310:	08 83 10 00 08 83    	or     %al,0x83080010(%ebx)
  108316:	10 00                	adc    %al,(%eax)
  108318:	10 83 10 00 10 83    	adc    %al,0x83100010(%ebx)
  10831e:	10 00                	adc    %al,(%eax)
  108320:	18 83 10 00 18 83    	sbb    %al,0x83180010(%ebx)
  108326:	10 00                	adc    %al,(%eax)
  108328:	20 83 10 00 20 83    	and    %al,0x83200010(%ebx)
  10832e:	10 00                	adc    %al,(%eax)
  108330:	28 83 10 00 28 83    	sub    %al,0x83280010(%ebx)
  108336:	10 00                	adc    %al,(%eax)
  108338:	30 83 10 00 30 83    	xor    %al,0x83300010(%ebx)
  10833e:	10 00                	adc    %al,(%eax)
  108340:	38 83 10 00 38 83    	cmp    %al,0x83380010(%ebx)
  108346:	10 00                	adc    %al,(%eax)
  108348:	40                   	inc    %eax
  108349:	83 10 00             	adcl   $0x0,(%eax)
  10834c:	40                   	inc    %eax
  10834d:	83 10 00             	adcl   $0x0,(%eax)
  108350:	48                   	dec    %eax
  108351:	83 10 00             	adcl   $0x0,(%eax)
  108354:	48                   	dec    %eax
  108355:	83 10 00             	adcl   $0x0,(%eax)
  108358:	50                   	push   %eax
  108359:	83 10 00             	adcl   $0x0,(%eax)
  10835c:	50                   	push   %eax
  10835d:	83 10 00             	adcl   $0x0,(%eax)
  108360:	58                   	pop    %eax
  108361:	83 10 00             	adcl   $0x0,(%eax)
  108364:	58                   	pop    %eax
  108365:	83 10 00             	adcl   $0x0,(%eax)
  108368:	60                   	pusha  
  108369:	83 10 00             	adcl   $0x0,(%eax)
  10836c:	60                   	pusha  
  10836d:	83 10 00             	adcl   $0x0,(%eax)
  108370:	68 83 10 00 68       	push   $0x68001083
  108375:	83 10 00             	adcl   $0x0,(%eax)
  108378:	70 83                	jo     1082fd <main_arena+0x7d>
  10837a:	10 00                	adc    %al,(%eax)
  10837c:	70 83                	jo     108301 <main_arena+0x81>
  10837e:	10 00                	adc    %al,(%eax)
  108380:	78 83                	js     108305 <main_arena+0x85>
  108382:	10 00                	adc    %al,(%eax)
  108384:	78 83                	js     108309 <main_arena+0x89>
  108386:	10 00                	adc    %al,(%eax)
  108388:	80 83 10 00 80 83 10 	addb   $0x10,0x83800010(%ebx)
  10838f:	00 88 83 10 00 88    	add    %cl,0x88001083(%eax)
  108395:	83 10 00             	adcl   $0x0,(%eax)
  108398:	90                   	nop    
  108399:	83 10 00             	adcl   $0x0,(%eax)
  10839c:	90                   	nop    
  10839d:	83 10 00             	adcl   $0x0,(%eax)
  1083a0:	98                   	cwtl   
  1083a1:	83 10 00             	adcl   $0x0,(%eax)
  1083a4:	98                   	cwtl   
  1083a5:	83 10 00             	adcl   $0x0,(%eax)
  1083a8:	a0 83 10 00 a0       	mov    0xa0001083,%al
  1083ad:	83 10 00             	adcl   $0x0,(%eax)
  1083b0:	a8 83                	test   $0x83,%al
  1083b2:	10 00                	adc    %al,(%eax)
  1083b4:	a8 83                	test   $0x83,%al
  1083b6:	10 00                	adc    %al,(%eax)
  1083b8:	b0 83                	mov    $0x83,%al
  1083ba:	10 00                	adc    %al,(%eax)
  1083bc:	b0 83                	mov    $0x83,%al
  1083be:	10 00                	adc    %al,(%eax)
  1083c0:	b8 83 10 00 b8       	mov    $0xb8001083,%eax
  1083c5:	83 10 00             	adcl   $0x0,(%eax)
  1083c8:	c0 83 10 00 c0 83 10 	rolb   $0x10,0x83c00010(%ebx)
  1083cf:	00 c8                	add    %cl,%al
  1083d1:	83 10 00             	adcl   $0x0,(%eax)
  1083d4:	c8 83 10 00          	enter  $0x1083,$0x0
  1083d8:	d0 83 10 00 d0 83    	rolb   0x83d00010(%ebx)
  1083de:	10 00                	adc    %al,(%eax)
  1083e0:	d8 83 10 00 d8 83    	fadds  0x83d80010(%ebx)
  1083e6:	10 00                	adc    %al,(%eax)
  1083e8:	e0 83                	loopne 10836d <main_arena+0xed>
  1083ea:	10 00                	adc    %al,(%eax)
  1083ec:	e0 83                	loopne 108371 <main_arena+0xf1>
  1083ee:	10 00                	adc    %al,(%eax)
  1083f0:	e8 83 10 00 e8       	call   e8109478 <_end+0xe7fff478>
  1083f5:	83 10 00             	adcl   $0x0,(%eax)
  1083f8:	f0 83 10 00          	lock adcl $0x0,(%eax)
  1083fc:	f0 83 10 00          	lock adcl $0x0,(%eax)
  108400:	f8                   	clc    
  108401:	83 10 00             	adcl   $0x0,(%eax)
  108404:	f8                   	clc    
  108405:	83 10 00             	adcl   $0x0,(%eax)
  108408:	00 84 10 00 00 84 10 	add    %al,0x10840000(%eax,%edx,1)
  10840f:	00 08                	add    %cl,(%eax)
  108411:	84 10                	test   %dl,(%eax)
  108413:	00 08                	add    %cl,(%eax)
  108415:	84 10                	test   %dl,(%eax)
  108417:	00 10                	add    %dl,(%eax)
  108419:	84 10                	test   %dl,(%eax)
  10841b:	00 10                	add    %dl,(%eax)
  10841d:	84 10                	test   %dl,(%eax)
  10841f:	00 18                	add    %bl,(%eax)
  108421:	84 10                	test   %dl,(%eax)
  108423:	00 18                	add    %bl,(%eax)
  108425:	84 10                	test   %dl,(%eax)
  108427:	00 20                	add    %ah,(%eax)
  108429:	84 10                	test   %dl,(%eax)
  10842b:	00 20                	add    %ah,(%eax)
  10842d:	84 10                	test   %dl,(%eax)
  10842f:	00 28                	add    %ch,(%eax)
  108431:	84 10                	test   %dl,(%eax)
  108433:	00 28                	add    %ch,(%eax)
  108435:	84 10                	test   %dl,(%eax)
  108437:	00 30                	add    %dh,(%eax)
  108439:	84 10                	test   %dl,(%eax)
  10843b:	00 30                	add    %dh,(%eax)
  10843d:	84 10                	test   %dl,(%eax)
  10843f:	00 38                	add    %bh,(%eax)
  108441:	84 10                	test   %dl,(%eax)
  108443:	00 38                	add    %bh,(%eax)
  108445:	84 10                	test   %dl,(%eax)
  108447:	00 40 84             	add    %al,0xffffff84(%eax)
  10844a:	10 00                	adc    %al,(%eax)
  10844c:	40                   	inc    %eax
  10844d:	84 10                	test   %dl,(%eax)
  10844f:	00 48 84             	add    %cl,0xffffff84(%eax)
  108452:	10 00                	adc    %al,(%eax)
  108454:	48                   	dec    %eax
  108455:	84 10                	test   %dl,(%eax)
  108457:	00 50 84             	add    %dl,0xffffff84(%eax)
  10845a:	10 00                	adc    %al,(%eax)
  10845c:	50                   	push   %eax
  10845d:	84 10                	test   %dl,(%eax)
  10845f:	00 58 84             	add    %bl,0xffffff84(%eax)
  108462:	10 00                	adc    %al,(%eax)
  108464:	58                   	pop    %eax
  108465:	84 10                	test   %dl,(%eax)
  108467:	00 60 84             	add    %ah,0xffffff84(%eax)
  10846a:	10 00                	adc    %al,(%eax)
  10846c:	60                   	pusha  
  10846d:	84 10                	test   %dl,(%eax)
  10846f:	00 68 84             	add    %ch,0xffffff84(%eax)
  108472:	10 00                	adc    %al,(%eax)
  108474:	68 84 10 00 70       	push   $0x70001084
  108479:	84 10                	test   %dl,(%eax)
  10847b:	00 70 84             	add    %dh,0xffffff84(%eax)
  10847e:	10 00                	adc    %al,(%eax)
  108480:	78 84                	js     108406 <main_arena+0x186>
  108482:	10 00                	adc    %al,(%eax)
  108484:	78 84                	js     10840a <main_arena+0x18a>
  108486:	10 00                	adc    %al,(%eax)
  108488:	80 84 10 00 80 84 10 	addb   $0x0,0x10848000(%eax,%edx,1)
  10848f:	00 
  108490:	88 84 10 00 88 84 10 	mov    %al,0x10848800(%eax,%edx,1)
  108497:	00 90 84 10 00 90    	add    %dl,0x90001084(%eax)
  10849d:	84 10                	test   %dl,(%eax)
  10849f:	00 98 84 10 00 98    	add    %bl,0x98001084(%eax)
  1084a5:	84 10                	test   %dl,(%eax)
  1084a7:	00 a0 84 10 00 a0    	add    %ah,0xa0001084(%eax)
  1084ad:	84 10                	test   %dl,(%eax)
  1084af:	00 a8 84 10 00 a8    	add    %ch,0xa8001084(%eax)
  1084b5:	84 10                	test   %dl,(%eax)
  1084b7:	00 b0 84 10 00 b0    	add    %dh,0xb0001084(%eax)
  1084bd:	84 10                	test   %dl,(%eax)
  1084bf:	00 b8 84 10 00 b8    	add    %bh,0xb8001084(%eax)
  1084c5:	84 10                	test   %dl,(%eax)
  1084c7:	00 c0                	add    %al,%al
  1084c9:	84 10                	test   %dl,(%eax)
  1084cb:	00 c0                	add    %al,%al
  1084cd:	84 10                	test   %dl,(%eax)
  1084cf:	00 c8                	add    %cl,%al
  1084d1:	84 10                	test   %dl,(%eax)
  1084d3:	00 c8                	add    %cl,%al
  1084d5:	84 10                	test   %dl,(%eax)
  1084d7:	00 d0                	add    %dl,%al
  1084d9:	84 10                	test   %dl,(%eax)
  1084db:	00 d0                	add    %dl,%al
  1084dd:	84 10                	test   %dl,(%eax)
  1084df:	00 d8                	add    %bl,%al
  1084e1:	84 10                	test   %dl,(%eax)
  1084e3:	00 d8                	add    %bl,%al
  1084e5:	84 10                	test   %dl,(%eax)
  1084e7:	00 e0                	add    %ah,%al
  1084e9:	84 10                	test   %dl,(%eax)
  1084eb:	00 e0                	add    %ah,%al
  1084ed:	84 10                	test   %dl,(%eax)
  1084ef:	00 e8                	add    %ch,%al
  1084f1:	84 10                	test   %dl,(%eax)
  1084f3:	00 e8                	add    %ch,%al
  1084f5:	84 10                	test   %dl,(%eax)
  1084f7:	00 f0                	add    %dh,%al
  1084f9:	84 10                	test   %dl,(%eax)
  1084fb:	00 f0                	add    %dh,%al
  1084fd:	84 10                	test   %dl,(%eax)
  1084ff:	00 f8                	add    %bh,%al
  108501:	84 10                	test   %dl,(%eax)
  108503:	00 f8                	add    %bh,%al
  108505:	84 10                	test   %dl,(%eax)
  108507:	00 00                	add    %al,(%eax)
  108509:	85 10                	test   %edx,(%eax)
  10850b:	00 00                	add    %al,(%eax)
  10850d:	85 10                	test   %edx,(%eax)
  10850f:	00 08                	add    %cl,(%eax)
  108511:	85 10                	test   %edx,(%eax)
  108513:	00 08                	add    %cl,(%eax)
  108515:	85 10                	test   %edx,(%eax)
  108517:	00 10                	add    %dl,(%eax)
  108519:	85 10                	test   %edx,(%eax)
  10851b:	00 10                	add    %dl,(%eax)
  10851d:	85 10                	test   %edx,(%eax)
  10851f:	00 18                	add    %bl,(%eax)
  108521:	85 10                	test   %edx,(%eax)
  108523:	00 18                	add    %bl,(%eax)
  108525:	85 10                	test   %edx,(%eax)
  108527:	00 20                	add    %ah,(%eax)
  108529:	85 10                	test   %edx,(%eax)
  10852b:	00 20                	add    %ah,(%eax)
  10852d:	85 10                	test   %edx,(%eax)
  10852f:	00 28                	add    %ch,(%eax)
  108531:	85 10                	test   %edx,(%eax)
  108533:	00 28                	add    %ch,(%eax)
  108535:	85 10                	test   %edx,(%eax)
  108537:	00 30                	add    %dh,(%eax)
  108539:	85 10                	test   %edx,(%eax)
  10853b:	00 30                	add    %dh,(%eax)
  10853d:	85 10                	test   %edx,(%eax)
  10853f:	00 38                	add    %bh,(%eax)
  108541:	85 10                	test   %edx,(%eax)
  108543:	00 38                	add    %bh,(%eax)
  108545:	85 10                	test   %edx,(%eax)
  108547:	00 40 85             	add    %al,0xffffff85(%eax)
  10854a:	10 00                	adc    %al,(%eax)
  10854c:	40                   	inc    %eax
  10854d:	85 10                	test   %edx,(%eax)
  10854f:	00 48 85             	add    %cl,0xffffff85(%eax)
  108552:	10 00                	adc    %al,(%eax)
  108554:	48                   	dec    %eax
  108555:	85 10                	test   %edx,(%eax)
  108557:	00 50 85             	add    %dl,0xffffff85(%eax)
  10855a:	10 00                	adc    %al,(%eax)
  10855c:	50                   	push   %eax
  10855d:	85 10                	test   %edx,(%eax)
  10855f:	00 58 85             	add    %bl,0xffffff85(%eax)
  108562:	10 00                	adc    %al,(%eax)
  108564:	58                   	pop    %eax
  108565:	85 10                	test   %edx,(%eax)
  108567:	00 60 85             	add    %ah,0xffffff85(%eax)
  10856a:	10 00                	adc    %al,(%eax)
  10856c:	60                   	pusha  
  10856d:	85 10                	test   %edx,(%eax)
  10856f:	00 68 85             	add    %ch,0xffffff85(%eax)
  108572:	10 00                	adc    %al,(%eax)
  108574:	68 85 10 00 70       	push   $0x70001085
  108579:	85 10                	test   %edx,(%eax)
  10857b:	00 70 85             	add    %dh,0xffffff85(%eax)
  10857e:	10 00                	adc    %al,(%eax)
  108580:	78 85                	js     108507 <main_arena+0x287>
  108582:	10 00                	adc    %al,(%eax)
  108584:	78 85                	js     10850b <main_arena+0x28b>
  108586:	10 00                	adc    %al,(%eax)
  108588:	80 85 10 00 80 85 10 	addb   $0x10,0x85800010(%ebp)
  10858f:	00 88 85 10 00 88    	add    %cl,0x88001085(%eax)
  108595:	85 10                	test   %edx,(%eax)
  108597:	00 90 85 10 00 90    	add    %dl,0x90001085(%eax)
  10859d:	85 10                	test   %edx,(%eax)
  10859f:	00 98 85 10 00 98    	add    %bl,0x98001085(%eax)
  1085a5:	85 10                	test   %edx,(%eax)
  1085a7:	00 a0 85 10 00 a0    	add    %ah,0xa0001085(%eax)
  1085ad:	85 10                	test   %edx,(%eax)
  1085af:	00 a8 85 10 00 a8    	add    %ch,0xa8001085(%eax)
  1085b5:	85 10                	test   %edx,(%eax)
  1085b7:	00 b0 85 10 00 b0    	add    %dh,0xb0001085(%eax)
  1085bd:	85 10                	test   %edx,(%eax)
  1085bf:	00 b8 85 10 00 b8    	add    %bh,0xb8001085(%eax)
  1085c5:	85 10                	test   %edx,(%eax)
  1085c7:	00 c0                	add    %al,%al
  1085c9:	85 10                	test   %edx,(%eax)
  1085cb:	00 c0                	add    %al,%al
  1085cd:	85 10                	test   %edx,(%eax)
  1085cf:	00 c8                	add    %cl,%al
  1085d1:	85 10                	test   %edx,(%eax)
  1085d3:	00 c8                	add    %cl,%al
  1085d5:	85 10                	test   %edx,(%eax)
  1085d7:	00 d0                	add    %dl,%al
  1085d9:	85 10                	test   %edx,(%eax)
  1085db:	00 d0                	add    %dl,%al
  1085dd:	85 10                	test   %edx,(%eax)
  1085df:	00 d8                	add    %bl,%al
  1085e1:	85 10                	test   %edx,(%eax)
  1085e3:	00 d8                	add    %bl,%al
  1085e5:	85 10                	test   %edx,(%eax)
  1085e7:	00 e0                	add    %ah,%al
  1085e9:	85 10                	test   %edx,(%eax)
  1085eb:	00 e0                	add    %ah,%al
  1085ed:	85 10                	test   %edx,(%eax)
  1085ef:	00 e8                	add    %ch,%al
  1085f1:	85 10                	test   %edx,(%eax)
  1085f3:	00 e8                	add    %ch,%al
  1085f5:	85 10                	test   %edx,(%eax)
  1085f7:	00 f0                	add    %dh,%al
  1085f9:	85 10                	test   %edx,(%eax)
  1085fb:	00 f0                	add    %dh,%al
  1085fd:	85 10                	test   %edx,(%eax)
  1085ff:	00 f8                	add    %bh,%al
  108601:	85 10                	test   %edx,(%eax)
  108603:	00 f8                	add    %bh,%al
  108605:	85 10                	test   %edx,(%eax)
  108607:	00 00                	add    %al,(%eax)
  108609:	86 10                	xchg   %dl,(%eax)
  10860b:	00 00                	add    %al,(%eax)
  10860d:	86 10                	xchg   %dl,(%eax)
  10860f:	00 08                	add    %cl,(%eax)
  108611:	86 10                	xchg   %dl,(%eax)
  108613:	00 08                	add    %cl,(%eax)
  108615:	86 10                	xchg   %dl,(%eax)
  108617:	00 10                	add    %dl,(%eax)
  108619:	86 10                	xchg   %dl,(%eax)
  10861b:	00 10                	add    %dl,(%eax)
  10861d:	86 10                	xchg   %dl,(%eax)
  10861f:	00 18                	add    %bl,(%eax)
  108621:	86 10                	xchg   %dl,(%eax)
  108623:	00 18                	add    %bl,(%eax)
  108625:	86 10                	xchg   %dl,(%eax)
  108627:	00 20                	add    %ah,(%eax)
  108629:	86 10                	xchg   %dl,(%eax)
  10862b:	00 20                	add    %ah,(%eax)
  10862d:	86 10                	xchg   %dl,(%eax)
  10862f:	00 28                	add    %ch,(%eax)
  108631:	86 10                	xchg   %dl,(%eax)
  108633:	00 28                	add    %ch,(%eax)
  108635:	86 10                	xchg   %dl,(%eax)
  108637:	00 30                	add    %dh,(%eax)
  108639:	86 10                	xchg   %dl,(%eax)
  10863b:	00 30                	add    %dh,(%eax)
  10863d:	86 10                	xchg   %dl,(%eax)
  10863f:	00 38                	add    %bh,(%eax)
  108641:	86 10                	xchg   %dl,(%eax)
  108643:	00 38                	add    %bh,(%eax)
  108645:	86 10                	xchg   %dl,(%eax)
  108647:	00 40 86             	add    %al,0xffffff86(%eax)
  10864a:	10 00                	adc    %al,(%eax)
  10864c:	40                   	inc    %eax
  10864d:	86 10                	xchg   %dl,(%eax)
  10864f:	00 48 86             	add    %cl,0xffffff86(%eax)
  108652:	10 00                	adc    %al,(%eax)
  108654:	48                   	dec    %eax
  108655:	86 10                	xchg   %dl,(%eax)
  108657:	00 50 86             	add    %dl,0xffffff86(%eax)
  10865a:	10 00                	adc    %al,(%eax)
  10865c:	50                   	push   %eax
  10865d:	86 10                	xchg   %dl,(%eax)
  10865f:	00 58 86             	add    %bl,0xffffff86(%eax)
  108662:	10 00                	adc    %al,(%eax)
  108664:	58                   	pop    %eax
  108665:	86 10                	xchg   %dl,(%eax)
  108667:	00 60 86             	add    %ah,0xffffff86(%eax)
  10866a:	10 00                	adc    %al,(%eax)
  10866c:	60                   	pusha  
  10866d:	86 10                	xchg   %dl,(%eax)
  10866f:	00 68 86             	add    %ch,0xffffff86(%eax)
  108672:	10 00                	adc    %al,(%eax)
  108674:	68 86 10 00 70       	push   $0x70001086
  108679:	86 10                	xchg   %dl,(%eax)
  10867b:	00 70 86             	add    %dh,0xffffff86(%eax)
  10867e:	10 00                	adc    %al,(%eax)
  108680:	78 86                	js     108608 <main_arena+0x388>
  108682:	10 00                	adc    %al,(%eax)
  108684:	78 86                	js     10860c <main_arena+0x38c>
  108686:	10 00                	adc    %al,(%eax)
  108688:	80 82 10 00 00 00 00 	addb   $0x0,0x10(%edx)
  10868f:	00 08                	add    %cl,(%eax)
	...

001086a4 <list_lock>:
  1086a4:	08 00                	or     %al,(%eax)
	...

001086b8 <trim_threshold>:
  1086b8:	00 00                	add    %al,(%eax)
  1086ba:	02 00                	add    (%eax),%al

001086bc <n_mmaps_max>:
  1086bc:	00 04 00             	add    %al,(%eax,%eax,1)
	...

001086c0 <mmap_threshold>:
  1086c0:	00 00                	add    %al,(%eax)
  1086c2:	02 00                	add    (%eax),%al

001086c4 <check_action>:
  1086c4:	01 00                	add    %eax,(%eax)
	...

001086c8 <sbrk_base>:
  1086c8:	ff                   	(bad)  
  1086c9:	ff                   	(bad)  
  1086ca:	ff                   	(bad)  
  1086cb:	ff                   	(bad)  

001086cc <__malloc_initialized>:
  1086cc:	ff                   	(bad)  
  1086cd:	ff                   	(bad)  
  1086ce:	ff                   	(bad)  
  1086cf:	ff 01                	incl   (%ecx)

001086d0 <stdout_s>:
  1086d0:	01 00                	add    %eax,(%eax)
	...

001086e4 <stderr_s>:
  1086e4:	02 00                	add    (%eax),%al
	...

001086f8 <stdin>:
  1086f8:	88 96 10 00 d0 86    	mov    %dl,0x86d00010(%esi)

001086fc <stdout>:
  1086fc:	d0 86 10 00 e4 86    	rolb   0x86e40010(%esi)

00108700 <stderr>:
  108700:	e4 86                	in     $0x86,%al
  108702:	10 00                	adc    %al,(%eax)
Disassembly of section .bss:

00109000 <ttypool>:
	...

00109020 <ttys>:
  109020:	00 00                	add    %al,(%eax)
	...

00109024 <termindex>:
	...

00109040 <vga>:
	...

00109060 <buf>:
	...

00109260 <top_pad>:
  109260:	00 00                	add    %al,(%eax)
	...

00109264 <max_sbrked_mem>:
  109264:	00 00                	add    %al,(%eax)
	...

00109268 <n_mmaps>:
  109268:	00 00                	add    %al,(%eax)
	...

0010926c <max_n_mmaps>:
  10926c:	00 00                	add    %al,(%eax)
	...

00109270 <mmapped_mem>:
  109270:	00 00                	add    %al,(%eax)
	...

00109274 <max_mmapped_mem>:
  109274:	00 00                	add    %al,(%eax)
	...

00109278 <arena_mem>:
	...

00109280 <arena_key>:
	...

00109680 <prev.0>:
  109680:	00 00                	add    %al,(%eax)
	...

00109684 <environ>:
  109684:	00 00                	add    %al,(%eax)
	...

00109688 <stdin_s>:
	...

0010969c <errno>:
  10969c:	00 00                	add    %al,(%eax)
	...
Disassembly of section .comment:

001096a0 <.comment>:
  1096a0:	00 47 43             	add    %al,0x43(%edi)
  1096a3:	43                   	inc    %ebx
  1096a4:	3a 20                	cmp    (%eax),%ah
  1096a6:	28 47 4e             	sub    %al,0x4e(%edi)
  1096a9:	55                   	push   %ebp
  1096aa:	29 20                	sub    %esp,(%eax)
  1096ac:	33 2e                	xor    (%esi),%ebp
  1096ae:	33 2e                	xor    (%esi),%ebp
  1096b0:	33 00                	xor    (%eax),%eax
  1096b2:	00 47 43             	add    %al,0x43(%edi)
  1096b5:	43                   	inc    %ebx
  1096b6:	3a 20                	cmp    (%eax),%ah
  1096b8:	28 47 4e             	sub    %al,0x4e(%edi)
  1096bb:	55                   	push   %ebp
  1096bc:	29 20                	sub    %esp,(%eax)
  1096be:	33 2e                	xor    (%esi),%ebp
  1096c0:	33 2e                	xor    (%esi),%ebp
  1096c2:	33 00                	xor    (%eax),%eax
  1096c4:	00 47 43             	add    %al,0x43(%edi)
  1096c7:	43                   	inc    %ebx
  1096c8:	3a 20                	cmp    (%eax),%ah
  1096ca:	28 47 4e             	sub    %al,0x4e(%edi)
  1096cd:	55                   	push   %ebp
  1096ce:	29 20                	sub    %esp,(%eax)
  1096d0:	33 2e                	xor    (%esi),%ebp
  1096d2:	33 2e                	xor    (%esi),%ebp
  1096d4:	33 00                	xor    (%eax),%eax
  1096d6:	00 47 43             	add    %al,0x43(%edi)
  1096d9:	43                   	inc    %ebx
  1096da:	3a 20                	cmp    (%eax),%ah
  1096dc:	28 47 4e             	sub    %al,0x4e(%edi)
  1096df:	55                   	push   %ebp
  1096e0:	29 20                	sub    %esp,(%eax)
  1096e2:	33 2e                	xor    (%esi),%ebp
  1096e4:	33 2e                	xor    (%esi),%ebp
  1096e6:	33 00                	xor    (%eax),%eax
  1096e8:	00 47 43             	add    %al,0x43(%edi)
  1096eb:	43                   	inc    %ebx
  1096ec:	3a 20                	cmp    (%eax),%ah
  1096ee:	28 47 4e             	sub    %al,0x4e(%edi)
  1096f1:	55                   	push   %ebp
  1096f2:	29 20                	sub    %esp,(%eax)
  1096f4:	33 2e                	xor    (%esi),%ebp
  1096f6:	33 2e                	xor    (%esi),%ebp
  1096f8:	33 00                	xor    (%eax),%eax
  1096fa:	00 47 43             	add    %al,0x43(%edi)
  1096fd:	43                   	inc    %ebx
  1096fe:	3a 20                	cmp    (%eax),%ah
  109700:	28 47 4e             	sub    %al,0x4e(%edi)
  109703:	55                   	push   %ebp
  109704:	29 20                	sub    %esp,(%eax)
  109706:	33 2e                	xor    (%esi),%ebp
  109708:	33 2e                	xor    (%esi),%ebp
  10970a:	33 00                	xor    (%eax),%eax
  10970c:	00 47 43             	add    %al,0x43(%edi)
  10970f:	43                   	inc    %ebx
  109710:	3a 20                	cmp    (%eax),%ah
  109712:	28 47 4e             	sub    %al,0x4e(%edi)
  109715:	55                   	push   %ebp
  109716:	29 20                	sub    %esp,(%eax)
  109718:	33 2e                	xor    (%esi),%ebp
  10971a:	33 2e                	xor    (%esi),%ebp
  10971c:	33 00                	xor    (%eax),%eax
  10971e:	00 47 43             	add    %al,0x43(%edi)
  109721:	43                   	inc    %ebx
  109722:	3a 20                	cmp    (%eax),%ah
  109724:	28 47 4e             	sub    %al,0x4e(%edi)
  109727:	55                   	push   %ebp
  109728:	29 20                	sub    %esp,(%eax)
  10972a:	33 2e                	xor    (%esi),%ebp
  10972c:	33 2e                	xor    (%esi),%ebp
  10972e:	33 00                	xor    (%eax),%eax
  109730:	00 47 43             	add    %al,0x43(%edi)
  109733:	43                   	inc    %ebx
  109734:	3a 20                	cmp    (%eax),%ah
  109736:	28 47 4e             	sub    %al,0x4e(%edi)
  109739:	55                   	push   %ebp
  10973a:	29 20                	sub    %esp,(%eax)
  10973c:	33 2e                	xor    (%esi),%ebp
  10973e:	33 2e                	xor    (%esi),%ebp
  109740:	33 00                	xor    (%eax),%eax
  109742:	00 47 43             	add    %al,0x43(%edi)
  109745:	43                   	inc    %ebx
  109746:	3a 20                	cmp    (%eax),%ah
  109748:	28 47 4e             	sub    %al,0x4e(%edi)
  10974b:	55                   	push   %ebp
  10974c:	29 20                	sub    %esp,(%eax)
  10974e:	33 2e                	xor    (%esi),%ebp
  109750:	33 2e                	xor    (%esi),%ebp
  109752:	33 00                	xor    (%eax),%eax
  109754:	00 47 43             	add    %al,0x43(%edi)
  109757:	43                   	inc    %ebx
  109758:	3a 20                	cmp    (%eax),%ah
  10975a:	28 47 4e             	sub    %al,0x4e(%edi)
  10975d:	55                   	push   %ebp
  10975e:	29 20                	sub    %esp,(%eax)
  109760:	33 2e                	xor    (%esi),%ebp
  109762:	33 2e                	xor    (%esi),%ebp
  109764:	33 00                	xor    (%eax),%eax
  109766:	00 47 43             	add    %al,0x43(%edi)
  109769:	43                   	inc    %ebx
  10976a:	3a 20                	cmp    (%eax),%ah
  10976c:	28 47 4e             	sub    %al,0x4e(%edi)
  10976f:	55                   	push   %ebp
  109770:	29 20                	sub    %esp,(%eax)
  109772:	33 2e                	xor    (%esi),%ebp
  109774:	33 2e                	xor    (%esi),%ebp
  109776:	33 00                	xor    (%eax),%eax
  109778:	00 47 43             	add    %al,0x43(%edi)
  10977b:	43                   	inc    %ebx
  10977c:	3a 20                	cmp    (%eax),%ah
  10977e:	28 47 4e             	sub    %al,0x4e(%edi)
  109781:	55                   	push   %ebp
  109782:	29 20                	sub    %esp,(%eax)
  109784:	33 2e                	xor    (%esi),%ebp
  109786:	33 2e                	xor    (%esi),%ebp
  109788:	33 00                	xor    (%eax),%eax
  10978a:	00 47 43             	add    %al,0x43(%edi)
  10978d:	43                   	inc    %ebx
  10978e:	3a 20                	cmp    (%eax),%ah
  109790:	28 47 4e             	sub    %al,0x4e(%edi)
  109793:	55                   	push   %ebp
  109794:	29 20                	sub    %esp,(%eax)
  109796:	33 2e                	xor    (%esi),%ebp
  109798:	33 2e                	xor    (%esi),%ebp
  10979a:	33 00                	xor    (%eax),%eax
  10979c:	00 47 43             	add    %al,0x43(%edi)
  10979f:	43                   	inc    %ebx
  1097a0:	3a 20                	cmp    (%eax),%ah
  1097a2:	28 47 4e             	sub    %al,0x4e(%edi)
  1097a5:	55                   	push   %ebp
  1097a6:	29 20                	sub    %esp,(%eax)
  1097a8:	33 2e                	xor    (%esi),%ebp
  1097aa:	33 2e                	xor    (%esi),%ebp
  1097ac:	33 00                	xor    (%eax),%eax
  1097ae:	00 47 43             	add    %al,0x43(%edi)
  1097b1:	43                   	inc    %ebx
  1097b2:	3a 20                	cmp    (%eax),%ah
  1097b4:	28 47 4e             	sub    %al,0x4e(%edi)
  1097b7:	55                   	push   %ebp
  1097b8:	29 20                	sub    %esp,(%eax)
  1097ba:	33 2e                	xor    (%esi),%ebp
  1097bc:	33 2e                	xor    (%esi),%ebp
  1097be:	33 00                	xor    (%eax),%eax
  1097c0:	00 47 43             	add    %al,0x43(%edi)
  1097c3:	43                   	inc    %ebx
  1097c4:	3a 20                	cmp    (%eax),%ah
  1097c6:	28 47 4e             	sub    %al,0x4e(%edi)
  1097c9:	55                   	push   %ebp
  1097ca:	29 20                	sub    %esp,(%eax)
  1097cc:	33 2e                	xor    (%esi),%ebp
  1097ce:	33 2e                	xor    (%esi),%ebp
  1097d0:	33 00                	xor    (%eax),%eax
  1097d2:	00 47 43             	add    %al,0x43(%edi)
  1097d5:	43                   	inc    %ebx
  1097d6:	3a 20                	cmp    (%eax),%ah
  1097d8:	28 47 4e             	sub    %al,0x4e(%edi)
  1097db:	55                   	push   %ebp
  1097dc:	29 20                	sub    %esp,(%eax)
  1097de:	33 2e                	xor    (%esi),%ebp
  1097e0:	33 2e                	xor    (%esi),%ebp
  1097e2:	33 00                	xor    (%eax),%eax
  1097e4:	00 47 43             	add    %al,0x43(%edi)
  1097e7:	43                   	inc    %ebx
  1097e8:	3a 20                	cmp    (%eax),%ah
  1097ea:	28 47 4e             	sub    %al,0x4e(%edi)
  1097ed:	55                   	push   %ebp
  1097ee:	29 20                	sub    %esp,(%eax)
  1097f0:	33 2e                	xor    (%esi),%ebp
  1097f2:	33 2e                	xor    (%esi),%ebp
  1097f4:	33 00                	xor    (%eax),%eax
  1097f6:	00 47 43             	add    %al,0x43(%edi)
  1097f9:	43                   	inc    %ebx
  1097fa:	3a 20                	cmp    (%eax),%ah
  1097fc:	28 47 4e             	sub    %al,0x4e(%edi)
  1097ff:	55                   	push   %ebp
  109800:	29 20                	sub    %esp,(%eax)
  109802:	33 2e                	xor    (%esi),%ebp
  109804:	33 2e                	xor    (%esi),%ebp
  109806:	33 00                	xor    (%eax),%eax
  109808:	00 47 43             	add    %al,0x43(%edi)
  10980b:	43                   	inc    %ebx
  10980c:	3a 20                	cmp    (%eax),%ah
  10980e:	28 47 4e             	sub    %al,0x4e(%edi)
  109811:	55                   	push   %ebp
  109812:	29 20                	sub    %esp,(%eax)
  109814:	33 2e                	xor    (%esi),%ebp
  109816:	33 2e                	xor    (%esi),%ebp
  109818:	33 00                	xor    (%eax),%eax
  10981a:	00 47 43             	add    %al,0x43(%edi)
  10981d:	43                   	inc    %ebx
  10981e:	3a 20                	cmp    (%eax),%ah
  109820:	28 47 4e             	sub    %al,0x4e(%edi)
  109823:	55                   	push   %ebp
  109824:	29 20                	sub    %esp,(%eax)
  109826:	33 2e                	xor    (%esi),%ebp
  109828:	33 2e                	xor    (%esi),%ebp
  10982a:	33 00                	xor    (%eax),%eax
  10982c:	00 47 43             	add    %al,0x43(%edi)
  10982f:	43                   	inc    %ebx
  109830:	3a 20                	cmp    (%eax),%ah
  109832:	28 47 4e             	sub    %al,0x4e(%edi)
  109835:	55                   	push   %ebp
  109836:	29 20                	sub    %esp,(%eax)
  109838:	33 2e                	xor    (%esi),%ebp
  10983a:	33 2e                	xor    (%esi),%ebp
  10983c:	33 00                	xor    (%eax),%eax
  10983e:	00 47 43             	add    %al,0x43(%edi)
  109841:	43                   	inc    %ebx
  109842:	3a 20                	cmp    (%eax),%ah
  109844:	28 47 4e             	sub    %al,0x4e(%edi)
  109847:	55                   	push   %ebp
  109848:	29 20                	sub    %esp,(%eax)
  10984a:	33 2e                	xor    (%esi),%ebp
  10984c:	33 2e                	xor    (%esi),%ebp
  10984e:	33 00                	xor    (%eax),%eax
  109850:	00 47 43             	add    %al,0x43(%edi)
  109853:	43                   	inc    %ebx
  109854:	3a 20                	cmp    (%eax),%ah
  109856:	28 47 4e             	sub    %al,0x4e(%edi)
  109859:	55                   	push   %ebp
  10985a:	29 20                	sub    %esp,(%eax)
  10985c:	33 2e                	xor    (%esi),%ebp
  10985e:	33 2e                	xor    (%esi),%ebp
  109860:	33 00                	xor    (%eax),%eax
